 WFBSManagerNodeJS

 Timestamp is 5e4b5b73 (Tue Feb 18 11:35:15 2020)

 Preferred load address is 0000000180000000

 Start         Length     Name                   Class
 0001:00000000 000004c0H .text$di                CODE
 0001:000004c0 000d1460H .text$mn                CODE
 0001:000d1920 00000020H .text$mn$00             CODE
 0001:000d1940 00007970H .text$x                 CODE
 0001:000d92b0 000003eeH .text$yd                CODE
 0002:00000000 00000720H .idata$5                DATA
 0002:00000720 00000010H .00cfg                  DATA
 0002:00000730 00000008H .CRT$XCA                DATA
 0002:00000738 00000018H .CRT$XCC                DATA
 0002:00000750 00000010H .CRT$XCL                DATA
 0002:00000760 00000070H .CRT$XCU                DATA
 0002:000007d0 00000008H .CRT$XCZ                DATA
 0002:000007d8 00000008H .CRT$XIA                DATA
 0002:000007e0 00000038H .CRT$XIC                DATA
 0002:00000818 00000008H .CRT$XIZ                DATA
 0002:00000820 00000008H .CRT$XLA                DATA
 0002:00000828 00000008H .CRT$XLZ                DATA
 0002:00000830 00000008H .CRT$XPA                DATA
 0002:00000838 00000010H .CRT$XPX                DATA
 0002:00000848 00000008H .CRT$XPXA               DATA
 0002:00000850 00000008H .CRT$XPZ                DATA
 0002:00000858 00000008H .CRT$XTA                DATA
 0002:00000860 00000010H .CRT$XTZ                DATA
 0002:00000870 0002a398H .rdata                  DATA
 0002:0002ac08 00000028H .rdata$T                DATA
 0002:0002ac30 0000c464H .rdata$r                DATA
 0002:00037094 00000444H .rdata$zzzdbg           DATA
 0002:000374d8 00000008H .rtc$IAA                DATA
 0002:000374e0 00000000H .rtc$IMZ                DATA
 0002:000374e0 00000008H .rtc$IZZ                DATA
 0002:000374e8 00000008H .rtc$TAA                DATA
 0002:000374f0 00000000H .rtc$TMZ                DATA
 0002:000374f0 00000010H .rtc$TZZ                DATA
 0002:00037500 00034510H .xdata                  DATA
 0002:0006ba10 00000e60H .xdata$x                DATA
 0002:0006c870 00000180H .edata                  DATA
 0002:0006c9f0 000000c8H .idata$2                DATA
 0002:0006cab8 00000018H .idata$3                DATA
 0002:0006cad0 00000720H .idata$4                DATA
 0002:0006d1f0 000018e8H .idata$6                DATA
 0003:00000000 00001cd0H .data                   DATA
 0003:00001cd0 00006290H .data$r                 DATA
 0003:00007f60 0000febcH .bss                    DATA
 0004:00000000 0000b5d4H .pdata                  DATA
 0005:00000000 000000bcH .gfids$x                DATA
 0005:000000bc 00000124H .gfids$y                DATA
 0006:00000000 00000004H .tls                    DATA
 0006:00000004 00000004H .tls$                   DATA
 0006:00000008 00000001H .tls$ZZZ                DATA
 0007:00000000 00000060H .rsrc$01                DATA
 0007:00000060 00000180H .rsrc$02                DATA

  Address         Publics by Value              Rva+Base               Lib:Object

 0000:00000000       __guard_iat_count          0000000000000000     <absolute>
 0000:00000000       __guard_iat_table          0000000000000000     <absolute>
 0000:00000000       __dynamic_value_reloc_table 0000000000000000     <absolute>
 0000:00000000       ___safe_se_handler_count   0000000000000000     <absolute>
 0000:00000000       __guard_longjmp_count      0000000000000000     <absolute>
 0000:00000000       __guard_longjmp_table      0000000000000000     <absolute>
 0000:00000000       __guard_fids_count         0000000000000000     <absolute>
 0000:00000000       ___safe_se_handler_table   0000000000000000     <absolute>
 0000:00000000       __guard_fids_table         0000000000000000     <absolute>
 0000:00000100       __guard_flags              0000000000000100     <absolute>
 0000:00000000       __ImageBase                0000000180000000     <linker-defined>
 0001:00000590       ?New@?$Factory@VFunctionTemplate@v8@@@imp@Nan@@SA?AV?$Local@VFunctionTemplate@v8@@@v8@@P6AXAEBV?$FunctionCallbackInfo@VValue@v8@@@3@@ZV?$Local@VValue@v8@@@5@V?$Local@VSignature@v8@@@5@@Z 0000000180001590 f i LogicManagerWrap.obj
 0001:00000770       ?ThrowError@Nan@@YAXPEBD@Z 0000000180001770 f i LogicManagerWrap.obj
 0001:00000800       ?Call@Callback@Nan@@QEBA?AV?$Local@VValue@v8@@@v8@@HQEAV34@@Z 0000000180001800 f i LogicManagerWrap.obj
 0001:00000900       ?Initialize@@YAXAEBV?$FunctionCallbackInfo@VValue@v8@@@Nan@@@Z 0000000180001900 f   LogicManagerWrap.obj
 0001:00000b50       ?RegistHandlers@@YAXAEBV?$FunctionCallbackInfo@VValue@v8@@@Nan@@@Z 0000000180001b50 f   LogicManagerWrap.obj
 0001:00000d30       ?InitAll@@YAXV?$Local@VObject@v8@@@v8@@@Z 0000000180001d30 f   LogicManagerWrap.obj
 0001:00000eb0       ?Instance@?$KSingleton@VCDirLogic@@@Patterns@System@@SAPEAVCDirLogic@@XZ 0000000180001eb0 f i LogicManagerWrap.obj
 0001:00000ee0       ?Instance@?$KSingleton@VCLogicManager@@@Patterns@System@@SAPEAVCLogicManager@@XZ 0000000180001ee0 f i LogicManagerWrap.obj
 0001:00000f10       ??$SetMethodAux@V?$Local@VObject@v8@@@v8@@@imp@Nan@@YAXV?$Local@VObject@v8@@@v8@@V?$Local@VString@v8@@@3@V?$Local@VFunctionTemplate@v8@@@3@ZZ 0000000180001f10 f i LogicManagerWrap.obj
 0001:00001000       ?Ref@ObjectWrap@Nan@@MEAAXXZ 0000000180002000 f i DiskWrap.obj
 0001:00001040       ?Unref@ObjectWrap@Nan@@MEAAXXZ 0000000180002040 f i DiskWrap.obj
 0001:000010f0       ?WeakCallback@ObjectWrap@Nan@@CAXAEBV?$WeakCallbackInfo@VObjectWrap@Nan@@@v8@@@Z 00000001800020f0 f i DiskWrap.obj
 0001:00001150       ??_GObjectWrap@Nan@@UEAAPEAXI@Z 0000000180002150 f i DiskWrap.obj
 0001:00001150       ??_EObjectWrap@Nan@@UEAAPEAXI@Z 0000000180002150 f i * CIL library *:* CIL module *
 0001:000011b0       ?Init@DiskWrap@@SAXV?$Local@VObject@v8@@@v8@@@Z 00000001800021b0 f   DiskWrap.obj
 0001:000013a0       ?New@DiskWrap@@SAXAEBV?$FunctionCallbackInfo@VValue@v8@@@Nan@@@Z 00000001800023a0 f   DiskWrap.obj
 0001:000013e0       ?IsolatedInitialize@BitBucket@CryptoPP@@UEAAXAEBVNameValuePairs@2@@Z 00000001800023e0 f   cryptlib64:cryptlib.obj
 0001:000013e0       ??1BitBucket@CryptoPP@@UEAA@XZ 00000001800023e0 f   cryptlib64:cryptlib.obj
 0001:000013e0       ?_Orphan_all@?$_Vector_alloc@U?$_Vec_base_types@GV?$allocator@G@std@@@std@@@std@@QEAAXXZ 00000001800023e0 f   cryptlib64:nbtheory.obj
 0001:000013e0       ?FirstPut@SimpleProxyFilter@CryptoPP@@UEAAXPEBE@Z 00000001800023e0 f   RSACryptElectron:RSACrypt.obj
 0001:000013e0       ??3@YAXPEAX0@Z             00000001800023e0 f   cryptlib64:dll.obj
 0001:000013e0       ?NextPutSingle@FilterWithBufferedInput@CryptoPP@@MEAAXPEBE@Z 00000001800023e0 f   RSACryptElectron:RSACrypt.obj
 0001:000013e0       ??1RandomNumberGenerator@CryptoPP@@UEAA@XZ 00000001800023e0 f   RSACryptElectron:RSACrypt.obj
 0001:000013e0       ?NewDisk@DiskWrap@@SAXAEBV?$FunctionCallbackInfo@VValue@v8@@@Nan@@@Z 00000001800023e0 f   DiskWrap.obj
 0001:000013e0       _guard_check_icall_nop     00000001800023e0 f   LIBCMT:guard_support.obj
 0001:000013e0       __except_validate_context_record 00000001800023e0 f   libvcruntime:jbcxrval.obj
 0001:000013e0       ??1?$_String_alloc@U?$_String_base_types@DV?$allocator@D@std@@@std@@@std@@QEAA@XZ 00000001800023e0 f   RSACryptElectron:RSACrypt.obj
 0001:000013e0       ?InitializeDerived@FilterWithBufferedInput@CryptoPP@@MEAAXAEBVNameValuePairs@2@@Z 00000001800023e0 f   RSACryptElectron:RSACrypt.obj
 0001:000013e0       ??1NullNameValuePairs@CryptoPP@@UEAA@XZ 00000001800023e0 f   RSACryptElectron:RSACrypt.obj
 0001:000013e0       ?_Adopt@_Iterator_base0@std@@QEAAXPEBX@Z 00000001800023e0 f   LogicCallBackManager.obj
 0001:000013e0       ??1ClassNullRNG@CryptoPP@@UEAA@XZ 00000001800023e0 f   cryptlib64:cryptlib.obj
 0001:000013e0       ?FlushDerived@FilterWithBufferedInput@CryptoPP@@MEAAXXZ 00000001800023e0 f   RSACryptElectron:RSACrypt.obj
 0001:000013e0       ?IsolatedInitialize@?$CustomSignalPropagation@VSink@CryptoPP@@@CryptoPP@@EEAAXAEBVNameValuePairs@2@@Z 00000001800023e0 f   cryptlib64:filters.obj
 0001:000013e0       ?SetAutoSignalPropagation@BufferedTransformation@CryptoPP@@UEAAXH@Z 00000001800023e0 f   RSACryptElectron:RSACrypt.obj
 0001:000013e0       ?_Unlock@?$basic_streambuf@DU?$char_traits@D@std@@@std@@UEAAXXZ 00000001800023e0 f   cryptlib64:files.obj
 0001:000013e0       ?_Destroy@?$vector@GV?$allocator@G@std@@@std@@IEAAXPEAG0@Z 00000001800023e0 f   cryptlib64:nbtheory.obj
 0001:000013e0       ?imbue@?$basic_streambuf@DU?$char_traits@D@std@@@std@@MEAAXAEBVlocale@2@@Z 00000001800023e0 f   cryptlib64:files.obj
 0001:000013e0       ?StoreInitialize@BERGeneralDecoder@CryptoPP@@EEAAXAEBVNameValuePairs@2@@Z 00000001800023e0 f   cryptlib64:integer.obj
 0001:000013e0       ?_Lock@?$basic_streambuf@DU?$char_traits@D@std@@@std@@UEAAXXZ 00000001800023e0 f   cryptlib64:files.obj
 0001:000013f0       ?Instance@?$KSingleton@VCDiskLogic@@@Patterns@System@@SAPEAVCDiskLogic@@XZ 00000001800023f0 f i DiskWrap.obj
 0001:00001420       ?Wrap@ObjectWrap@Nan@@IEAAXV?$Local@VObject@v8@@@v8@@@Z 0000000180002420 f i LoginWrap.obj
 0001:00001500       ??_ELoginWrap@@UEAAPEAXI@Z 0000000180002500 f i * CIL library *:* CIL module *
 0001:00001500       ??_GLoginWrap@@UEAAPEAXI@Z 0000000180002500 f i LoginWrap.obj
 0001:00001560       ?CheckPwd@LoginWrap@@QEAAXPEAD0PEAVCallback@Nan@@@Z 0000000180002560 f   LoginWrap.obj
 0001:00001730       ?Init@LoginWrap@@SAXV?$Local@VObject@v8@@@v8@@@Z 0000000180002730 f   LoginWrap.obj
 0001:00001920       ?New@LoginWrap@@SAXAEBV?$FunctionCallbackInfo@VValue@v8@@@Nan@@@Z 0000000180002920 f   LoginWrap.obj
 0001:000019a0       ?Login@LoginWrap@@SAXAEBV?$FunctionCallbackInfo@VValue@v8@@@Nan@@@Z 00000001800029a0 f   LoginWrap.obj
 0001:00001b10       ?GetInstancePtr@?$KSingleton@VCLoginLogic@@@Patterns@System@@SAPEAVCLoginLogic@@XZ 0000000180002b10 f i LoginWrap.obj
 0001:00001b40       ??$Unwrap@VLoginWrap@@@ObjectWrap@Nan@@SAPEAVLoginWrap@@V?$Local@VObject@v8@@@v8@@@Z 0000000180002b40 f i LoginWrap.obj
 0001:00001bc0       ??2@YAPEAX_KPEAX@Z         0000000180002bc0 f i LogicCallBackManager.obj
 0001:00001bd0       ?_Allocate@std@@YAPEAX_K0_N@Z 0000000180002bd0 f i LogicCallBackManager.obj
 0001:00001c50       ?_Deallocate@std@@YAXPEAX_K1@Z 0000000180002c50 f i LogicCallBackManager.obj
 0001:00001cc0       ?OnAsyncClosed@@YAXPEAUuv_handle_s@@@Z 0000000180002cc0 f   LogicCallBackManager.obj
 0001:00001cf0       ?OnEFSWEvent@@YAXPEAUuv_async_s@@@Z 0000000180002cf0 f   LogicCallBackManager.obj
 0001:00001dc0       ?RegisterCallBack@LogicCallBackManager@@QEAAHIPEAUAsyncArgs@@@Z 0000000180002dc0 f   LogicCallBackManager.obj
 0001:00001eb0       ?CreateJsObj@LogicCallBackManager@@SA?AV?$Local@VObject@v8@@@v8@@W4StructType@@PEAX@Z 0000000180002eb0 f   LogicCallBackManager.obj
 0001:000020b0       ?InitHandlers@LogicCallBackManager@@AEAAXXZ 00000001800030b0 f   LogicCallBackManager.obj
 0001:00003270       ?HandleAddMagDir@LogicCallBackManager@@AEAAHPEAUtagREQUEST_EX@@@Z 0000000180004270 f   LogicCallBackManager.obj
 0001:00003400       ?showmanyc@?$basic_streambuf@DU?$char_traits@D@std@@@std@@MEAA_JXZ 0000000180004400 f   cryptlib64:files.obj
 0001:00003400       ?HandleUpdateMagDirOs@LogicCallBackManager@@AEAAHPEAUtagREQUEST_EX@@@Z 0000000180004400 f   LogicCallBackManager.obj
 0001:00003400       ?HandleUpdateOsImg@LogicCallBackManager@@AEAAHPEAUtagREQUEST_EX@@@Z 0000000180004400 f   LogicCallBackManager.obj
 0001:00003400       ?HandleUpdateMagDir@LogicCallBackManager@@AEAAHPEAUtagREQUEST_EX@@@Z 0000000180004400 f   LogicCallBackManager.obj
 0001:00003400       ?HandleDeleteDiskImg@LogicCallBackManager@@AEAAHPEAUtagREQUEST_EX@@@Z 0000000180004400 f   LogicCallBackManager.obj
 0001:00003400       ?GetAutoSignalPropagation@BufferedTransformation@CryptoPP@@UEBAHXZ 0000000180004400 f   RSACryptElectron:RSACrypt.obj
 0001:00003400       ?HandleDeleteMachine@LogicCallBackManager@@AEAAHPEAUtagREQUEST_EX@@@Z 0000000180004400 f   LogicCallBackManager.obj
 0001:00003400       ?HandleUpdateMachineInfo@LogicCallBackManager@@AEAAHPEAUtagREQUEST_EX@@@Z 0000000180004400 f   LogicCallBackManager.obj
 0001:00003400       ?HandleAddMachine@LogicCallBackManager@@AEAAHPEAUtagREQUEST_EX@@@Z 0000000180004400 f   LogicCallBackManager.obj
 0001:00003400       ?HandleDelMagDirOs@LogicCallBackManager@@AEAAHPEAUtagREQUEST_EX@@@Z 0000000180004400 f   LogicCallBackManager.obj
 0001:00003400       ?HandleDeleteOsImg@LogicCallBackManager@@AEAAHPEAUtagREQUEST_EX@@@Z 0000000180004400 f   LogicCallBackManager.obj
 0001:00003400       ?HandleUpdateDiskImg@LogicCallBackManager@@AEAAHPEAUtagREQUEST_EX@@@Z 0000000180004400 f   LogicCallBackManager.obj
 0001:00003400       ?HandleUpdatePartImg@LogicCallBackManager@@AEAAHPEAUtagREQUEST_EX@@@Z 0000000180004400 f   LogicCallBackManager.obj
 0001:00003400       ?HandleBuildPartImg@LogicCallBackManager@@AEAAHPEAUtagREQUEST_EX@@@Z 0000000180004400 f   LogicCallBackManager.obj
 0001:00003400       ?HandleUpdateGroupInfo@LogicCallBackManager@@AEAAHPEAUtagREQUEST_EX@@@Z 0000000180004400 f   LogicCallBackManager.obj
 0001:00003400       ?IVSize@?$SimpleKeyingInterfaceImpl@V?$TwoBases@V?$SimpleKeyedTransformation@VBlockTransformation@CryptoPP@@@CryptoPP@@URijndael_Info@2@@CryptoPP@@V12@@CryptoPP@@UEBAIXZ 0000000180004400 f   cryptlib64:randpool.obj
 0001:00003400       ?HandleDeleteGroup@LogicCallBackManager@@AEAAHPEAUtagREQUEST_EX@@@Z 0000000180004400 f   LogicCallBackManager.obj
 0001:00003400       ?sync@?$basic_streambuf@DU?$char_traits@D@std@@@std@@MEAAHXZ 0000000180004400 f   cryptlib64:files.obj
 0001:00003400       ?HandleBuildOs@LogicCallBackManager@@AEAAHPEAUtagREQUEST_EX@@@Z 0000000180004400 f   LogicCallBackManager.obj
 0001:00003400       ?CopyRangeTo2@Sink@CryptoPP@@UEBA_KAEAVBufferedTransformation@2@AEA_K_KAEBV?$basic_string@DU?$char_traits@D@std@@V?$allocator@D@2@@std@@_N@Z 0000000180004400 f   RSACryptElectron:RSACrypt.obj
 0001:00003400       ?HandleBuildDiskImg@LogicCallBackManager@@AEAAHPEAUtagREQUEST_EX@@@Z 0000000180004400 f   LogicCallBackManager.obj
 0001:00003400       ?NextPut@FilterWithBufferedInput@CryptoPP@@EEAAHPEBE_K@Z 0000000180004400 f   RSACryptElectron:RSACrypt.obj
 0001:00003400       ?Put2@BitBucket@CryptoPP@@UEAA_KPEBE_KH_N@Z 0000000180004400 f   cryptlib64:cryptlib.obj
 0001:00003400       ?NumberOfMessageSeries@BufferedTransformation@CryptoPP@@UEBAIXZ 0000000180004400 f   RSACryptElectron:RSACrypt.obj
 0001:00003400       ?HandleDelMagDir@LogicCallBackManager@@AEAAHPEAUtagREQUEST_EX@@@Z 0000000180004400 f   LogicCallBackManager.obj
 0001:00003400       ?HandleDeletePartImg@LogicCallBackManager@@AEAAHPEAUtagREQUEST_EX@@@Z 0000000180004400 f   LogicCallBackManager.obj
 0001:00003400       ?HandleBuildGroup@LogicCallBackManager@@AEAAHPEAUtagREQUEST_EX@@@Z 0000000180004400 f   LogicCallBackManager.obj
 0001:00003400       ?AttachedTransformation@BufferedTransformation@CryptoPP@@UEAAPEAV12@XZ 0000000180004400 f   RSACryptElectron:RSACrypt.obj
 0001:00003400       ?HandleAddMagDirOs@LogicCallBackManager@@AEAAHPEAUtagREQUEST_EX@@@Z 0000000180004400 f   LogicCallBackManager.obj
 0001:00003410       ??R?$less@I@std@@QEBA_NAEBI0@Z 0000000180004410 f i LogicCallBackManager.obj
 0001:00003420       ?Instance@?$KSingleton@VPacketHandlers@@@Patterns@System@@SAPEAVPacketHandlers@@XZ 0000000180004420 f i LogicCallBackManager.obj
 0001:00003450       ??$swap@DX@std@@YAXAEAD0@Z 0000000180004450 f i LogicCallBackManager.obj
 0001:00003460       ??$forward@AEAI@std@@YAAEAIAEAI@Z 0000000180004460 f i LogicCallBackManager.obj
 0001:00003460       ??$forward@AEBI@std@@YAAEBIAEBI@Z 0000000180004460 f i cryptlib64:integer.obj
 0001:00003460       ??$forward@AEBU?$less@I@std@@@std@@YAAEBU?$less@I@0@AEBU10@@Z 0000000180004460 f i LogicCallBackManager.obj
 0001:00003460       ??$forward@_N@std@@YA$$QEA_NAEA_N@Z 0000000180004460 f i LogicCallBackManager.obj
 0001:00003460       ??$forward@I@std@@YA$$QEAIAEAI@Z 0000000180004460 f i LogicCallBackManager.obj
 0001:00003460       ??$forward@AEAG@std@@YAAEAGAEAG@Z 0000000180004460 f i cryptlib64:nbtheory.obj
 0001:00003460       ??0?$_Wrap_alloc@V?$allocator@D@std@@@std@@QEAA@XZ 0000000180004460 f i RSACryptElectron:RSACrypt.obj
 0001:00003460       ?setbuf@?$basic_streambuf@DU?$char_traits@D@std@@@std@@MEAAPEAV12@PEAD_J@Z 0000000180004460 f i cryptlib64:files.obj
 0001:00003460       ??$forward@U_Zero_then_variadic_args_t@std@@@std@@YA$$QEAU_Zero_then_variadic_args_t@0@AEAU10@@Z 0000000180004460 f i LogicCallBackManager.obj
 0001:00003470       ?Invoke@?$DelegateImpl@U?$pair@PEAVLogicCallBackManager@@P81@EAAHPEAUtagREQUEST_EX@@@Z@std@@@?$Delegate@$$A6AHPEAUtagREQUEST_EX@@@Z@@UEBAHPEAUtagREQUEST_EX@@@Z 0000000180004470 f i LogicCallBackManager.obj
 0001:00003480       ?Clone@?$DelegateImpl@U?$pair@PEAVLogicCallBackManager@@P81@EAAHPEAUtagREQUEST_EX@@@Z@std@@@?$Delegate@$$A6AHPEAUtagREQUEST_EX@@@Z@@UEBAPEAVDelegateImplBase@2@XZ 0000000180004480 f i LogicCallBackManager.obj
 0001:000034c0       ??_E?$DelegateImpl@U?$pair@PEAVLogicCallBackManager@@P81@EAAHPEAUtagREQUEST_EX@@@Z@std@@@?$Delegate@$$A6AHPEAUtagREQUEST_EX@@@Z@@UEAAPEAXI@Z 00000001800044c0 f i * CIL library *:* CIL module *
 0001:000034c0       ??_G?$DelegateImpl@U?$pair@PEAVLogicCallBackManager@@P81@EAAHPEAUtagREQUEST_EX@@@Z@std@@@?$Delegate@$$A6AHPEAUtagREQUEST_EX@@@Z@@UEAAPEAXI@Z 00000001800044c0 f i LogicCallBackManager.obj
 0001:000034f0       ??_EDelegateImplBase@?$Delegate@$$A6AHPEAUtagREQUEST_EX@@@Z@@UEAAPEAXI@Z 00000001800044f0 f i * CIL library *:* CIL module *
 0001:000034f0       ??_GDelegateImplBase@?$Delegate@$$A6AHPEAUtagREQUEST_EX@@@Z@@UEAAPEAXI@Z 00000001800044f0 f i LogicCallBackManager.obj
 0001:00003520       ??$_Insert_nohint@AEAU?$pair@$$CBIPEAUAsyncArgs@@@std@@PEAU?$_Tree_node@U?$pair@$$CBIPEAUAsyncArgs@@@std@@PEAX@2@@?$_Tree@V?$_Tmap_traits@IPEAUAsyncArgs@@U?$less@I@std@@V?$allocator@U?$pair@$$CBIPEAUAsyncArgs@@@std@@@3@$0A@@std@@@std@@IEAA?AU?$pair@V?$_Tree_iterator@V?$_Tree_val@U?$_Tree_simple_types@U?$pair@$$CBIPEAUAsyncArgs@@@std@@@std@@@std@@@std@@_N@1@_NAEAU?$pair@$$CBIPEAUAsyncArgs@@@1@PEAU?$_Tree_node@U?$pair@$$CBIPEAUAsyncArgs@@@std@@PEAX@1@@Z 0000000180004520 f i LogicCallBackManager.obj
 0001:00003640       ??$_Insert_at@AEAU?$pair@$$CBIPEAUAsyncArgs@@@std@@PEAU?$_Tree_node@U?$pair@$$CBIPEAUAsyncArgs@@@std@@PEAX@2@@?$_Tree@V?$_Tmap_traits@IPEAUAsyncArgs@@U?$less@I@std@@V?$allocator@U?$pair@$$CBIPEAUAsyncArgs@@@std@@@3@$0A@@std@@@std@@IEAA?AV?$_Tree_iterator@V?$_Tree_val@U?$_Tree_simple_types@U?$pair@$$CBIPEAUAsyncArgs@@@std@@@std@@@std@@@1@_NPEAU?$_Tree_node@U?$pair@$$CBIPEAUAsyncArgs@@@std@@PEAX@1@AEAU?$pair@$$CBIPEAUAsyncArgs@@@1@1@Z 0000000180004640 f i LogicCallBackManager.obj
 0001:00003990       ??0exception@std@@QEAA@AEBV01@@Z 0000000180004990 f i RSACryptElectron:RSACrypt.obj
 0001:000039d0       ??1bad_exception@std@@UEAA@XZ 00000001800049d0 f i libvcruntime:frame.obj
 0001:000039d0       ??1bad_alloc@std@@UEAA@XZ  00000001800049d0 f i cryptlib64:misc.obj
 0001:000039d0       ??1_System_error@std@@UEAA@XZ 00000001800049d0 f i cryptlib64:integer.obj
 0001:000039d0       ??1bad_cast@std@@UEAA@XZ   00000001800049d0 f i cryptlib64:integer.obj
 0001:000039d0       ??1runtime_error@std@@UEAA@XZ 00000001800049d0 f i cryptlib64:integer.obj
 0001:000039d0       ??1exception@std@@UEAA@XZ  00000001800049d0 f i RSACryptElectron:RSACrypt.obj
 0001:000039d0       ??1length_error@std@@UEAA@XZ 00000001800049d0 f i libcpmt:xthrow.obj
 0001:000039d0       ??1__non_rtti_object@std@@UEAA@XZ 00000001800049d0 f i libvcruntime:rtti.obj
 0001:000039d0       ??1failure@ios_base@std@@UEAA@XZ 00000001800049d0 f i cryptlib64:integer.obj
 0001:000039d0       ??1bad_array_new_length@std@@UEAA@XZ 00000001800049d0 f i LIBCMT:throw_bad_alloc.obj
 0001:000039d0       ??1out_of_range@std@@UEAA@XZ 00000001800049d0 f i libcpmt:xthrow.obj
 0001:000039f0       ?what@exception@std@@UEBAPEBDXZ 00000001800049f0 f i RSACryptElectron:RSACrypt.obj
 0001:00003a10       ??_Gbad_alloc@std@@UEAAPEAXI@Z 0000000180004a10 f i cryptlib64:misc.obj
 0001:00003a10       ??_Gruntime_error@std@@UEAAPEAXI@Z 0000000180004a10 f i cryptlib64:integer.obj
 0001:00003a10       ??_Gbad_cast@std@@UEAAPEAXI@Z 0000000180004a10 f i cryptlib64:integer.obj
 0001:00003a10       ??_G__non_rtti_object@std@@UEAAPEAXI@Z 0000000180004a10 f i libvcruntime:rtti.obj
 0001:00003a10       ??_Ebad_typeid@std@@UEAAPEAXI@Z 0000000180004a10 f i libvcruntime:rtti.obj
 0001:00003a10       ??_Gbad_exception@std@@UEAAPEAXI@Z 0000000180004a10 f i libvcruntime:frame.obj
 0001:00003a10       ??_Gout_of_range@std@@UEAAPEAXI@Z 0000000180004a10 f i libcpmt:xthrow.obj
 0001:00003a10       ??_Ebad_array_new_length@std@@UEAAPEAXI@Z 0000000180004a10 f i LIBCMT:throw_bad_alloc.obj
 0001:00003a10       ??_Eruntime_error@std@@UEAAPEAXI@Z 0000000180004a10 f i * CIL library *:* CIL module *
 0001:00003a10       ??_Elength_error@std@@UEAAPEAXI@Z 0000000180004a10 f i libcpmt:xthrow.obj
 0001:00003a10       ??_Elogic_error@std@@UEAAPEAXI@Z 0000000180004a10 f i libcpmt:xthrow.obj
 0001:00003a10       ??_Eout_of_range@std@@UEAAPEAXI@Z 0000000180004a10 f i libcpmt:xthrow.obj
 0001:00003a10       ??_Gbad_typeid@std@@UEAAPEAXI@Z 0000000180004a10 f i libvcruntime:rtti.obj
 0001:00003a10       ??_E__non_rtti_object@std@@UEAAPEAXI@Z 0000000180004a10 f i libvcruntime:rtti.obj
 0001:00003a10       ??_Ebad_cast@std@@UEAAPEAXI@Z 0000000180004a10 f i * CIL library *:* CIL module *
 0001:00003a10       ??_Glength_error@std@@UEAAPEAXI@Z 0000000180004a10 f i libcpmt:xthrow.obj
 0001:00003a10       ??_Ebad_alloc@std@@UEAAPEAXI@Z 0000000180004a10 f i * CIL library *:* CIL module *
 0001:00003a10       ??_Glogic_error@std@@UEAAPEAXI@Z 0000000180004a10 f i libcpmt:xthrow.obj
 0001:00003a10       ??_Ebad_exception@std@@UEAAPEAXI@Z 0000000180004a10 f i libvcruntime:frame.obj
 0001:00003a10       ??_Eexception@std@@UEAAPEAXI@Z 0000000180004a10 f i * CIL library *:* CIL module *
 0001:00003a10       ??_Gexception@std@@UEAAPEAXI@Z 0000000180004a10 f i RSACryptElectron:RSACrypt.obj
 0001:00003a10       ??_Gbad_array_new_length@std@@UEAAPEAXI@Z 0000000180004a10 f i LIBCMT:throw_bad_alloc.obj
 0001:00003a60       ??0Exception@CryptoPP@@QEAA@W4ErrorType@01@AEBV?$basic_string@DU?$char_traits@D@std@@V?$allocator@D@2@@std@@@Z 0000000180004a60 f i RSACryptElectron:RSACrypt.obj
 0001:00003ae0       ??1ValueTypeMismatch@NameValuePairs@CryptoPP@@UEAA@XZ 0000000180004ae0 f i RSACryptElectron:RSACrypt.obj
 0001:00003ae0       ??1Err@FileSink@CryptoPP@@UEAA@XZ 0000000180004ae0 f i cryptlib64:files.obj
 0001:00003ae0       ??1DivideByZero@Integer@CryptoPP@@UEAA@XZ 0000000180004ae0 f i cryptlib64:integer.obj
 0001:00003ae0       ??1Err@FileStore@CryptoPP@@UEAA@XZ 0000000180004ae0 f i cryptlib64:files.obj
 0001:00003ae0       ??1InputRejected@?$InputRejecting@VBufferedTransformation@CryptoPP@@@CryptoPP@@UEAA@XZ 0000000180004ae0 f i RSACryptElectron:RSACrypt.obj
 0001:00003ae0       ??1NotImplemented@CryptoPP@@UEAA@XZ 0000000180004ae0 f i RSACryptElectron:RSACrypt.obj
 0001:00003ae0       ??1RandomNumberNotFound@Integer@CryptoPP@@UEAA@XZ 0000000180004ae0 f i cryptlib64:integer.obj
 0001:00003ae0       ??1ReadErr@FileStore@CryptoPP@@UEAA@XZ 0000000180004ae0 f i cryptlib64:files.obj
 0001:00003ae0       ??1InvalidArgument@CryptoPP@@UEAA@XZ 0000000180004ae0 f i RSACryptElectron:RSACrypt.obj
 0001:00003ae0       ??1InvalidKeyLength@CryptoPP@@UEAA@XZ 0000000180004ae0 f i cryptlib64:cryptlib.obj
 0001:00003ae0       ??1BERDecodeErr@CryptoPP@@UEAA@XZ 0000000180004ae0 f i cryptlib64:integer.obj
 0001:00003ae0       ??1CannotFlush@CryptoPP@@UEAA@XZ 0000000180004ae0 f i RSACryptElectron:RSACrypt.obj
 0001:00003ae0       ??1InputRejected@?$InputRejecting@VFilter@CryptoPP@@@CryptoPP@@UEAA@XZ 0000000180004ae0 f i RSACryptElectron:RSACrypt.obj
 0001:00003ae0       ??1InvalidDataFormat@CryptoPP@@UEAA@XZ 0000000180004ae0 f i RSACryptElectron:RSACrypt.obj
 0001:00003ae0       ??1ParameterNotUsed@AlgorithmParametersBase@CryptoPP@@UEAA@XZ 0000000180004ae0 f i RSACryptElectron:RSACrypt.obj
 0001:00003ae0       ??1InvalidMaterial@CryptoMaterial@CryptoPP@@UEAA@XZ 0000000180004ae0 f i RSACryptElectron:RSACrypt.obj
 0001:00003ae0       ??1OpenErr@FileSink@CryptoPP@@UEAA@XZ 0000000180004ae0 f i cryptlib64:files.obj
 0001:00003ae0       ??1HashInputTooLong@CryptoPP@@UEAA@XZ 0000000180004ae0 f i cryptlib64:dll.obj
 0001:00003ae0       ??1WriteErr@FileSink@CryptoPP@@UEAA@XZ 0000000180004ae0 f i cryptlib64:files.obj
 0001:00003ae0       ??1OpenErr@FileStore@CryptoPP@@UEAA@XZ 0000000180004ae0 f i cryptlib64:files.obj
 0001:00003ae0       ??1InvalidCiphertext@CryptoPP@@UEAA@XZ 0000000180004ae0 f i cryptlib64:cryptlib.obj
 0001:00003ae0       ??1BlockingInputOnly@BufferedTransformation@CryptoPP@@UEAA@XZ 0000000180004ae0 f i cryptlib64:filters.obj
 0001:00003ae0       ??1NoChannelSupport@BufferedTransformation@CryptoPP@@UEAA@XZ 0000000180004ae0 f i cryptlib64:cryptlib.obj
 0001:00003ae0       ??1Exception@CryptoPP@@UEAA@XZ 0000000180004ae0 f i RSACryptElectron:RSACrypt.obj
 0001:00003b20       ?what@Exception@CryptoPP@@UEBAPEBDXZ 0000000180004b20 f i RSACryptElectron:RSACrypt.obj
 0001:00003b30       ??_GInputRejected@?$InputRejecting@VFilter@CryptoPP@@@CryptoPP@@UEAAPEAXI@Z 0000000180004b30 f i RSACryptElectron:RSACrypt.obj
 0001:00003b30       ??_ENotImplemented@CryptoPP@@UEAAPEAXI@Z 0000000180004b30 f i * CIL library *:* CIL module *
 0001:00003b30       ??_GErr@FileSink@CryptoPP@@UEAAPEAXI@Z 0000000180004b30 f i cryptlib64:files.obj
 0001:00003b30       ??_GInvalidDataFormat@CryptoPP@@UEAAPEAXI@Z 0000000180004b30 f i RSACryptElectron:RSACrypt.obj
 0001:00003b30       ??_EInvalidKeyLength@CryptoPP@@UEAAPEAXI@Z 0000000180004b30 f i * CIL library *:* CIL module *
 0001:00003b30       ??_ENoChannelSupport@BufferedTransformation@CryptoPP@@UEAAPEAXI@Z 0000000180004b30 f i * CIL library *:* CIL module *
 0001:00003b30       ??_GDivideByZero@Integer@CryptoPP@@UEAAPEAXI@Z 0000000180004b30 f i cryptlib64:integer.obj
 0001:00003b30       ??_EBlockingInputOnly@BufferedTransformation@CryptoPP@@UEAAPEAXI@Z 0000000180004b30 f i * CIL library *:* CIL module *
 0001:00003b30       ??_EInvalidDataFormat@CryptoPP@@UEAAPEAXI@Z 0000000180004b30 f i * CIL library *:* CIL module *
 0001:00003b30       ??_EOpenErr@FileSink@CryptoPP@@UEAAPEAXI@Z 0000000180004b30 f i * CIL library *:* CIL module *
 0001:00003b30       ??_GBERDecodeErr@CryptoPP@@UEAAPEAXI@Z 0000000180004b30 f i cryptlib64:integer.obj
 0001:00003b30       ??_EInvalidArgument@CryptoPP@@UEAAPEAXI@Z 0000000180004b30 f i * CIL library *:* CIL module *
 0001:00003b30       ??_EWriteErr@FileSink@CryptoPP@@UEAAPEAXI@Z 0000000180004b30 f i * CIL library *:* CIL module *
 0001:00003b30       ??_EException@CryptoPP@@UEAAPEAXI@Z 0000000180004b30 f i * CIL library *:* CIL module *
 0001:00003b30       ??_GHashInputTooLong@CryptoPP@@UEAAPEAXI@Z 0000000180004b30 f i cryptlib64:dll.obj
 0001:00003b30       ??_GInvalidMaterial@CryptoMaterial@CryptoPP@@UEAAPEAXI@Z 0000000180004b30 f i RSACryptElectron:RSACrypt.obj
 0001:00003b30       ??_EInvalidMaterial@CryptoMaterial@CryptoPP@@UEAAPEAXI@Z 0000000180004b30 f i * CIL library *:* CIL module *
 0001:00003b30       ??_GNoChannelSupport@BufferedTransformation@CryptoPP@@UEAAPEAXI@Z 0000000180004b30 f i cryptlib64:cryptlib.obj
 0001:00003b30       ??_GBlockingInputOnly@BufferedTransformation@CryptoPP@@UEAAPEAXI@Z 0000000180004b30 f i cryptlib64:filters.obj
 0001:00003b30       ??_EDivideByZero@Integer@CryptoPP@@UEAAPEAXI@Z 0000000180004b30 f i * CIL library *:* CIL module *
 0001:00003b30       ??_GRandomNumberNotFound@Integer@CryptoPP@@UEAAPEAXI@Z 0000000180004b30 f i cryptlib64:integer.obj
 0001:00003b30       ??_ERandomNumberNotFound@Integer@CryptoPP@@UEAAPEAXI@Z 0000000180004b30 f i * CIL library *:* CIL module *
 0001:00003b30       ??_EParameterNotUsed@AlgorithmParametersBase@CryptoPP@@UEAAPEAXI@Z 0000000180004b30 f i * CIL library *:* CIL module *
 0001:00003b30       ??_GException@CryptoPP@@UEAAPEAXI@Z 0000000180004b30 f i RSACryptElectron:RSACrypt.obj
 0001:00003b30       ??_EOpenErr@FileStore@CryptoPP@@UEAAPEAXI@Z 0000000180004b30 f i * CIL library *:* CIL module *
 0001:00003b30       ??_GErr@FileStore@CryptoPP@@UEAAPEAXI@Z 0000000180004b30 f i cryptlib64:files.obj
 0001:00003b30       ??_ECannotFlush@CryptoPP@@UEAAPEAXI@Z 0000000180004b30 f i * CIL library *:* CIL module *
 0001:00003b30       ??_GOpenErr@FileSink@CryptoPP@@UEAAPEAXI@Z 0000000180004b30 f i cryptlib64:files.obj
 0001:00003b30       ??_EHashInputTooLong@CryptoPP@@UEAAPEAXI@Z 0000000180004b30 f i * CIL library *:* CIL module *
 0001:00003b30       ??_EErr@FileSink@CryptoPP@@UEAAPEAXI@Z 0000000180004b30 f i * CIL library *:* CIL module *
 0001:00003b30       ??_GInvalidCiphertext@CryptoPP@@UEAAPEAXI@Z 0000000180004b30 f i cryptlib64:cryptlib.obj
 0001:00003b30       ??_GReadErr@FileStore@CryptoPP@@UEAAPEAXI@Z 0000000180004b30 f i cryptlib64:files.obj
 0001:00003b30       ??_GWriteErr@FileSink@CryptoPP@@UEAAPEAXI@Z 0000000180004b30 f i cryptlib64:files.obj
 0001:00003b30       ??_EInputRejected@?$InputRejecting@VBufferedTransformation@CryptoPP@@@CryptoPP@@UEAAPEAXI@Z 0000000180004b30 f i * CIL library *:* CIL module *
 0001:00003b30       ??_GParameterNotUsed@AlgorithmParametersBase@CryptoPP@@UEAAPEAXI@Z 0000000180004b30 f i RSACryptElectron:RSACrypt.obj
 0001:00003b30       ??_GInputRejected@?$InputRejecting@VBufferedTransformation@CryptoPP@@@CryptoPP@@UEAAPEAXI@Z 0000000180004b30 f i RSACryptElectron:RSACrypt.obj
 0001:00003b30       ??_EErr@FileStore@CryptoPP@@UEAAPEAXI@Z 0000000180004b30 f i * CIL library *:* CIL module *
 0001:00003b30       ??_GCannotFlush@CryptoPP@@UEAAPEAXI@Z 0000000180004b30 f i RSACryptElectron:RSACrypt.obj
 0001:00003b30       ??_GNotImplemented@CryptoPP@@UEAAPEAXI@Z 0000000180004b30 f i RSACryptElectron:RSACrypt.obj
 0001:00003b30       ??_GInvalidKeyLength@CryptoPP@@UEAAPEAXI@Z 0000000180004b30 f i cryptlib64:cryptlib.obj
 0001:00003b30       ??_EReadErr@FileStore@CryptoPP@@UEAAPEAXI@Z 0000000180004b30 f i * CIL library *:* CIL module *
 0001:00003b30       ??_EBERDecodeErr@CryptoPP@@UEAAPEAXI@Z 0000000180004b30 f i * CIL library *:* CIL module *
 0001:00003b30       ??_GInvalidArgument@CryptoPP@@UEAAPEAXI@Z 0000000180004b30 f i RSACryptElectron:RSACrypt.obj
 0001:00003b30       ??_EInputRejected@?$InputRejecting@VFilter@CryptoPP@@@CryptoPP@@UEAAPEAXI@Z 0000000180004b30 f i * CIL library *:* CIL module *
 0001:00003b30       ??_GOpenErr@FileStore@CryptoPP@@UEAAPEAXI@Z 0000000180004b30 f i cryptlib64:files.obj
 0001:00003b30       ??_EInvalidCiphertext@CryptoPP@@UEAAPEAXI@Z 0000000180004b30 f i * CIL library *:* CIL module *
 0001:00003b90       ??0ValueTypeMismatch@NameValuePairs@CryptoPP@@QEAA@AEBV?$basic_string@DU?$char_traits@D@std@@V?$allocator@D@2@@std@@AEBVtype_info@@1@Z 0000000180004b90 f i RSACryptElectron:RSACrypt.obj
 0001:00003f60       ?ThrowIfTypeMismatch@NameValuePairs@CryptoPP@@SAXPEBDAEBVtype_info@@1@Z 0000000180004f60 f i RSACryptElectron:RSACrypt.obj
 0001:00004030       ??_EValueTypeMismatch@NameValuePairs@CryptoPP@@UEAAPEAXI@Z 0000000180005030 f i * CIL library *:* CIL module *
 0001:00004030       ??_GValueTypeMismatch@NameValuePairs@CryptoPP@@UEAAPEAXI@Z 0000000180005030 f i RSACryptElectron:RSACrypt.obj
 0001:00004090       ??0ValueTypeMismatch@NameValuePairs@CryptoPP@@QEAA@AEBV012@@Z 0000000180005090 f i RSACryptElectron:RSACrypt.obj
 0001:000040d0       ??0InvalidArgument@CryptoPP@@QEAA@AEBV01@@Z 00000001800050d0 f i RSACryptElectron:RSACrypt.obj
 0001:00004100       ??0Exception@CryptoPP@@QEAA@AEBV01@@Z 0000000180005100 f i RSACryptElectron:RSACrypt.obj
 0001:000041a0       ?InversionIsFast@?$AbstractGroup@VInteger@CryptoPP@@@CryptoPP@@UEBA_NXZ 00000001800051a0 f i cryptlib64:integer.obj
 0001:000041a0       ?IsolatedMessageSeriesEnd@BufferedTransformation@CryptoPP@@UEAA_N_N@Z 00000001800051a0 f i RSACryptElectron:RSACrypt.obj
 0001:000041a0       ?IsolatedFlush@?$Bufferless@VSink@CryptoPP@@@CryptoPP@@UEAA_N_N0@Z 00000001800051a0 f i RSACryptElectron:RSACrypt.obj
 0001:000041a0       ?IsolatedFlush@?$Bufferless@VFilter@CryptoPP@@@CryptoPP@@UEAA_N_N0@Z 00000001800051a0 f i RSACryptElectron:RSACrypt.obj
 0001:000041a0       ?GetNextMessageSeries@BufferedTransformation@CryptoPP@@UEAA_NXZ 00000001800051a0 f i RSACryptElectron:RSACrypt.obj
 0001:000041a0       ?IsRandomized@TrapdoorFunction@CryptoPP@@UEBA_NXZ 00000001800051a0 f i RSACryptElectron:RSACrypt.obj
 0001:000041a0       ?IsolatedFlush@?$Unflushable@VFilter@CryptoPP@@@CryptoPP@@UEAA_N_N0@Z 00000001800051a0 f i RSACryptElectron:RSACrypt.obj
 0001:000041a0       ?IsolatedFlush@?$InputRejecting@VFilter@CryptoPP@@@CryptoPP@@UEAA_N_N0@Z 00000001800051a0 f i RSACryptElectron:RSACrypt.obj
 0001:000041a0       ?InputBufferIsEmpty@?$Unflushable@VFilter@CryptoPP@@@CryptoPP@@MEBA_NXZ 00000001800051a0 f i RSACryptElectron:RSACrypt.obj
 0001:000041a0       ?IsolatedFlush@MessageQueue@CryptoPP@@UEAA_N_N0@Z 00000001800051a0 f i cryptlib64:mqueue.obj
 0001:000041a0       ?CanModifyInput@BufferedTransformation@CryptoPP@@UEBA_NXZ 00000001800051a0 f i RSACryptElectron:RSACrypt.obj
 0001:000041a0       ?Attachable@BufferedTransformation@CryptoPP@@UEAA_NXZ 00000001800051a0 f i RSACryptElectron:RSACrypt.obj
 0001:000041a0       ?SupportsPrecomputation@CryptoMaterial@CryptoPP@@UEBA_NXZ 00000001800051a0 f i RSACryptElectron:RSACrypt.obj
 0001:000041a0       ?IsRandomized@TrapdoorFunctionInverse@CryptoPP@@UEBA_NXZ 00000001800051a0 f i RSACryptElectron:RSACrypt.obj
 0001:000041a0       ?IsolatedFlush@?$InputRejecting@VBufferedTransformation@CryptoPP@@@CryptoPP@@UEAA_N_N0@Z 00000001800051a0 f i RSACryptElectron:RSACrypt.obj
 0001:000041a0       ?IsMontgomeryRepresentation@ModularArithmetic@CryptoPP@@UEBA_NXZ 00000001800051a0 f i cryptlib64:integer.obj
 0001:000041a0       ?IsolatedFlush@?$CustomFlushPropagation@VSink@CryptoPP@@@CryptoPP@@EEAA_N_N0@Z 00000001800051a0 f i cryptlib64:filters.obj
 0001:000041a0       ?CanIncorporateEntropy@RandomNumberGenerator@CryptoPP@@UEBA_NXZ 00000001800051a0 f i cryptlib64:cryptlib.obj
 0001:000041a0       ?IsolatedFlush@?$Bufferless@VBufferedTransformation@CryptoPP@@@CryptoPP@@UEAA_N_N0@Z 00000001800051a0 f i cryptlib64:queue.obj
 0001:000041a0       ?GetVoidValue@NullNameValuePairs@CryptoPP@@UEBA_NPEBDAEBVtype_info@@PEAX@Z 00000001800051a0 f i RSACryptElectron:RSACrypt.obj
 0001:000041b0       ?Clone@Clonable@CryptoPP@@UEBAPEAV12@XZ 00000001800051b0 f i RSACryptElectron:RSACrypt.obj
 0001:00004290       ??0NotImplemented@CryptoPP@@QEAA@AEBV01@@Z 0000000180005290 f i RSACryptElectron:RSACrypt.obj
 0001:000042c0       ?AlgorithmName@Algorithm@CryptoPP@@UEBA?AV?$basic_string@DU?$char_traits@D@std@@V?$allocator@D@2@@std@@XZ 00000001800052c0 f i RSACryptElectron:RSACrypt.obj
 0001:00004330       ?Final@HashTransformation@CryptoPP@@UEAAXPEAE@Z 0000000180005330 f i RSACryptElectron:RSACrypt.obj
 0001:00004370       ?CalculateDigest@HashTransformation@CryptoPP@@UEAAXPEAEPEBE_K@Z 0000000180005370 f i RSACryptElectron:RSACrypt.obj
 0001:000043b0       ?Verify@HashTransformation@CryptoPP@@UEAA_NPEBE@Z 00000001800053b0 f i RSACryptElectron:RSACrypt.obj
 0001:000043f0       ?VerifyDigest@HashTransformation@CryptoPP@@UEAA_NPEBE0_K@Z 00000001800053f0 f i RSACryptElectron:RSACrypt.obj
 0001:00004430       ?CalculateTruncatedDigest@HashTransformation@CryptoPP@@UEAAXPEAE_KPEBE1@Z 0000000180005430 f i RSACryptElectron:RSACrypt.obj
 0001:00004480       ?VerifyTruncatedDigest@HashTransformation@CryptoPP@@UEAA_NPEBE_K01@Z 0000000180005480 f i RSACryptElectron:RSACrypt.obj
 0001:000044d0       ?CreatePutSpace@BufferedTransformation@CryptoPP@@UEAAPEAEAEA_K@Z 00000001800054d0 f i RSACryptElectron:RSACrypt.obj
 0001:000044d0       ?CreatePutSpace@ArrayXorSink@CryptoPP@@UEAAPEAEAEA_K@Z 00000001800054d0 f i cryptlib64:pubkey.obj
 0001:000044e0       ?PutModifiable2@BufferedTransformation@CryptoPP@@UEAA_KPEAE_KH_N@Z 00000001800054e0 f i RSACryptElectron:RSACrypt.obj
 0001:000044f0       ?NumberOfMessagesInThisSeries@BufferedTransformation@CryptoPP@@UEBAIXZ 00000001800054f0 f i RSACryptElectron:RSACrypt.obj
 0001:00004500       ?AttachedTransformation@BufferedTransformation@CryptoPP@@UEBAPEBV12@XZ 0000000180005500 f i RSACryptElectron:RSACrypt.obj
 0001:00004510       ?Detach@BufferedTransformation@CryptoPP@@UEAAXPEAV12@@Z 0000000180005510 f i RSACryptElectron:RSACrypt.obj
 0001:000045f0       ?ThrowIfInvalid@CryptoMaterial@CryptoPP@@UEBAXAEAVRandomNumberGenerator@2@I@Z 00000001800055f0 f i RSACryptElectron:RSACrypt.obj
 0001:000046f0       ?Precompute@CryptoMaterial@CryptoPP@@UEAAXI@Z 00000001800056f0 f i RSACryptElectron:RSACrypt.obj
 0001:000046f0       ?SavePrecomputation@CryptoMaterial@CryptoPP@@UEBAXAEAVBufferedTransformation@2@@Z 00000001800056f0 f i RSACryptElectron:RSACrypt.obj
 0001:000046f0       ?LoadPrecomputation@CryptoMaterial@CryptoPP@@UEAAXAEAVBufferedTransformation@2@@Z 00000001800056f0 f i RSACryptElectron:RSACrypt.obj
 0001:000047d0       ??0InvalidMaterial@CryptoMaterial@CryptoPP@@QEAA@AEBV012@@Z 00000001800057d0 f i RSACryptElectron:RSACrypt.obj
 0001:00004800       ??0InvalidDataFormat@CryptoPP@@QEAA@AEBV01@@Z 0000000180005800 f i RSACryptElectron:RSACrypt.obj
 0001:00004830       ?GenerateRandom@GeneratableCryptoMaterial@CryptoPP@@UEAAXAEAVRandomNumberGenerator@2@AEBVNameValuePairs@2@@Z 0000000180005830 f i RSACryptElectron:RSACrypt.obj
 0001:00004910       ?AccessMaterial@PublicKeyAlgorithm@CryptoPP@@UEAAAEAVCryptoMaterial@2@XZ 0000000180005910 f i RSACryptElectron:RSACrypt.obj
 0001:00004940       ?GetMaterial@PublicKeyAlgorithm@CryptoPP@@UEBAAEBVCryptoMaterial@2@XZ 0000000180005940 f i RSACryptElectron:RSACrypt.obj
 0001:00004970       ?AccessMaterial@PrivateKeyAlgorithm@CryptoPP@@UEAAAEAVCryptoMaterial@2@XZ 0000000180005970 f i RSACryptElectron:RSACrypt.obj
 0001:000049a0       ?GetMaterial@PrivateKeyAlgorithm@CryptoPP@@UEBAAEBVCryptoMaterial@2@XZ 00000001800059a0 f i RSACryptElectron:RSACrypt.obj
 0001:000049d0       ?BEREncode@ASN1Object@CryptoPP@@UEBAXAEAVBufferedTransformation@2@@Z 00000001800059d0 f i RSACryptElectron:RSACrypt.obj
 0001:000049e0       ?IsolatedInitialize@Store@CryptoPP@@UEAAXAEBVNameValuePairs@2@@Z 00000001800059e0 f i RSACryptElectron:RSACrypt.obj
 0001:000049f0       ?NumberOfMessages@Store@CryptoPP@@UEBAIXZ 00000001800059f0 f i RSACryptElectron:RSACrypt.obj
 0001:00004a00       ?TransferTo2@Sink@CryptoPP@@UEAA_KAEAVBufferedTransformation@2@AEA_KAEBV?$basic_string@DU?$char_traits@D@std@@V?$allocator@D@2@@std@@_N@Z 0000000180005a00 f i RSACryptElectron:RSACrypt.obj
 0001:00004a10       ??0ParameterNotUsed@AlgorithmParametersBase@CryptoPP@@QEAA@PEBD@Z 0000000180005a10 f i RSACryptElectron:RSACrypt.obj
 0001:00004c40       ??1AlgorithmParametersBase@CryptoPP@@UEAA@XZ 0000000180005c40 f i RSACryptElectron:RSACrypt.obj
 0001:00004ca0       ??_GAlgorithmParametersBase@CryptoPP@@UEAAPEAXI@Z 0000000180005ca0 f i RSACryptElectron:RSACrypt.obj
 0001:00004ca0       ??_EAlgorithmParametersBase@CryptoPP@@UEAAPEAXI@Z 0000000180005ca0 f i * CIL library *:* CIL module *
 0001:00004d20       ??0ParameterNotUsed@AlgorithmParametersBase@CryptoPP@@QEAA@AEBV012@@Z 0000000180005d20 f i RSACryptElectron:RSACrypt.obj
 0001:00004d50       ?Attachable@Filter@CryptoPP@@UEAA_NXZ 0000000180005d50 f i RSACryptElectron:RSACrypt.obj
 0001:00004d50       ?do_always_noconv@?$codecvt@DDU_Mbstatet@@@std@@MEBA_NXZ 0000000180005d50 f i cryptlib64:files.obj
 0001:00004d50       ?IsForwardTransformation@?$BlockCipherFinal@$0A@VEnc@Rijndael@CryptoPP@@@CryptoPP@@UEBA_NXZ 0000000180005d50 f i cryptlib64:randpool.obj
 0001:00004d50       __acrt_uninitialize_command_line 0000000180005d50 f i libucrt:argv_data.obj
 0001:00004d50       ?IsPermutation@BlockTransformation@CryptoPP@@UEBA_NXZ 0000000180005d50 f i cryptlib64:randpool.obj
 0001:00004d50       ?CanIncorporateEntropy@RandomPool@CryptoPP@@UEBA_NXZ 0000000180005d50 f i cryptlib64:randpool.obj
 0001:00004d50       ?ShouldPropagateMessageSeriesEnd@Filter@CryptoPP@@MEBA_NXZ 0000000180005d50 f i RSACryptElectron:RSACrypt.obj
 0001:00004d50       ?ShouldPropagateMessageEnd@Filter@CryptoPP@@MEBA_NXZ 0000000180005d50 f i RSACryptElectron:RSACrypt.obj
 0001:00004d50       ?IsMontgomeryRepresentation@MontgomeryRepresentation@CryptoPP@@UEBA_NXZ 0000000180005d50 f i cryptlib64:integer.obj
 0001:00004d60       ??1?$Bufferless@VFilter@CryptoPP@@@CryptoPP@@UEAA@XZ 0000000180005d60 f i RSACryptElectron:RSACrypt.obj
 0001:00004d60       ??1Source@CryptoPP@@UEAA@XZ 0000000180005d60 f i RSACryptElectron:RSACrypt.obj
 0001:00004d60       ??1?$SourceTemplate@VStringStore@CryptoPP@@@CryptoPP@@UEAA@XZ 0000000180005d60 f i RSACryptElectron:RSACrypt.obj
 0001:00004d60       ??1Filter@CryptoPP@@UEAA@XZ 0000000180005d60 f i RSACryptElectron:RSACrypt.obj
 0001:00004d60       ??1?$Unflushable@VFilter@CryptoPP@@@CryptoPP@@UEAA@XZ 0000000180005d60 f i RSACryptElectron:RSACrypt.obj
 0001:00004d60       ??1?$InputRejecting@VFilter@CryptoPP@@@CryptoPP@@UEAA@XZ 0000000180005d60 f i RSACryptElectron:RSACrypt.obj
 0001:00004d90       ?Put2@FilterWithBufferedInput@CryptoPP@@UEAA_KPEBE_KH_N@Z 0000000180005d90 f i RSACryptElectron:RSACrypt.obj
 0001:00004db0       ?PutModifiable2@FilterWithBufferedInput@CryptoPP@@UEAA_KPEAE_KH_N@Z 0000000180005db0 f i RSACryptElectron:RSACrypt.obj
 0001:00004dd0       ?InitializeDerivedAndReturnNewSizes@FilterWithBufferedInput@CryptoPP@@MEAAXAEBVNameValuePairs@2@AEA_K11@Z 0000000180005dd0 f i RSACryptElectron:RSACrypt.obj
 0001:00004de0       ??0HashFilter@CryptoPP@@QEAA@AEAVHashTransformation@1@PEAVBufferedTransformation@1@_NH@Z 0000000180005de0 f i RSACryptElectron:RSACrypt.obj
 0001:00004e70       ?AlgorithmName@HashFilter@CryptoPP@@UEBA?AV?$basic_string@DU?$char_traits@D@std@@V?$allocator@D@2@@std@@XZ 0000000180005e70 f i RSACryptElectron:RSACrypt.obj
 0001:00004ea0       ?CreatePutSpace@HashFilter@CryptoPP@@UEAAPEAEAEA_K@Z 0000000180005ea0 f i RSACryptElectron:RSACrypt.obj
 0001:00004eb0       ??_EHashFilter@CryptoPP@@UEAAPEAXI@Z 0000000180005eb0 f i * CIL library *:* CIL module *
 0001:00004eb0       ??_GHashFilter@CryptoPP@@UEAAPEAXI@Z 0000000180005eb0 f i RSACryptElectron:RSACrypt.obj
 0001:00004f30       ??1HashFilter@CryptoPP@@UEAA@XZ 0000000180005f30 f i RSACryptElectron:RSACrypt.obj
 0001:00004f90       ??1BlockQueue@FilterWithBufferedInput@CryptoPP@@QEAA@XZ 0000000180005f90 f i RSACryptElectron:RSACrypt.obj
 0001:00004f90       ??1?$SecBlock@EV?$AllocatorWithCleanup@E$0A@@CryptoPP@@@CryptoPP@@QEAA@XZ 0000000180005f90 f i RSACryptElectron:RSACrypt.obj
 0001:00004f90       ??1FilterPutSpaceHelper@CryptoPP@@QEAA@XZ 0000000180005f90 f i RSACryptElectron:RSACrypt.obj
 0001:00004fc0       ?LastPut@SimpleProxyFilter@CryptoPP@@UEAAXPEBE_K@Z 0000000180005fc0 f i RSACryptElectron:RSACrypt.obj
 0001:00004ff0       ??_EBase64Encoder@CryptoPP@@UEAAPEAXI@Z 0000000180005ff0 f i * CIL library *:* CIL module *
 0001:00004ff0       ??_GBase64Encoder@CryptoPP@@UEAAPEAXI@Z 0000000180005ff0 f i RSACryptElectron:RSACrypt.obj
 0001:00004ff0       ??_GSimpleProxyFilter@CryptoPP@@UEAAPEAXI@Z 0000000180005ff0 f i RSACryptElectron:RSACrypt.obj
 0001:00004ff0       ??_GPK_EncryptorFilter@CryptoPP@@UEAAPEAXI@Z 0000000180005ff0 f i RSACryptElectron:RSACrypt.obj
 0001:00004ff0       ??_EPK_DecryptorFilter@CryptoPP@@UEAAPEAXI@Z 0000000180005ff0 f i * CIL library *:* CIL module *
 0001:00004ff0       ??_ESimpleProxyFilter@CryptoPP@@UEAAPEAXI@Z 0000000180005ff0 f i * CIL library *:* CIL module *
 0001:00004ff0       ??_GProxyFilter@CryptoPP@@UEAAPEAXI@Z 0000000180005ff0 f i cryptlib64:filters.obj
 0001:00004ff0       ??_GPK_DecryptorFilter@CryptoPP@@UEAAPEAXI@Z 0000000180005ff0 f i RSACryptElectron:RSACrypt.obj
 0001:00004ff0       ??_GHexEncoder@CryptoPP@@UEAAPEAXI@Z 0000000180005ff0 f i RSACryptElectron:RSACrypt.obj
 0001:00004ff0       ??_EProxyFilter@CryptoPP@@UEAAPEAXI@Z 0000000180005ff0 f i * CIL library *:* CIL module *
 0001:00004ff0       ??_EHexEncoder@CryptoPP@@UEAAPEAXI@Z 0000000180005ff0 f i * CIL library *:* CIL module *
 0001:00004ff0       ??_EPK_EncryptorFilter@CryptoPP@@UEAAPEAXI@Z 0000000180005ff0 f i * CIL library *:* CIL module *
 0001:00005080       ??1SimpleProxyFilter@CryptoPP@@UEAA@XZ 0000000180006080 f i RSACryptElectron:RSACrypt.obj
 0001:00005080       ??1ProxyFilter@CryptoPP@@UEAA@XZ 0000000180006080 f i RSACryptElectron:RSACrypt.obj
 0001:00005080       ??1HexEncoder@CryptoPP@@UEAA@XZ 0000000180006080 f i RSACryptElectron:RSACrypt.obj
 0001:000050f0       ??1BaseN_Decoder@CryptoPP@@UEAA@XZ 00000001800060f0 f i RSACryptElectron:RSACrypt.obj
 0001:000050f0       ??1FilterWithBufferedInput@CryptoPP@@UEAA@XZ 00000001800060f0 f i RSACryptElectron:RSACrypt.obj
 0001:00005150       ??0StringStore@CryptoPP@@QEAA@PEBD@Z 0000000180006150 f i RSACryptElectron:RSACrypt.obj
 0001:000051f0       ??_GStringStore@CryptoPP@@UEAAPEAXI@Z 00000001800061f0 f i RSACryptElectron:RSACrypt.obj
 0001:000051f0       ??_EStringStore@CryptoPP@@UEAAPEAXI@Z 00000001800061f0 f i * CIL library *:* CIL module *
 0001:00005220       ??1ConstByteArrayParameter@CryptoPP@@QEAA@XZ 0000000180006220 f i RSACryptElectron:RSACrypt.obj
 0001:00005250       ??1?$AlgorithmParameters@VNullNameValuePairs@CryptoPP@@VConstByteArrayParameter@2@@CryptoPP@@UEAA@XZ 0000000180006250 f i RSACryptElectron:RSACrypt.obj
 0001:00005260       ??1?$AlgorithmParametersBase2@VConstByteArrayParameter@CryptoPP@@@CryptoPP@@UEAA@XZ 0000000180006260 f i RSACryptElectron:RSACrypt.obj
 0001:000052f0       ??0StringSource@CryptoPP@@QEAA@PEBD_NPEAVBufferedTransformation@1@@Z 00000001800062f0 f i RSACryptElectron:RSACrypt.obj
 0001:00005400       ??0StringSource@CryptoPP@@QEAA@AEBV?$basic_string@DU?$char_traits@D@std@@V?$allocator@D@2@@std@@_NPEAVBufferedTransformation@1@@Z 0000000180006400 f i RSACryptElectron:RSACrypt.obj
 0001:00005510       ??_GStringSource@CryptoPP@@UEAAPEAXI@Z 0000000180006510 f i RSACryptElectron:RSACrypt.obj
 0001:00005510       ??_E?$SourceTemplate@VStringStore@CryptoPP@@@CryptoPP@@UEAAPEAXI@Z 0000000180006510 f i * CIL library *:* CIL module *
 0001:00005510       ??_EStringSource@CryptoPP@@UEAAPEAXI@Z 0000000180006510 f i * CIL library *:* CIL module *
 0001:00005510       ??_G?$SourceTemplate@VStringStore@CryptoPP@@@CryptoPP@@UEAAPEAXI@Z 0000000180006510 f i RSACryptElectron:RSACrypt.obj
 0001:00005560       ??1?$AlgorithmParameters@VNullNameValuePairs@CryptoPP@@PEBE@CryptoPP@@UEAA@XZ 0000000180006560 f i cryptlib64:cryptlib.obj
 0001:00005560       ??1?$AlgorithmParametersBase2@H@CryptoPP@@UEAA@XZ 0000000180006560 f i RSACryptElectron:RSACrypt.obj
 0001:00005560       ??1?$AlgorithmParameters@VNullNameValuePairs@CryptoPP@@_N@CryptoPP@@UEAA@XZ 0000000180006560 f i RSACryptElectron:RSACrypt.obj
 0001:00005560       ??1?$AlgorithmParameters@VNullNameValuePairs@CryptoPP@@W4RandomNumberType@Integer@2@@CryptoPP@@UEAA@XZ 0000000180006560 f i cryptlib64:rsa.obj
 0001:00005560       ??1?$AlgorithmParameters@VNullNameValuePairs@CryptoPP@@H@CryptoPP@@UEAA@XZ 0000000180006560 f i cryptlib64:cryptlib.obj
 0001:00005560       ??1?$AlgorithmParametersBase2@PEBVPrimeSelector@CryptoPP@@@CryptoPP@@UEAA@XZ 0000000180006560 f i cryptlib64:rsa.obj
 0001:00005560       ??1?$AlgorithmParameters@VNullNameValuePairs@CryptoPP@@PEBH@CryptoPP@@UEAA@XZ 0000000180006560 f i RSACryptElectron:RSACrypt.obj
 0001:00005560       ??1?$AlgorithmParameters@VNullNameValuePairs@CryptoPP@@PEBD@CryptoPP@@UEAA@XZ 0000000180006560 f i RSACryptElectron:RSACrypt.obj
 0001:000055c0       ??1Integer@CryptoPP@@UEAA@XZ 00000001800065c0 f i RSACryptElectron:RSACrypt.obj
 0001:000055f0       ?MaxPreimage@TrapdoorFunctionBounds@CryptoPP@@UEBA?AVInteger@2@XZ 00000001800065f0 f i RSACryptElectron:RSACrypt.obj
 0001:00005670       ?MaxImage@TrapdoorFunctionBounds@CryptoPP@@UEBA?AVInteger@2@XZ 0000000180006670 f i RSACryptElectron:RSACrypt.obj
 0001:000056f0       ?ApplyRandomizedFunction@TrapdoorFunction@CryptoPP@@UEBA?AVInteger@2@AEAVRandomNumberGenerator@2@AEBV32@@Z 00000001800066f0 f i RSACryptElectron:RSACrypt.obj
 0001:00005720       ?CalculateRandomizedInverse@TrapdoorFunctionInverse@CryptoPP@@UEBA?AVInteger@2@AEAVRandomNumberGenerator@2@AEBV32@@Z 0000000180006720 f i RSACryptElectron:RSACrypt.obj
 0001:00005740       ?GenerateAndMask@P1363_MGF1@CryptoPP@@UEBAXAEAVHashTransformation@2@PEAE_KPEBE2_N@Z 0000000180006740 f i RSACryptElectron:RSACrypt.obj
 0001:00005790       ?BERDecodeAlgorithmParameters@PKCS8PrivateKey@CryptoPP@@UEAA_NAEAVBufferedTransformation@2@@Z 0000000180006790 f i RSACryptElectron:RSACrypt.obj
 0001:00005790       ?BERDecodeAlgorithmParameters@X509PublicKey@CryptoPP@@UEAA_NAEAVBufferedTransformation@2@@Z 0000000180006790 f i RSACryptElectron:RSACrypt.obj
 0001:000057f0       ?DEREncodeAlgorithmParameters@PKCS8PrivateKey@CryptoPP@@UEBA_NAEAVBufferedTransformation@2@@Z 00000001800067f0 f i RSACryptElectron:RSACrypt.obj
 0001:000057f0       ?DEREncodeAlgorithmParameters@X509PublicKey@CryptoPP@@UEBA_NAEAVBufferedTransformation@2@@Z 00000001800067f0 f i RSACryptElectron:RSACrypt.obj
 0001:00005840       ??1OID@CryptoPP@@QEAA@XZ   0000000180006840 f i RSACryptElectron:RSACrypt.obj
 0001:00005840       ??1?$vector@_NV?$allocator@_N@std@@@std@@QEAA@XZ 0000000180006840 f i cryptlib64:nbtheory.obj
 0001:00005880       ?ParameterSupported@OAEP_Base@CryptoPP@@UEBA_NPEBD@Z 0000000180006880 f i RSACryptElectron:RSACrypt.obj
 0001:000058a0       ?PreimageBound@RSAFunction@CryptoPP@@UEBA?AVInteger@2@XZ 00000001800068a0 f i RSACryptElectron:RSACrypt.obj
 0001:000058a0       ?ImageBound@RSAFunction@CryptoPP@@UEBA?AVInteger@2@XZ 00000001800068a0 f i RSACryptElectron:RSACrypt.obj
 0001:000058d0       ?BERDecode@InvertibleRSAFunction@CryptoPP@@UEAAXAEAVBufferedTransformation@2@@Z 00000001800068d0 f i RSACryptElectron:RSACrypt.obj
 0001:000058e0       ?DEREncode@InvertibleRSAFunction@CryptoPP@@UEBAXAEAVBufferedTransformation@2@@Z 00000001800068e0 f i RSACryptElectron:RSACrypt.obj
 0001:000058f0       ?Load@InvertibleRSAFunction@CryptoPP@@UEAAXAEAVBufferedTransformation@2@@Z 00000001800068f0 f i RSACryptElectron:RSACrypt.obj
 0001:00005900       ?Save@InvertibleRSAFunction@CryptoPP@@UEBAXAEAVBufferedTransformation@2@@Z 0000000180006900 f i RSACryptElectron:RSACrypt.obj
 0001:00005910       ?GetAlgorithmID@InvertibleRSAFunction@CryptoPP@@UEBA?AVOID@2@XZ 0000000180006910 f i RSACryptElectron:RSACrypt.obj
 0001:00005930       ??_EHexDecoder@CryptoPP@@UEAAPEAXI@Z 0000000180006930 f i * CIL library *:* CIL module *
 0001:00005930       ??_EBaseN_Decoder@CryptoPP@@UEAAPEAXI@Z 0000000180006930 f i * CIL library *:* CIL module *
 0001:00005930       ??_EBaseN_Encoder@CryptoPP@@UEAAPEAXI@Z 0000000180006930 f i * CIL library *:* CIL module *
 0001:00005930       ??_GBaseN_Encoder@CryptoPP@@UEAAPEAXI@Z 0000000180006930 f i RSACryptElectron:RSACrypt.obj
 0001:00005930       ??_GBaseN_Decoder@CryptoPP@@UEAAPEAXI@Z 0000000180006930 f i RSACryptElectron:RSACrypt.obj
 0001:00005930       ??_GHexDecoder@CryptoPP@@UEAAPEAXI@Z 0000000180006930 f i RSACryptElectron:RSACrypt.obj
 0001:000059b0       ??0BaseN_Decoder@CryptoPP@@QEAA@PEBHHPEAVBufferedTransformation@1@@Z 00000001800069b0 f i RSACryptElectron:RSACrypt.obj
 0001:00005af0       ??1?$AlgorithmParameters@V?$AlgorithmParameters@VNullNameValuePairs@CryptoPP@@PEBE@CryptoPP@@H@CryptoPP@@UEAA@XZ 0000000180006af0 f i cryptlib64:hex.obj
 0001:00005af0       ??1?$AlgorithmParameters@V?$AlgorithmParameters@VNullNameValuePairs@CryptoPP@@_N@CryptoPP@@H@CryptoPP@@UEAA@XZ 0000000180006af0 f i RSACryptElectron:RSACrypt.obj
 0001:00005af0       ??1?$AlgorithmParameters@V?$AlgorithmParameters@VNullNameValuePairs@CryptoPP@@PEBE@CryptoPP@@E@CryptoPP@@UEAA@XZ 0000000180006af0 f i cryptlib64:base64.obj
 0001:00005af0       ??1?$AlgorithmParameters@V?$AlgorithmParameters@VNullNameValuePairs@CryptoPP@@PEBD@CryptoPP@@_N@CryptoPP@@UEAA@XZ 0000000180006af0 f i RSACryptElectron:RSACrypt.obj
 0001:00005af0       ??1?$AlgorithmParameters@V?$AlgorithmParameters@VNullNameValuePairs@CryptoPP@@PEBH@CryptoPP@@H@CryptoPP@@UEAA@XZ 0000000180006af0 f i RSACryptElectron:RSACrypt.obj
 0001:00005b90       ??0Grouper@CryptoPP@@QEAA@PEAVBufferedTransformation@1@@Z 0000000180006b90 f i RSACryptElectron:RSACrypt.obj
 0001:00005c00       ??_EGrouper@CryptoPP@@UEAAPEAXI@Z 0000000180006c00 f i * CIL library *:* CIL module *
 0001:00005c00       ??_GGrouper@CryptoPP@@UEAAPEAXI@Z 0000000180006c00 f i RSACryptElectron:RSACrypt.obj
 0001:00005ca0       ??0HexEncoder@CryptoPP@@QEAA@PEAVBufferedTransformation@1@_NHAEBV?$basic_string@DU?$char_traits@D@std@@V?$allocator@D@2@@std@@2@Z 0000000180006ca0 f i RSACryptElectron:RSACrypt.obj
 0001:00005f40       ??1?$AlgorithmParameters@V?$AlgorithmParameters@V?$AlgorithmParameters@VNullNameValuePairs@CryptoPP@@_N@CryptoPP@@H@CryptoPP@@VConstByteArrayParameter@2@@CryptoPP@@UEAA@XZ 0000000180006f40 f i RSACryptElectron:RSACrypt.obj
 0001:00005f60       ??1?$AlgorithmParameters@V?$AlgorithmParameters@V?$AlgorithmParameters@V?$AlgorithmParameters@VNullNameValuePairs@CryptoPP@@_N@CryptoPP@@H@CryptoPP@@VConstByteArrayParameter@2@@CryptoPP@@VConstByteArrayParameter@2@@CryptoPP@@UEAA@XZ 0000000180006f60 f i RSACryptElectron:RSACrypt.obj
 0001:00005fa0       ??0HexDecoder@CryptoPP@@QEAA@PEAVBufferedTransformation@1@@Z 0000000180006fa0 f i RSACryptElectron:RSACrypt.obj
 0001:00006000       ??_GFileStore@CryptoPP@@UEAAPEAXI@Z 0000000180007000 f i RSACryptElectron:RSACrypt.obj
 0001:00006000       ??_EFileStore@CryptoPP@@UEAAPEAXI@Z 0000000180007000 f i * CIL library *:* CIL module *
 0001:00006080       ??1FileStore@CryptoPP@@UEAA@XZ 0000000180007080 f i RSACryptElectron:RSACrypt.obj
 0001:000060e0       ??0FileSource@CryptoPP@@QEAA@PEBD_NPEAVBufferedTransformation@1@1@Z 00000001800070e0 f i RSACryptElectron:RSACrypt.obj
 0001:00006260       ??_G?$SourceTemplate@VFileStore@CryptoPP@@@CryptoPP@@UEAAPEAXI@Z 0000000180007260 f i RSACryptElectron:RSACrypt.obj
 0001:00006260       ??_GFileSource@CryptoPP@@UEAAPEAXI@Z 0000000180007260 f i RSACryptElectron:RSACrypt.obj
 0001:00006260       ??_EFileSource@CryptoPP@@UEAAPEAXI@Z 0000000180007260 f i * CIL library *:* CIL module *
 0001:00006260       ??_E?$SourceTemplate@VFileStore@CryptoPP@@@CryptoPP@@UEAAPEAXI@Z 0000000180007260 f i * CIL library *:* CIL module *
 0001:000062a0       ??1FileSource@CryptoPP@@UEAA@XZ 00000001800072a0 f i RSACryptElectron:RSACrypt.obj
 0001:000062b0       ??1?$SourceTemplate@VFileStore@CryptoPP@@@CryptoPP@@UEAA@XZ 00000001800072b0 f i RSACryptElectron:RSACrypt.obj
 0001:00006320       ??0FileSink@CryptoPP@@QEAA@PEBD_N@Z 0000000180007320 f i RSACryptElectron:RSACrypt.obj
 0001:00006480       ??_GFileSink@CryptoPP@@UEAAPEAXI@Z 0000000180007480 f i RSACryptElectron:RSACrypt.obj
 0001:00006480       ??_EFileSink@CryptoPP@@UEAAPEAXI@Z 0000000180007480 f i * CIL library *:* CIL module *
 0001:000064e0       ??0Base64Encoder@CryptoPP@@QEAA@PEAVBufferedTransformation@1@_NH@Z 00000001800074e0 f i RSACryptElectron:RSACrypt.obj
 0001:000066c0       ?GenerateRSAKey@@YAXIPEBD00@Z 00000001800076c0 f   RSACryptElectron:RSACrypt.obj
 0001:00006ad0       ??1RandomPool@CryptoPP@@UEAA@XZ 0000000180007ad0 f i RSACryptElectron:RSACrypt.obj
 0001:00006b40       ??1?$TF_DecryptorImpl@U?$TF_CryptoSchemeOptions@V?$TF_ES@V?$OAEP@VSHA1@CryptoPP@@VP1363_MGF1@2@@CryptoPP@@URSA@2@H@CryptoPP@@URSA@2@V?$OAEP@VSHA1@CryptoPP@@VP1363_MGF1@2@@2@@CryptoPP@@@CryptoPP@@UEAA@XZ 0000000180007b40 f i RSACryptElectron:RSACrypt.obj
 0001:00006b40       ??1?$TF_ObjectImpl@VTF_DecryptorBase@CryptoPP@@U?$TF_CryptoSchemeOptions@V?$TF_ES@V?$OAEP@VSHA1@CryptoPP@@VP1363_MGF1@2@@CryptoPP@@URSA@2@H@CryptoPP@@URSA@2@V?$OAEP@VSHA1@CryptoPP@@VP1363_MGF1@2@@2@@2@VInvertibleRSAFunction@2@@CryptoPP@@UEAA@XZ 0000000180007b40 f i RSACryptElectron:RSACrypt.obj
 0001:00006b40       ??1?$PK_FinalTemplate@V?$TF_DecryptorImpl@U?$TF_CryptoSchemeOptions@V?$TF_ES@V?$OAEP@VSHA1@CryptoPP@@VP1363_MGF1@2@@CryptoPP@@URSA@2@H@CryptoPP@@URSA@2@V?$OAEP@VSHA1@CryptoPP@@VP1363_MGF1@2@@2@@CryptoPP@@@CryptoPP@@@CryptoPP@@UEAA@XZ 0000000180007b40 f i RSACryptElectron:RSACrypt.obj
 0001:00006b50       ??1?$PK_FinalTemplate@V?$TF_EncryptorImpl@U?$TF_CryptoSchemeOptions@V?$TF_ES@V?$OAEP@VSHA1@CryptoPP@@VP1363_MGF1@2@@CryptoPP@@URSA@2@H@CryptoPP@@URSA@2@V?$OAEP@VSHA1@CryptoPP@@VP1363_MGF1@2@@2@@CryptoPP@@@CryptoPP@@@CryptoPP@@UEAA@XZ 0000000180007b50 f i RSACryptElectron:RSACrypt.obj
 0001:00006b50       ??1?$TF_ObjectImpl@VTF_EncryptorBase@CryptoPP@@U?$TF_CryptoSchemeOptions@V?$TF_ES@V?$OAEP@VSHA1@CryptoPP@@VP1363_MGF1@2@@CryptoPP@@URSA@2@H@CryptoPP@@URSA@2@V?$OAEP@VSHA1@CryptoPP@@VP1363_MGF1@2@@2@@2@VRSAFunction@2@@CryptoPP@@UEAA@XZ 0000000180007b50 f i RSACryptElectron:RSACrypt.obj
 0001:00006b50       ??1?$TF_EncryptorImpl@U?$TF_CryptoSchemeOptions@V?$TF_ES@V?$OAEP@VSHA1@CryptoPP@@VP1363_MGF1@2@@CryptoPP@@URSA@2@H@CryptoPP@@URSA@2@V?$OAEP@VSHA1@CryptoPP@@VP1363_MGF1@2@@2@@CryptoPP@@@CryptoPP@@UEAA@XZ 0000000180007b50 f i RSACryptElectron:RSACrypt.obj
 0001:00006bb0       ??1?$FixedSizeSecBlock@E$0CA@V?$FixedSizeAllocatorWithCleanup@E$0CA@V?$NullAllocator@E@CryptoPP@@$0A@@CryptoPP@@@CryptoPP@@QEAA@XZ 0000000180007bb0 f i RSACryptElectron:RSACrypt.obj
 0001:00006be0       ??1?$FixedSizeSecBlock@E$0BA@V?$FixedSizeAllocatorWithCleanup@E$0BA@V?$NullAllocator@E@CryptoPP@@$0A@@CryptoPP@@@CryptoPP@@QEAA@XZ 0000000180007be0 f i RSACryptElectron:RSACrypt.obj
 0001:00006c10       ??_DInvertibleRSAFunction@CryptoPP@@QEAAXXZ 0000000180007c10 f i RSACryptElectron:RSACrypt.obj
 0001:00006c20       ??1?$EuclideanDomainOf@VInteger@CryptoPP@@@CryptoPP@@UEAA@XZ 0000000180007c20 f i cryptlib64:integer.obj
 0001:00006c20       ??_DRSAFunction@CryptoPP@@QEAAXXZ 0000000180007c20 f i RSACryptElectron:RSACrypt.obj
 0001:00006c20       ??1RSAFunction@CryptoPP@@UEAA@XZ 0000000180007c20 f i RSACryptElectron:RSACrypt.obj
 0001:00006c80       ??1InvertibleRSAFunction@CryptoPP@@UEAA@XZ 0000000180007c80 f i RSACryptElectron:RSACrypt.obj
 0001:00006dc0       ??1PKCS8PrivateKey@CryptoPP@@UEAA@XZ 0000000180007dc0 f i RSACryptElectron:RSACrypt.obj
 0001:00006dd0       ?RSAEncryptString@@YA?AV?$basic_string@DU?$char_traits@D@std@@V?$allocator@D@2@@std@@PEBD00@Z 0000000180007dd0 f   RSACryptElectron:RSACrypt.obj
 0001:00007170       ?RSADecryptString@@YA?AV?$basic_string@DU?$char_traits@D@std@@V?$allocator@D@2@@std@@PEBD0@Z 0000000180008170 f   RSACryptElectron:RSACrypt.obj
 0001:00007410       ?GlobalRNG@@YAAEAVRandomPool@CryptoPP@@XZ 0000000180008410 f   RSACryptElectron:RSACrypt.obj
 0001:000074a0       ?WFGenerateRSAKey@@YAXPEAD0@Z 00000001800084a0 f   RSACryptElectron:RSACrypt.obj
 0001:00007580       ?WFRSAEncryptString@@YAXPEAD00@Z 0000000180008580 f   RSACryptElectron:RSACrypt.obj
 0001:00007720       ?WFRSADecryptString@@YAXPEAD00@Z 0000000180008720 f   RSACryptElectron:RSACrypt.obj
 0001:00007820       ?SHA256HashString@@YA?AV?$basic_string@DU?$char_traits@D@std@@V?$allocator@D@2@@std@@V12@@Z 0000000180008820 f   RSACryptElectron:RSACrypt.obj
 0001:00007a60       ??1?$IteratedHashWithStaticTransform@IU?$EnumToType@W4ByteOrder@CryptoPP@@$00@CryptoPP@@$0EA@$0BE@VSHA1@2@$0A@@CryptoPP@@UEAA@XZ 0000000180008a60 f i RSACryptElectron:RSACrypt.obj
 0001:00007a60       ??1SHA1@CryptoPP@@UEAA@XZ  0000000180008a60 f i RSACryptElectron:RSACrypt.obj
 0001:00007a60       ??1SHA256@CryptoPP@@UEAA@XZ 0000000180008a60 f i RSACryptElectron:RSACrypt.obj
 0001:00007a60       ??1?$IteratedHashWithStaticTransform@IU?$EnumToType@W4ByteOrder@CryptoPP@@$00@CryptoPP@@$0EA@$0CA@VSHA256@2@$0A@@CryptoPP@@UEAA@XZ 0000000180008a60 f i RSACryptElectron:RSACrypt.obj
 0001:00007ac0       ??_ESHA256@CryptoPP@@UEAAPEAXI@Z 0000000180008ac0 f i * CIL library *:* CIL module *
 0001:00007ac0       ??_ESHA1@CryptoPP@@UEAAPEAXI@Z 0000000180008ac0 f i * CIL library *:* CIL module *
 0001:00007ac0       ??_GSHA1@CryptoPP@@UEAAPEAXI@Z 0000000180008ac0 f i RSACryptElectron:RSACrypt.obj
 0001:00007ac0       ??_GSHA256@CryptoPP@@UEAAPEAXI@Z 0000000180008ac0 f i RSACryptElectron:RSACrypt.obj
 0001:00007b40       ??1?$AlgorithmImpl@V?$IteratedHash@IU?$EnumToType@W4ByteOrder@CryptoPP@@$00@CryptoPP@@$0EA@VHashTransformation@2@@CryptoPP@@VSHA256@2@@CryptoPP@@UEAA@XZ 0000000180008b40 f i RSACryptElectron:RSACrypt.obj
 0001:00007b40       ??1?$ClonableImpl@VSHA1@CryptoPP@@V?$AlgorithmImpl@V?$IteratedHash@IU?$EnumToType@W4ByteOrder@CryptoPP@@$00@CryptoPP@@$0EA@VHashTransformation@2@@CryptoPP@@VSHA1@2@@2@@CryptoPP@@UEAA@XZ 0000000180008b40 f i RSACryptElectron:RSACrypt.obj
 0001:00007b40       ??1?$ClonableImpl@VSHA256@CryptoPP@@V?$AlgorithmImpl@V?$IteratedHash@IU?$EnumToType@W4ByteOrder@CryptoPP@@$00@CryptoPP@@$0EA@VHashTransformation@2@@CryptoPP@@VSHA256@2@@2@@CryptoPP@@UEAA@XZ 0000000180008b40 f i RSACryptElectron:RSACrypt.obj
 0001:00007b40       ??1?$AlgorithmImpl@V?$IteratedHash@IU?$EnumToType@W4ByteOrder@CryptoPP@@$00@CryptoPP@@$0EA@VHashTransformation@2@@CryptoPP@@VSHA1@2@@CryptoPP@@UEAA@XZ 0000000180008b40 f i RSACryptElectron:RSACrypt.obj
 0001:00007b40       ??1?$IteratedHash@IU?$EnumToType@W4ByteOrder@CryptoPP@@$00@CryptoPP@@$0EA@VHashTransformation@2@@CryptoPP@@UEAA@XZ 0000000180008b40 f i RSACryptElectron:RSACrypt.obj
 0001:00007b70       ??1?$FixedSizeSecBlock@I$0BA@V?$FixedSizeAllocatorWithCleanup@I$0BA@V?$NullAllocator@I@CryptoPP@@$0A@@CryptoPP@@@CryptoPP@@QEAA@XZ 0000000180008b70 f i RSACryptElectron:RSACrypt.obj
 0001:00007ba0       ?WFSHA256String@@YAXPEAD0@Z 0000000180008ba0 f   RSACryptElectron:RSACrypt.obj
 0001:00007cf0       ?AlgorithmName@?$AlgorithmImpl@VTF_DecryptorBase@CryptoPP@@V?$TF_ES@V?$OAEP@VSHA1@CryptoPP@@VP1363_MGF1@2@@CryptoPP@@URSA@2@H@2@@CryptoPP@@UEBA?AV?$basic_string@DU?$char_traits@D@std@@V?$allocator@D@2@@std@@XZ 0000000180008cf0 f i RSACryptElectron:RSACrypt.obj
 0001:00007cf0       ?AlgorithmName@?$AlgorithmImpl@VTF_EncryptorBase@CryptoPP@@V?$TF_ES@V?$OAEP@VSHA1@CryptoPP@@VP1363_MGF1@2@@CryptoPP@@URSA@2@H@2@@CryptoPP@@UEBA?AV?$basic_string@DU?$char_traits@D@std@@V?$allocator@D@2@@std@@XZ 0000000180008cf0 f i RSACryptElectron:RSACrypt.obj
 0001:00007d20       ?GetTrapdoorFunctionBounds@?$TF_ObjectImplBase@VTF_EncryptorBase@CryptoPP@@U?$TF_CryptoSchemeOptions@V?$TF_ES@V?$OAEP@VSHA1@CryptoPP@@VP1363_MGF1@2@@CryptoPP@@URSA@2@H@CryptoPP@@URSA@2@V?$OAEP@VSHA1@CryptoPP@@VP1363_MGF1@2@@2@@2@VRSAFunction@2@@CryptoPP@@MEBAAEBVTrapdoorFunctionBounds@2@XZ 0000000180008d20 f i RSACryptElectron:RSACrypt.obj
 0001:00007d20       ?GetTrapdoorFunctionBounds@?$TF_ObjectImplBase@VTF_DecryptorBase@CryptoPP@@U?$TF_CryptoSchemeOptions@V?$TF_ES@V?$OAEP@VSHA1@CryptoPP@@VP1363_MGF1@2@@CryptoPP@@URSA@2@H@CryptoPP@@URSA@2@V?$OAEP@VSHA1@CryptoPP@@VP1363_MGF1@2@@2@@2@VInvertibleRSAFunction@2@@CryptoPP@@MEBAAEBVTrapdoorFunctionBounds@2@XZ 0000000180008d20 f i RSACryptElectron:RSACrypt.obj
 0001:00007d20       ?GetTrapdoorFunctionInterface@?$TF_ObjectImplBase@VTF_EncryptorBase@CryptoPP@@U?$TF_CryptoSchemeOptions@V?$TF_ES@V?$OAEP@VSHA1@CryptoPP@@VP1363_MGF1@2@@CryptoPP@@URSA@2@H@CryptoPP@@URSA@2@V?$OAEP@VSHA1@CryptoPP@@VP1363_MGF1@2@@2@@2@VRSAFunction@2@@CryptoPP@@MEBAAEBVRandomizedTrapdoorFunction@2@XZ 0000000180008d20 f i RSACryptElectron:RSACrypt.obj
 0001:00007d30       ?GetMessageEncodingInterface@?$TF_ObjectImplBase@VTF_DecryptorBase@CryptoPP@@U?$TF_CryptoSchemeOptions@V?$TF_ES@V?$OAEP@VSHA1@CryptoPP@@VP1363_MGF1@2@@CryptoPP@@URSA@2@H@CryptoPP@@URSA@2@V?$OAEP@VSHA1@CryptoPP@@VP1363_MGF1@2@@2@@2@VInvertibleRSAFunction@2@@CryptoPP@@MEBAAEBVPK_EncryptionMessageEncodingMethod@2@XZ 0000000180008d30 f i RSACryptElectron:RSACrypt.obj
 0001:00007d30       ?GetMessageEncodingInterface@?$TF_ObjectImplBase@VTF_EncryptorBase@CryptoPP@@U?$TF_CryptoSchemeOptions@V?$TF_ES@V?$OAEP@VSHA1@CryptoPP@@VP1363_MGF1@2@@CryptoPP@@URSA@2@H@CryptoPP@@URSA@2@V?$OAEP@VSHA1@CryptoPP@@VP1363_MGF1@2@@2@@2@VRSAFunction@2@@CryptoPP@@MEBAAEBVPK_EncryptionMessageEncodingMethod@2@XZ 0000000180008d30 f i RSACryptElectron:RSACrypt.obj
 0001:00007d40       ?GetPublicKey@?$TF_ObjectImplBase@VTF_EncryptorBase@CryptoPP@@U?$TF_CryptoSchemeOptions@V?$TF_ES@V?$OAEP@VSHA1@CryptoPP@@VP1363_MGF1@2@@CryptoPP@@URSA@2@H@CryptoPP@@URSA@2@V?$OAEP@VSHA1@CryptoPP@@VP1363_MGF1@2@@2@@2@VRSAFunction@2@@CryptoPP@@UEBAAEBVPublicKey@2@XZ 0000000180008d40 f i RSACryptElectron:RSACrypt.obj
 0001:00007d70       ?AccessPublicKey@?$TF_ObjectImplBase@VTF_EncryptorBase@CryptoPP@@U?$TF_CryptoSchemeOptions@V?$TF_ES@V?$OAEP@VSHA1@CryptoPP@@VP1363_MGF1@2@@CryptoPP@@URSA@2@H@CryptoPP@@URSA@2@V?$OAEP@VSHA1@CryptoPP@@VP1363_MGF1@2@@2@@2@VRSAFunction@2@@CryptoPP@@UEAAAEAVPublicKey@2@XZ 0000000180008d70 f i RSACryptElectron:RSACrypt.obj
 0001:00007da0       ?GetKey@?$TF_ObjectImpl@VTF_EncryptorBase@CryptoPP@@U?$TF_CryptoSchemeOptions@V?$TF_ES@V?$OAEP@VSHA1@CryptoPP@@VP1363_MGF1@2@@CryptoPP@@URSA@2@H@CryptoPP@@URSA@2@V?$OAEP@VSHA1@CryptoPP@@VP1363_MGF1@2@@2@@2@VRSAFunction@2@@CryptoPP@@UEBAAEBVRSAFunction@2@XZ 0000000180008da0 f i RSACryptElectron:RSACrypt.obj
 0001:00007da0       ?AccessKey@?$TF_ObjectImpl@VTF_DecryptorBase@CryptoPP@@U?$TF_CryptoSchemeOptions@V?$TF_ES@V?$OAEP@VSHA1@CryptoPP@@VP1363_MGF1@2@@CryptoPP@@URSA@2@H@CryptoPP@@URSA@2@V?$OAEP@VSHA1@CryptoPP@@VP1363_MGF1@2@@2@@2@VInvertibleRSAFunction@2@@CryptoPP@@UEAAAEAVInvertibleRSAFunction@2@XZ 0000000180008da0 f i RSACryptElectron:RSACrypt.obj
 0001:00007da0       ?GetModulus@RSAFunction@CryptoPP@@QEBAAEBVInteger@2@XZ 0000000180008da0 f i cryptlib64:rsa.obj
 0001:00007da0       ?GetKey@?$TF_ObjectImpl@VTF_DecryptorBase@CryptoPP@@U?$TF_CryptoSchemeOptions@V?$TF_ES@V?$OAEP@VSHA1@CryptoPP@@VP1363_MGF1@2@@CryptoPP@@URSA@2@H@CryptoPP@@URSA@2@V?$OAEP@VSHA1@CryptoPP@@VP1363_MGF1@2@@2@@2@VInvertibleRSAFunction@2@@CryptoPP@@UEBAAEBVInvertibleRSAFunction@2@XZ 0000000180008da0 f i RSACryptElectron:RSACrypt.obj
 0001:00007da0       ?AccessKey@?$TF_ObjectImpl@VTF_EncryptorBase@CryptoPP@@U?$TF_CryptoSchemeOptions@V?$TF_ES@V?$OAEP@VSHA1@CryptoPP@@VP1363_MGF1@2@@CryptoPP@@URSA@2@H@CryptoPP@@URSA@2@V?$OAEP@VSHA1@CryptoPP@@VP1363_MGF1@2@@2@@2@VRSAFunction@2@@CryptoPP@@UEAAAEAVRSAFunction@2@XZ 0000000180008da0 f i RSACryptElectron:RSACrypt.obj
 0001:00007db0       ?GetTrapdoorFunctionInterface@?$TF_ObjectImplBase@VTF_DecryptorBase@CryptoPP@@U?$TF_CryptoSchemeOptions@V?$TF_ES@V?$OAEP@VSHA1@CryptoPP@@VP1363_MGF1@2@@CryptoPP@@URSA@2@H@CryptoPP@@URSA@2@V?$OAEP@VSHA1@CryptoPP@@VP1363_MGF1@2@@2@@2@VInvertibleRSAFunction@2@@CryptoPP@@MEBAAEBVTrapdoorFunctionInverse@2@XZ 0000000180008db0 f i RSACryptElectron:RSACrypt.obj
 0001:00007de0       ?GetPrivateKey@?$TF_ObjectImplBase@VTF_DecryptorBase@CryptoPP@@U?$TF_CryptoSchemeOptions@V?$TF_ES@V?$OAEP@VSHA1@CryptoPP@@VP1363_MGF1@2@@CryptoPP@@URSA@2@H@CryptoPP@@URSA@2@V?$OAEP@VSHA1@CryptoPP@@VP1363_MGF1@2@@2@@2@VInvertibleRSAFunction@2@@CryptoPP@@UEBAAEBVPrivateKey@2@XZ 0000000180008de0 f i RSACryptElectron:RSACrypt.obj
 0001:00007e10       ?AccessPrivateKey@?$TF_ObjectImplBase@VTF_DecryptorBase@CryptoPP@@U?$TF_CryptoSchemeOptions@V?$TF_ES@V?$OAEP@VSHA1@CryptoPP@@VP1363_MGF1@2@@CryptoPP@@URSA@2@H@CryptoPP@@URSA@2@V?$OAEP@VSHA1@CryptoPP@@VP1363_MGF1@2@@2@@2@VInvertibleRSAFunction@2@@CryptoPP@@UEAAAEAVPrivateKey@2@XZ 0000000180008e10 f i RSACryptElectron:RSACrypt.obj
 0001:00007e40       ?GetParent@?$AlgorithmParameters@V?$AlgorithmParameters@VNullNameValuePairs@CryptoPP@@PEBD@CryptoPP@@_N@CryptoPP@@EEBAAEBVNameValuePairs@2@XZ 0000000180008e40 f i RSACryptElectron:RSACrypt.obj
 0001:00007e40       ?GetParent@?$AlgorithmParameters@VNullNameValuePairs@CryptoPP@@W4RandomNumberType@Integer@2@@CryptoPP@@EEBAAEBVNameValuePairs@2@XZ 0000000180008e40 f i cryptlib64:rsa.obj
 0001:00007e40       ?GetParent@?$AlgorithmParameters@VNullNameValuePairs@CryptoPP@@PEBE@CryptoPP@@EEBAAEBVNameValuePairs@2@XZ 0000000180008e40 f i cryptlib64:cryptlib.obj
 0001:00007e40       ?GetParent@?$AlgorithmParameters@V?$AlgorithmParameters@V?$AlgorithmParameters@V?$AlgorithmParameters@V?$AlgorithmParameters@V?$AlgorithmParameters@VNullNameValuePairs@CryptoPP@@PEBE@CryptoPP@@E@CryptoPP@@H@CryptoPP@@VConstByteArrayParameter@2@@CryptoPP@@VConstByteArrayParameter@2@@CryptoPP@@H@CryptoPP@@EEBAAEBVNameValuePairs@2@XZ 0000000180008e40 f i cryptlib64:base64.obj
 0001:00007e40       ?GetParent@?$AlgorithmParameters@V?$AlgorithmParameters@VNullNameValuePairs@CryptoPP@@PEBE@CryptoPP@@E@CryptoPP@@EEBAAEBVNameValuePairs@2@XZ 0000000180008e40 f i cryptlib64:base64.obj
 0001:00007e40       ?GetParent@?$AlgorithmParameters@V?$AlgorithmParameters@V?$AlgorithmParameters@V?$AlgorithmParameters@VNullNameValuePairs@CryptoPP@@W4RandomNumberType@Integer@2@@CryptoPP@@VInteger@2@@CryptoPP@@VInteger@2@@CryptoPP@@PEBVPrimeSelector@2@@CryptoPP@@EEBAAEBVNameValuePairs@2@XZ 0000000180008e40 f i cryptlib64:rsa.obj
 0001:00007e40       ?GetParent@?$AlgorithmParameters@VNullNameValuePairs@CryptoPP@@PEBD@CryptoPP@@EEBAAEBVNameValuePairs@2@XZ 0000000180008e40 f i RSACryptElectron:RSACrypt.obj
 0001:00007e40       ?GetParent@?$AlgorithmParameters@V?$AlgorithmParameters@VNullNameValuePairs@CryptoPP@@PEBH@CryptoPP@@H@CryptoPP@@EEBAAEBVNameValuePairs@2@XZ 0000000180008e40 f i RSACryptElectron:RSACrypt.obj
 0001:00007e40       ?GetParent@?$AlgorithmParameters@V?$AlgorithmParameters@VNullNameValuePairs@CryptoPP@@PEBE@CryptoPP@@H@CryptoPP@@EEBAAEBVNameValuePairs@2@XZ 0000000180008e40 f i cryptlib64:hex.obj
 0001:00007e40       ?GetParent@?$AlgorithmParameters@VNullNameValuePairs@CryptoPP@@_N@CryptoPP@@EEBAAEBVNameValuePairs@2@XZ 0000000180008e40 f i RSACryptElectron:RSACrypt.obj
 0001:00007e40       ?GetParent@?$AlgorithmParameters@VNullNameValuePairs@CryptoPP@@H@CryptoPP@@EEBAAEBVNameValuePairs@2@XZ 0000000180008e40 f i cryptlib64:cryptlib.obj
 0001:00007e40       ?GetParent@?$AlgorithmParameters@V?$AlgorithmParameters@V?$AlgorithmParameters@VNullNameValuePairs@CryptoPP@@PEBE@CryptoPP@@E@CryptoPP@@H@CryptoPP@@EEBAAEBVNameValuePairs@2@XZ 0000000180008e40 f i cryptlib64:base64.obj
 0001:00007e40       ?GetParent@?$AlgorithmParameters@V?$AlgorithmParameters@VNullNameValuePairs@CryptoPP@@_N@CryptoPP@@H@CryptoPP@@EEBAAEBVNameValuePairs@2@XZ 0000000180008e40 f i RSACryptElectron:RSACrypt.obj
 0001:00007e40       ?GetParent@?$AlgorithmParameters@VNullNameValuePairs@CryptoPP@@PEBH@CryptoPP@@EEBAAEBVNameValuePairs@2@XZ 0000000180008e40 f i RSACryptElectron:RSACrypt.obj
 0001:00007e50       ?GetAutoSignalPropagation@?$SourceTemplate@VFileStore@CryptoPP@@@CryptoPP@@UEBAHXZ 0000000180008e50 f i RSACryptElectron:RSACrypt.obj
 0001:00007e50       ?GetAutoSignalPropagation@?$SourceTemplate@VStringStore@CryptoPP@@@CryptoPP@@UEBAHXZ 0000000180008e50 f i RSACryptElectron:RSACrypt.obj
 0001:00007e60       ?SetAutoSignalPropagation@?$SourceTemplate@VStringStore@CryptoPP@@@CryptoPP@@UEAAXH@Z 0000000180008e60 f i RSACryptElectron:RSACrypt.obj
 0001:00007e60       ?SetAutoSignalPropagation@?$SourceTemplate@VFileStore@CryptoPP@@@CryptoPP@@UEAAXH@Z 0000000180008e60 f i RSACryptElectron:RSACrypt.obj
 0001:00007e70       ?SourceExhausted@?$SourceTemplate@VStringStore@CryptoPP@@@CryptoPP@@UEBA_NXZ 0000000180008e70 f i RSACryptElectron:RSACrypt.obj
 0001:00007e70       ?SourceExhausted@?$SourceTemplate@VFileStore@CryptoPP@@@CryptoPP@@UEBA_NXZ 0000000180008e70 f i RSACryptElectron:RSACrypt.obj
 0001:00007eb0       ?PumpAll2@?$SourceTemplate@VStringStore@CryptoPP@@@CryptoPP@@UEAA_K_N@Z 0000000180008eb0 f i RSACryptElectron:RSACrypt.obj
 0001:00007eb0       ?PumpAll2@?$SourceTemplate@VFileStore@CryptoPP@@@CryptoPP@@UEAA_K_N@Z 0000000180008eb0 f i RSACryptElectron:RSACrypt.obj
 0001:00007ef0       ?PumpMessages2@?$SourceTemplate@VFileStore@CryptoPP@@@CryptoPP@@UEAA_KAEAI_N@Z 0000000180008ef0 f i RSACryptElectron:RSACrypt.obj
 0001:00007ef0       ?PumpMessages2@?$SourceTemplate@VStringStore@CryptoPP@@@CryptoPP@@UEAA_KAEAI_N@Z 0000000180008ef0 f i RSACryptElectron:RSACrypt.obj
 0001:00007f40       ?Pump2@?$SourceTemplate@VFileStore@CryptoPP@@@CryptoPP@@UEAA_KAEA_K_N@Z 0000000180008f40 f i RSACryptElectron:RSACrypt.obj
 0001:00007f40       ?Pump2@?$SourceTemplate@VStringStore@CryptoPP@@@CryptoPP@@UEAA_KAEA_K_N@Z 0000000180008f40 f i RSACryptElectron:RSACrypt.obj
 0001:00007fa0       ?IsolatedInitialize@?$SourceTemplate@VFileStore@CryptoPP@@@CryptoPP@@UEAAXAEBVNameValuePairs@2@@Z 0000000180008fa0 f i RSACryptElectron:RSACrypt.obj
 0001:00007fa0       ?IsolatedInitialize@?$SourceTemplate@VStringStore@CryptoPP@@@CryptoPP@@UEAAXAEBVNameValuePairs@2@@Z 0000000180008fa0 f i RSACryptElectron:RSACrypt.obj
 0001:00007fb0       ??0?$SourceTemplate@VFileStore@CryptoPP@@@CryptoPP@@QEAA@PEAVBufferedTransformation@1@@Z 0000000180008fb0 f i RSACryptElectron:RSACrypt.obj
 0001:00008060       ?AssignValue@?$AlgorithmParametersBase2@PEBD@CryptoPP@@UEBAXPEBDAEBVtype_info@@PEAX@Z 0000000180009060 f i RSACryptElectron:RSACrypt.obj
 0001:000080f0       ?GetParent@?$AlgorithmParameters@V?$AlgorithmParameters@V?$AlgorithmParameters@V?$AlgorithmParameters@VNullNameValuePairs@CryptoPP@@PEBE@CryptoPP@@E@CryptoPP@@H@CryptoPP@@VConstByteArrayParameter@2@@CryptoPP@@EEBAAEBVNameValuePairs@2@XZ 00000001800090f0 f i cryptlib64:base64.obj
 0001:000080f0       ?GetParent@?$AlgorithmParameters@VNullNameValuePairs@CryptoPP@@VConstByteArrayParameter@2@@CryptoPP@@EEBAAEBVNameValuePairs@2@XZ 00000001800090f0 f i RSACryptElectron:RSACrypt.obj
 0001:000080f0       ?GetParent@?$AlgorithmParameters@V?$AlgorithmParameters@V?$AlgorithmParameters@V?$AlgorithmParameters@VNullNameValuePairs@CryptoPP@@_N@CryptoPP@@H@CryptoPP@@VConstByteArrayParameter@2@@CryptoPP@@VConstByteArrayParameter@2@@CryptoPP@@EEBAAEBVNameValuePairs@2@XZ 00000001800090f0 f i RSACryptElectron:RSACrypt.obj
 0001:000080f0       ?GetParent@?$AlgorithmParameters@V?$AlgorithmParameters@V?$AlgorithmParameters@V?$AlgorithmParameters@V?$AlgorithmParameters@VNullNameValuePairs@CryptoPP@@PEBE@CryptoPP@@E@CryptoPP@@H@CryptoPP@@VConstByteArrayParameter@2@@CryptoPP@@VConstByteArrayParameter@2@@CryptoPP@@EEBAAEBVNameValuePairs@2@XZ 00000001800090f0 f i cryptlib64:base64.obj
 0001:000080f0       ?GetParent@?$AlgorithmParameters@V?$AlgorithmParameters@V?$AlgorithmParameters@VNullNameValuePairs@CryptoPP@@_N@CryptoPP@@H@CryptoPP@@VConstByteArrayParameter@2@@CryptoPP@@EEBAAEBVNameValuePairs@2@XZ 00000001800090f0 f i RSACryptElectron:RSACrypt.obj
 0001:00008100       ?AssignValue@?$AlgorithmParametersBase2@PEBH@CryptoPP@@UEBAXPEBDAEBVtype_info@@PEAX@Z 0000000180009100 f i RSACryptElectron:RSACrypt.obj
 0001:00008190       ?AssignValue@?$AlgorithmParametersBase2@_N@CryptoPP@@UEBAXPEBDAEBVtype_info@@PEAX@Z 0000000180009190 f i RSACryptElectron:RSACrypt.obj
 0001:00008220       ??0?$PK_FinalTemplate@V?$TF_EncryptorImpl@U?$TF_CryptoSchemeOptions@V?$TF_ES@V?$OAEP@VSHA1@CryptoPP@@VP1363_MGF1@2@@CryptoPP@@URSA@2@H@CryptoPP@@URSA@2@V?$OAEP@VSHA1@CryptoPP@@VP1363_MGF1@2@@2@@CryptoPP@@@CryptoPP@@@CryptoPP@@QEAA@AEBVAsymmetricAlgorithm@1@@Z 0000000180009220 f i RSACryptElectron:RSACrypt.obj
 0001:000082b0       ?NewMGF@?$OAEP@VSHA1@CryptoPP@@VP1363_MGF1@2@@CryptoPP@@MEBAPEAVMaskGeneratingFunction@2@XZ 00000001800092b0 f i RSACryptElectron:RSACrypt.obj
 0001:000082d0       ?NewHash@?$OAEP@VSHA1@CryptoPP@@VP1363_MGF1@2@@CryptoPP@@MEBAPEAVHashTransformation@2@XZ 00000001800092d0 f i RSACryptElectron:RSACrypt.obj
 0001:00008320       ?DigestSize@?$IteratedHashWithStaticTransform@IU?$EnumToType@W4ByteOrder@CryptoPP@@$00@CryptoPP@@$0EA@$0BE@VSHA1@2@$0A@@CryptoPP@@UEBAIXZ 0000000180009320 f i RSACryptElectron:RSACrypt.obj
 0001:00008320       ?DigestSize@?$OAEP@VSHA1@CryptoPP@@VP1363_MGF1@2@@CryptoPP@@MEBAIXZ 0000000180009320 f i RSACryptElectron:RSACrypt.obj
 0001:00008330       ?Clone@?$ClonableImpl@VSHA256@CryptoPP@@V?$AlgorithmImpl@V?$IteratedHash@IU?$EnumToType@W4ByteOrder@CryptoPP@@$00@CryptoPP@@$0EA@VHashTransformation@2@@CryptoPP@@VSHA256@2@@2@@CryptoPP@@UEBAPEAVClonable@2@XZ 0000000180009330 f i RSACryptElectron:RSACrypt.obj
 0001:00008390       ?AlgorithmName@?$AlgorithmImpl@V?$IteratedHash@IU?$EnumToType@W4ByteOrder@CryptoPP@@$00@CryptoPP@@$0EA@VHashTransformation@2@@CryptoPP@@VSHA256@2@@CryptoPP@@UEBA?AV?$basic_string@DU?$char_traits@D@std@@V?$allocator@D@2@@std@@XZ 0000000180009390 f i RSACryptElectron:RSACrypt.obj
 0001:00008400       ?StateBuf@?$IteratedHashWithStaticTransform@IU?$EnumToType@W4ByteOrder@CryptoPP@@$00@CryptoPP@@$0EA@$0CA@VSHA256@2@$0A@@CryptoPP@@MEAAPEAIXZ 0000000180009400 f i RSACryptElectron:RSACrypt.obj
 0001:00008400       ?StateBuf@?$IteratedHashWithStaticTransform@IU?$EnumToType@W4ByteOrder@CryptoPP@@$00@CryptoPP@@$0EA@$0BE@VSHA1@2@$0A@@CryptoPP@@MEAAPEAIXZ 0000000180009400 f i RSACryptElectron:RSACrypt.obj
 0001:00008410       ?Init@?$IteratedHashWithStaticTransform@IU?$EnumToType@W4ByteOrder@CryptoPP@@$00@CryptoPP@@$0EA@$0CA@VSHA256@2@$0A@@CryptoPP@@MEAAXXZ 0000000180009410 f i RSACryptElectron:RSACrypt.obj
 0001:00008430       ?HashEndianCorrectedBlock@?$IteratedHashWithStaticTransform@IU?$EnumToType@W4ByteOrder@CryptoPP@@$00@CryptoPP@@$0EA@$0CA@VSHA256@2@$0A@@CryptoPP@@MEAAXPEBI@Z 0000000180009430 f i RSACryptElectron:RSACrypt.obj
 0001:00008440       ?DigestSize@?$IteratedHashWithStaticTransform@IU?$EnumToType@W4ByteOrder@CryptoPP@@$00@CryptoPP@@$0EA@$0CA@VSHA256@2@$0A@@CryptoPP@@UEBAIXZ 0000000180009440 f i RSACryptElectron:RSACrypt.obj
 0001:00008440       ?MaxKeyLength@?$SimpleKeyingInterfaceImpl@V?$TwoBases@V?$SimpleKeyedTransformation@VBlockTransformation@CryptoPP@@@CryptoPP@@URijndael_Info@2@@CryptoPP@@V12@@CryptoPP@@UEBA_KXZ 0000000180009440 f i cryptlib64:randpool.obj
 0001:00008450       ?Clone@?$ClonableImpl@VSHA1@CryptoPP@@V?$AlgorithmImpl@V?$IteratedHash@IU?$EnumToType@W4ByteOrder@CryptoPP@@$00@CryptoPP@@$0EA@VHashTransformation@2@@CryptoPP@@VSHA1@2@@2@@CryptoPP@@UEBAPEAVClonable@2@XZ 0000000180009450 f i RSACryptElectron:RSACrypt.obj
 0001:000084b0       ?AlgorithmName@?$AlgorithmImpl@V?$IteratedHash@IU?$EnumToType@W4ByteOrder@CryptoPP@@$00@CryptoPP@@$0EA@VHashTransformation@2@@CryptoPP@@VSHA1@2@@CryptoPP@@UEBA?AV?$basic_string@DU?$char_traits@D@std@@V?$allocator@D@2@@std@@XZ 00000001800094b0 f i RSACryptElectron:RSACrypt.obj
 0001:00008520       ?DataBuf@?$IteratedHash@IU?$EnumToType@W4ByteOrder@CryptoPP@@$00@CryptoPP@@$0EA@VHashTransformation@2@@CryptoPP@@MEAAPEAIXZ 0000000180009520 f i RSACryptElectron:RSACrypt.obj
 0001:00008530       ?OptimalDataAlignment@?$IteratedHashBase@IVHashTransformation@CryptoPP@@@CryptoPP@@UEBAIXZ 0000000180009530 f i RSACryptElectron:RSACrypt.obj
 0001:00008530       ?length@charNode@@UEBAHXZ  0000000180009530 f i libvcruntime:undname.obj
 0001:00008530       ?OptimalNumberOfParallelBlocks@BlockTransformation@CryptoPP@@UEBAIXZ 0000000180009530 f i cryptlib64:randpool.obj
 0001:00008530       ?BlockAlignment@BlockTransformation@CryptoPP@@UEBAIXZ 0000000180009530 f i cryptlib64:cryptlib.obj
 0001:00008530       ?do_encoding@codecvt_base@std@@MEBAHXZ 0000000180009530 f i cryptlib64:files.obj
 0001:00008530       ?do_max_length@codecvt_base@std@@MEBAHXZ 0000000180009530 f i cryptlib64:files.obj
 0001:00008530       _get_startup_argv_mode     0000000180009530 f i LIBCMT:argv_mode.obj
 0001:00008530       DllMain                    0000000180009530 f i LIBCMT:dll_dllmain_stub.obj
 0001:00008530       ?GetByteOrder@?$IteratedHash@IU?$EnumToType@W4ByteOrder@CryptoPP@@$00@CryptoPP@@$0EA@VHashTransformation@2@@CryptoPP@@UEBA?AW4ByteOrder@2@XZ 0000000180009530 f i RSACryptElectron:RSACrypt.obj
 0001:00008540       ?BlockSize@?$IteratedHash@IU?$EnumToType@W4ByteOrder@CryptoPP@@$00@CryptoPP@@$0EA@VHashTransformation@2@@CryptoPP@@UEBAIXZ 0000000180009540 f i RSACryptElectron:RSACrypt.obj
 0001:00008550       ?Init@?$IteratedHashWithStaticTransform@IU?$EnumToType@W4ByteOrder@CryptoPP@@$00@CryptoPP@@$0EA@$0BE@VSHA1@2@$0A@@CryptoPP@@MEAAXXZ 0000000180009550 f i RSACryptElectron:RSACrypt.obj
 0001:00008580       ?HashEndianCorrectedBlock@?$IteratedHashWithStaticTransform@IU?$EnumToType@W4ByteOrder@CryptoPP@@$00@CryptoPP@@$0EA@$0BE@VSHA1@2@$0A@@CryptoPP@@MEAAXPEBI@Z 0000000180009580 f i RSACryptElectron:RSACrypt.obj
 0001:00008590       ?OptimalBlockSize@?$IteratedHashBase@IVHashTransformation@CryptoPP@@@CryptoPP@@UEBAIXZ 0000000180009590 f i RSACryptElectron:RSACrypt.obj
 0001:000085a0       ?Load@?$ASN1CryptoMaterial@VPrivateKey@CryptoPP@@@CryptoPP@@UEAAXAEAVBufferedTransformation@2@@Z 00000001800095a0 f i RSACryptElectron:RSACrypt.obj
 0001:000085b0       ?Save@?$ASN1CryptoMaterial@VPrivateKey@CryptoPP@@@CryptoPP@@UEBAXAEAVBufferedTransformation@2@@Z 00000001800095b0 f i RSACryptElectron:RSACrypt.obj
 0001:000085c0       ?Load@?$ASN1CryptoMaterial@VPublicKey@CryptoPP@@@CryptoPP@@UEAAXAEAVBufferedTransformation@2@@Z 00000001800095c0 f i RSACryptElectron:RSACrypt.obj
 0001:000085d0       ?Save@?$ASN1CryptoMaterial@VPublicKey@CryptoPP@@@CryptoPP@@UEBAXAEAVBufferedTransformation@2@@Z 00000001800095d0 f i RSACryptElectron:RSACrypt.obj
 0001:000085e0       ??1?$vector@IV?$allocator@I@std@@@std@@QEAA@XZ 00000001800095e0 f i RSACryptElectron:RSACrypt.obj
 0001:00008620       ?CiphertextLength@?$PK_FixedLengthCryptoSystemImpl@VPK_Decryptor@CryptoPP@@@CryptoPP@@UEBA_K_K@Z 0000000180009620 f i RSACryptElectron:RSACrypt.obj
 0001:00008620       ?CiphertextLength@?$PK_FixedLengthCryptoSystemImpl@VPK_Encryptor@CryptoPP@@@CryptoPP@@UEBA_K_K@Z 0000000180009620 f i RSACryptElectron:RSACrypt.obj
 0001:00008660       ?MaxPlaintextLength@?$PK_FixedLengthCryptoSystemImpl@VPK_Encryptor@CryptoPP@@@CryptoPP@@UEBA_K_K@Z 0000000180009660 f i RSACryptElectron:RSACrypt.obj
 0001:00008660       ?MaxPlaintextLength@?$PK_FixedLengthCryptoSystemImpl@VPK_Decryptor@CryptoPP@@@CryptoPP@@UEBA_K_K@Z 0000000180009660 f i RSACryptElectron:RSACrypt.obj
 0001:000086a0       ?FixedCiphertextLength@?$TF_CryptoSystemBase@VPK_Encryptor@CryptoPP@@V?$TF_Base@VRandomizedTrapdoorFunction@CryptoPP@@VPK_EncryptionMessageEncodingMethod@2@@2@@CryptoPP@@UEBA_KXZ 00000001800096a0 f i RSACryptElectron:RSACrypt.obj
 0001:000086a0       ?FixedCiphertextLength@?$TF_CryptoSystemBase@VPK_Decryptor@CryptoPP@@V?$TF_Base@VTrapdoorFunctionInverse@CryptoPP@@VPK_EncryptionMessageEncodingMethod@2@@2@@CryptoPP@@UEBA_KXZ 00000001800096a0 f i RSACryptElectron:RSACrypt.obj
 0001:00008700       ?FixedMaxPlaintextLength@?$TF_CryptoSystemBase@VPK_Encryptor@CryptoPP@@V?$TF_Base@VRandomizedTrapdoorFunction@CryptoPP@@VPK_EncryptionMessageEncodingMethod@2@@2@@CryptoPP@@UEBA_KXZ 0000000180009700 f i RSACryptElectron:RSACrypt.obj
 0001:00008700       ?FixedMaxPlaintextLength@?$TF_CryptoSystemBase@VPK_Decryptor@CryptoPP@@V?$TF_Base@VTrapdoorFunctionInverse@CryptoPP@@VPK_EncryptionMessageEncodingMethod@2@@2@@CryptoPP@@UEBA_KXZ 0000000180009700 f i RSACryptElectron:RSACrypt.obj
 0001:00008790       ?ParameterSupported@?$TF_CryptoSystemBase@VPK_Decryptor@CryptoPP@@V?$TF_Base@VTrapdoorFunctionInverse@CryptoPP@@VPK_EncryptionMessageEncodingMethod@2@@2@@CryptoPP@@UEBA_NPEBD@Z 0000000180009790 f i RSACryptElectron:RSACrypt.obj
 0001:00008790       ?ParameterSupported@?$TF_CryptoSystemBase@VPK_Encryptor@CryptoPP@@V?$TF_Base@VRandomizedTrapdoorFunction@CryptoPP@@VPK_EncryptionMessageEncodingMethod@2@@2@@CryptoPP@@UEBA_NPEBD@Z 0000000180009790 f i RSACryptElectron:RSACrypt.obj
 0001:000087c0       ?AssignValue@?$AlgorithmParametersBase2@H@CryptoPP@@UEBAXPEBDAEBVtype_info@@PEAX@Z 00000001800097c0 f i RSACryptElectron:RSACrypt.obj
 0001:00008850       ?IsolatedMessageSeriesEnd@?$InputRejecting@VFilter@CryptoPP@@@CryptoPP@@UEAA_N_N@Z 0000000180009850 f i RSACryptElectron:RSACrypt.obj
 0001:00008850       ?ChannelPut2@?$InputRejecting@VFilter@CryptoPP@@@CryptoPP@@UEAA_KAEBV?$basic_string@DU?$char_traits@D@std@@V?$allocator@D@2@@std@@PEBE_KH_N@Z 0000000180009850 f i RSACryptElectron:RSACrypt.obj
 0001:00008850       ?ChannelMessageSeriesEnd@?$InputRejecting@VFilter@CryptoPP@@@CryptoPP@@UEAA_NAEBV?$basic_string@DU?$char_traits@D@std@@V?$allocator@D@2@@std@@H_N@Z 0000000180009850 f i RSACryptElectron:RSACrypt.obj
 0001:00008850       ?Put2@?$InputRejecting@VFilter@CryptoPP@@@CryptoPP@@UEAA_KPEBE_KH_N@Z 0000000180009850 f i RSACryptElectron:RSACrypt.obj
 0001:00008870       ?AssignValue@?$AlgorithmParametersBase2@VConstByteArrayParameter@CryptoPP@@@CryptoPP@@UEBAXPEBDAEBVtype_info@@PEAX@Z 0000000180009870 f i RSACryptElectron:RSACrypt.obj
 0001:00008910       ?Put2@?$StringSinkTemplate@V?$basic_string@DU?$char_traits@D@std@@V?$allocator@D@2@@std@@@CryptoPP@@UEAA_KPEBE_KH_N@Z 0000000180009910 f i RSACryptElectron:RSACrypt.obj
 0001:00008970       ?IsolatedInitialize@?$StringSinkTemplate@V?$basic_string@DU?$char_traits@D@std@@V?$allocator@D@2@@std@@@CryptoPP@@UEAAXAEBVNameValuePairs@2@@Z 0000000180009970 f i RSACryptElectron:RSACrypt.obj
 0001:00008a80       ?ChannelFlush@?$Unflushable@VFilter@CryptoPP@@@CryptoPP@@UEAA_NAEBV?$basic_string@DU?$char_traits@D@std@@V?$allocator@D@2@@std@@_NH1@Z 0000000180009a80 f i RSACryptElectron:RSACrypt.obj
 0001:00008be0       ?Flush@?$Unflushable@VFilter@CryptoPP@@@CryptoPP@@UEAA_N_NH0@Z 0000000180009be0 f i RSACryptElectron:RSACrypt.obj
 0001:00008c10       ??1?$SecBlock@_KV?$AllocatorWithCleanup@_K$0A@@CryptoPP@@@CryptoPP@@QEAA@XZ 0000000180009c10 f i RSACryptElectron:RSACrypt.obj
 0001:00008c40       ?New@?$SecBlock@EV?$AllocatorWithCleanup@E$0A@@CryptoPP@@@CryptoPP@@QEAAX_K@Z 0000000180009c40 f i RSACryptElectron:RSACrypt.obj
 0001:00008cc0       ?Assign@?$SecBlock@EV?$AllocatorWithCleanup@E$0A@@CryptoPP@@@CryptoPP@@QEAAXPEBE_K@Z 0000000180009cc0 f i RSACryptElectron:RSACrypt.obj
 0001:00008d40       ?GetAutoSignalPropagation@?$AutoSignaling@VBufferedTransformation@CryptoPP@@@CryptoPP@@UEBAHXZ 0000000180009d40 f i cryptlib64:mqueue.obj
 0001:00008d40       ?GetAutoSignalPropagation@?$AutoSignaling@V?$InputRejecting@VBufferedTransformation@CryptoPP@@@CryptoPP@@@CryptoPP@@UEBAHXZ 0000000180009d40 f i RSACryptElectron:RSACrypt.obj
 0001:00008d50       ?SetAutoSignalPropagation@?$AutoSignaling@V?$InputRejecting@VBufferedTransformation@CryptoPP@@@CryptoPP@@@CryptoPP@@UEAAXH@Z 0000000180009d50 f i RSACryptElectron:RSACrypt.obj
 0001:00008d50       ?SetAutoSignalPropagation@?$AutoSignaling@VBufferedTransformation@CryptoPP@@@CryptoPP@@UEAAXH@Z 0000000180009d50 f i cryptlib64:mqueue.obj
 0001:00008d60       ?ChannelMessageSeriesEnd@?$InputRejecting@VBufferedTransformation@CryptoPP@@@CryptoPP@@UEAA_NAEBV?$basic_string@DU?$char_traits@D@std@@V?$allocator@D@2@@std@@H_N@Z 0000000180009d60 f i RSACryptElectron:RSACrypt.obj
 0001:00008d60       ?ChannelPut2@?$InputRejecting@VBufferedTransformation@CryptoPP@@@CryptoPP@@UEAA_KAEBV?$basic_string@DU?$char_traits@D@std@@V?$allocator@D@2@@std@@PEBE_KH_N@Z 0000000180009d60 f i RSACryptElectron:RSACrypt.obj
 0001:00008d60       ?Put2@?$InputRejecting@VBufferedTransformation@CryptoPP@@@CryptoPP@@UEAA_KPEBE_KH_N@Z 0000000180009d60 f i RSACryptElectron:RSACrypt.obj
 0001:00008d60       ?IsolatedMessageSeriesEnd@?$InputRejecting@VBufferedTransformation@CryptoPP@@@CryptoPP@@UEAA_N_N@Z 0000000180009d60 f i RSACryptElectron:RSACrypt.obj
 0001:00008d80       ??1?$basic_string@DU?$char_traits@D@std@@V?$allocator@D@2@@std@@QEAA@XZ 0000000180009d80 f i RSACryptElectron:RSACrypt.obj
 0001:00008e10       ??0?$basic_string@DU?$char_traits@D@std@@V?$allocator@D@2@@std@@QEAA@$$QEAV01@@Z 0000000180009e10 f i RSACryptElectron:RSACrypt.obj
 0001:00008e60       ??0?$basic_string@DU?$char_traits@D@std@@V?$allocator@D@2@@std@@QEAA@PEBD@Z 0000000180009e60 f i RSACryptElectron:RSACrypt.obj
 0001:00008ec0       ??0?$basic_string@DU?$char_traits@D@std@@V?$allocator@D@2@@std@@QEAA@XZ 0000000180009ec0 f i RSACryptElectron:RSACrypt.obj
 0001:00008f00       ??0InputRejected@?$InputRejecting@VFilter@CryptoPP@@@CryptoPP@@QEAA@AEBU012@@Z 0000000180009f00 f i RSACryptElectron:RSACrypt.obj
 0001:00008f30       ??_E?$StringSinkTemplate@V?$basic_string@DU?$char_traits@D@std@@V?$allocator@D@2@@std@@@CryptoPP@@UEAAPEAXI@Z 0000000180009f30 f i * CIL library *:* CIL module *
 0001:00008f30       ??_G?$StringSinkTemplate@V?$basic_string@DU?$char_traits@D@std@@V?$allocator@D@2@@std@@@CryptoPP@@UEAAPEAXI@Z 0000000180009f30 f i RSACryptElectron:RSACrypt.obj
 0001:00008f60       ??0CannotFlush@CryptoPP@@QEAA@AEBV01@@Z 0000000180009f60 f i RSACryptElectron:RSACrypt.obj
 0001:00008f90       ??0InputRejected@?$InputRejecting@VBufferedTransformation@CryptoPP@@@CryptoPP@@QEAA@AEBU012@@Z 0000000180009f90 f i RSACryptElectron:RSACrypt.obj
 0001:00008fc0       ??_E?$TF_EncryptorImpl@U?$TF_CryptoSchemeOptions@V?$TF_ES@V?$OAEP@VSHA1@CryptoPP@@VP1363_MGF1@2@@CryptoPP@@URSA@2@H@CryptoPP@@URSA@2@V?$OAEP@VSHA1@CryptoPP@@VP1363_MGF1@2@@2@@CryptoPP@@@CryptoPP@@UEAAPEAXI@Z 0000000180009fc0 f i * CIL library *:* CIL module *
 0001:00008fc0       ??_G?$TF_EncryptorImpl@U?$TF_CryptoSchemeOptions@V?$TF_ES@V?$OAEP@VSHA1@CryptoPP@@VP1363_MGF1@2@@CryptoPP@@URSA@2@H@CryptoPP@@URSA@2@V?$OAEP@VSHA1@CryptoPP@@VP1363_MGF1@2@@2@@CryptoPP@@@CryptoPP@@UEAAPEAXI@Z 0000000180009fc0 f i RSACryptElectron:RSACrypt.obj
 0001:00009040       ??_G?$TF_DecryptorImpl@U?$TF_CryptoSchemeOptions@V?$TF_ES@V?$OAEP@VSHA1@CryptoPP@@VP1363_MGF1@2@@CryptoPP@@URSA@2@H@CryptoPP@@URSA@2@V?$OAEP@VSHA1@CryptoPP@@VP1363_MGF1@2@@2@@CryptoPP@@@CryptoPP@@UEAAPEAXI@Z 000000018000a040 f i RSACryptElectron:RSACrypt.obj
 0001:00009040       ??_E?$TF_DecryptorImpl@U?$TF_CryptoSchemeOptions@V?$TF_ES@V?$OAEP@VSHA1@CryptoPP@@VP1363_MGF1@2@@CryptoPP@@URSA@2@H@CryptoPP@@URSA@2@V?$OAEP@VSHA1@CryptoPP@@VP1363_MGF1@2@@2@@CryptoPP@@@CryptoPP@@UEAAPEAXI@Z 000000018000a040 f i * CIL library *:* CIL module *
 0001:00009080       ??_GNullNameValuePairs@CryptoPP@@UEAAPEAXI@Z 000000018000a080 f i RSACryptElectron:RSACrypt.obj
 0001:00009080       ??_E?$OAEP@VSHA1@CryptoPP@@VP1363_MGF1@2@@CryptoPP@@UEAAPEAXI@Z 000000018000a080 f i * CIL library *:* CIL module *
 0001:00009080       ??_ENullNameValuePairs@CryptoPP@@UEAAPEAXI@Z 000000018000a080 f i * CIL library *:* CIL module *
 0001:00009080       ??_EClassNullRNG@CryptoPP@@UEAAPEAXI@Z 000000018000a080 f i * CIL library *:* CIL module *
 0001:00009080       ??_EP1363_MGF1@CryptoPP@@UEAAPEAXI@Z 000000018000a080 f i * CIL library *:* CIL module *
 0001:00009080       ??_GP1363_MGF1@CryptoPP@@UEAAPEAXI@Z 000000018000a080 f i RSACryptElectron:RSACrypt.obj
 0001:00009080       ??_G?$OAEP@VSHA1@CryptoPP@@VP1363_MGF1@2@@CryptoPP@@UEAAPEAXI@Z 000000018000a080 f i RSACryptElectron:RSACrypt.obj
 0001:00009080       ??_GClassNullRNG@CryptoPP@@UEAAPEAXI@Z 000000018000a080 f i cryptlib64:cryptlib.obj
 0001:000090b0       ??0?$IteratedHashWithStaticTransform@IU?$EnumToType@W4ByteOrder@CryptoPP@@$00@CryptoPP@@$0EA@$0BE@VSHA1@2@$0A@@CryptoPP@@QEAA@AEBV01@@Z 000000018000a0b0 f i RSACryptElectron:RSACrypt.obj
 0001:000090b0       ??0?$IteratedHashWithStaticTransform@IU?$EnumToType@W4ByteOrder@CryptoPP@@$00@CryptoPP@@$0EA@$0CA@VSHA256@2@$0A@@CryptoPP@@QEAA@AEBV01@@Z 000000018000a0b0 f i RSACryptElectron:RSACrypt.obj
 0001:00009170       ??0RSAFunction@CryptoPP@@QEAA@XZ 000000018000a170 f i RSACryptElectron:RSACrypt.obj
 0001:00009210       ??0InvertibleRSAFunction@CryptoPP@@QEAA@XZ 000000018000a210 f i RSACryptElectron:RSACrypt.obj
 0001:00009360       ??_ERSAFunction@CryptoPP@@UEAAPEAXI@Z 000000018000a360 f i * CIL library *:* CIL module *
 0001:00009360       ??_GRSAFunction@CryptoPP@@UEAAPEAXI@Z 000000018000a360 f i RSACryptElectron:RSACrypt.obj
 0001:000093e0       ??_EInvertibleRSAFunction@CryptoPP@@UEAAPEAXI@Z 000000018000a3e0 f i * CIL library *:* CIL module *
 0001:000093e0       ??_GInvertibleRSAFunction@CryptoPP@@UEAAPEAXI@Z 000000018000a3e0 f i RSACryptElectron:RSACrypt.obj
 0001:00009420       ??0PKCS8PrivateKey@CryptoPP@@QEAA@XZ 000000018000a420 f i RSACryptElectron:RSACrypt.obj
 0001:000094f0       ??_EX509PublicKey@CryptoPP@@UEAAPEAXI@Z 000000018000a4f0 f i * CIL library *:* CIL module *
 0001:000094f0       ??_GX509PublicKey@CryptoPP@@UEAAPEAXI@Z 000000018000a4f0 f i RSACryptElectron:RSACrypt.obj
 0001:000094f0       ??_ECombinedNameValuePairs@CryptoPP@@UEAAPEAXI@Z 000000018000a4f0 f i * CIL library *:* CIL module *
 0001:000094f0       ??_GBitBucket@CryptoPP@@UEAAPEAXI@Z 000000018000a4f0 f i cryptlib64:cryptlib.obj
 0001:000094f0       ??_EBitBucket@CryptoPP@@UEAAPEAXI@Z 000000018000a4f0 f i * CIL library *:* CIL module *
 0001:000094f0       ??_GCombinedNameValuePairs@CryptoPP@@UEAAPEAXI@Z 000000018000a4f0 f i cryptlib64:hex.obj
 0001:00009520       ??_EPKCS8PrivateKey@CryptoPP@@UEAAPEAXI@Z 000000018000a520 f i * CIL library *:* CIL module *
 0001:00009520       ??_GPKCS8PrivateKey@CryptoPP@@UEAAPEAXI@Z 000000018000a520 f i RSACryptElectron:RSACrypt.obj
 0001:00009560       ?StaticAlgorithmName@?$TF_ES@V?$OAEP@VSHA1@CryptoPP@@VP1363_MGF1@2@@CryptoPP@@URSA@2@H@CryptoPP@@SA?AV?$basic_string@DU?$char_traits@D@std@@V?$allocator@D@2@@std@@XZ 000000018000a560 f i RSACryptElectron:RSACrypt.obj
 0001:00009780       ??0?$IteratedHashWithStaticTransform@IU?$EnumToType@W4ByteOrder@CryptoPP@@$00@CryptoPP@@$0EA@$0BE@VSHA1@2@$0A@@CryptoPP@@IEAA@XZ 000000018000a780 f i RSACryptElectron:RSACrypt.obj
 0001:00009810       ?_Tidy@?$vector@IV?$allocator@_N@std@@@std@@IEAAXXZ 000000018000a810 f i cryptlib64:nbtheory.obj
 0001:00009810       ?_Tidy@?$vector@IV?$allocator@I@std@@@std@@IEAAXXZ 000000018000a810 f i RSACryptElectron:RSACrypt.obj
 0001:00009850       ?PaddedBlockBitLength@?$TF_CryptoSystemBase@VPK_Decryptor@CryptoPP@@V?$TF_Base@VTrapdoorFunctionInverse@CryptoPP@@VPK_EncryptionMessageEncodingMethod@2@@2@@CryptoPP@@IEBA_KXZ 000000018000a850 f i RSACryptElectron:RSACrypt.obj
 0001:000098b0       ??0InputRejected@?$InputRejecting@VFilter@CryptoPP@@@CryptoPP@@QEAA@XZ 000000018000a8b0 f i RSACryptElectron:RSACrypt.obj
 0001:00009a10       ?allocate@?$AllocatorWithCleanup@E$0A@@CryptoPP@@QEAAPEAE_KPEBX@Z 000000018000aa10 f i RSACryptElectron:RSACrypt.obj
 0001:00009a90       ??0InputRejected@?$InputRejecting@VBufferedTransformation@CryptoPP@@@CryptoPP@@QEAA@XZ 000000018000aa90 f i RSACryptElectron:RSACrypt.obj
 0001:00009bf0       ?_Tidy@?$basic_string@DU?$char_traits@D@std@@V?$allocator@D@2@@std@@QEAAX_N_K@Z 000000018000abf0 f i RSACryptElectron:RSACrypt.obj
 0001:00009cb0       ?reserve@?$basic_string@DU?$char_traits@D@std@@V?$allocator@D@2@@std@@QEAAX_K@Z 000000018000acb0 f i RSACryptElectron:RSACrypt.obj
 0001:00009d60       ?assign@?$basic_string@DU?$char_traits@D@std@@V?$allocator@D@2@@std@@QEAAAEAV12@PEBD_K@Z 000000018000ad60 f i RSACryptElectron:RSACrypt.obj
 0001:00009e90       ?assign@?$basic_string@DU?$char_traits@D@std@@V?$allocator@D@2@@std@@QEAAAEAV12@AEBV12@_K1@Z 000000018000ae90 f i RSACryptElectron:RSACrypt.obj
 0001:00009fc0       ?append@?$basic_string@DU?$char_traits@D@std@@V?$allocator@D@2@@std@@QEAAAEAV12@PEBD0@Z 000000018000afc0 f i RSACryptElectron:RSACrypt.obj
 0001:0000a060       ?append@?$basic_string@DU?$char_traits@D@std@@V?$allocator@D@2@@std@@QEAAAEAV12@PEBD_K@Z 000000018000b060 f i RSACryptElectron:RSACrypt.obj
 0001:0000a1b0       ?append@?$basic_string@DU?$char_traits@D@std@@V?$allocator@D@2@@std@@QEAAAEAV12@AEBV12@_K1@Z 000000018000b1b0 f i RSACryptElectron:RSACrypt.obj
 0001:0000a2e0       ?_Assign_rv@?$basic_string@DU?$char_traits@D@std@@V?$allocator@D@2@@std@@QEAAX$$QEAV12@@Z 000000018000b2e0 f i RSACryptElectron:RSACrypt.obj
 0001:0000a360       ?StaticAlgorithmName@?$OAEP@VSHA1@CryptoPP@@VP1363_MGF1@2@@CryptoPP@@SA?AV?$basic_string@DU?$char_traits@D@std@@V?$allocator@D@2@@std@@XZ 000000018000b360 f i RSACryptElectron:RSACrypt.obj
 0001:0000a610       ?deallocate@?$_Wrap_alloc@V?$allocator@I@std@@@std@@QEAAXPEAI_K@Z 000000018000b610 f i RSACryptElectron:RSACrypt.obj
 0001:0000a680       ?Assign@?$SecBlock@EV?$AllocatorWithCleanup@E$0A@@CryptoPP@@@CryptoPP@@QEAAXAEBV12@@Z 000000018000b680 f i RSACryptElectron:RSACrypt.obj
 0001:0000a700       ?_Grow@?$basic_string@DU?$char_traits@D@std@@V?$allocator@D@2@@std@@QEAA_N_K_N@Z 000000018000b700 f i RSACryptElectron:RSACrypt.obj
 0001:0000a790       ?erase@?$basic_string@DU?$char_traits@D@std@@V?$allocator@D@2@@std@@QEAAAEAV12@_K0@Z 000000018000b790 f i RSACryptElectron:RSACrypt.obj
 0001:0000a860       ?_Copy@?$basic_string@DU?$char_traits@D@std@@V?$allocator@D@2@@std@@QEAAX_K0@Z 000000018000b860 f i RSACryptElectron:RSACrypt.obj
 0001:0000aa00       ?replace@?$basic_string@DU?$char_traits@D@std@@V?$allocator@D@2@@std@@QEAAAEAV12@_K0PEBD0@Z 000000018000ba00 f i RSACryptElectron:RSACrypt.obj
 0001:0000ac30       ?allocate@?$_Wrap_alloc@V?$allocator@D@std@@@std@@QEAAPEAD_K@Z 000000018000bc30 f i RSACryptElectron:RSACrypt.obj
 0001:0000ac90       ?replace@?$basic_string@DU?$char_traits@D@std@@V?$allocator@D@2@@std@@QEAAAEAV12@_K0AEBV12@00@Z 000000018000bc90 f i RSACryptElectron:RSACrypt.obj
 0001:0000b090       ??$?HDU?$char_traits@D@std@@V?$allocator@D@1@@std@@YA?AV?$basic_string@DU?$char_traits@D@std@@V?$allocator@D@2@@0@PEBDAEBV10@@Z 000000018000c090 f i RSACryptElectron:RSACrypt.obj
 0001:0000b170       ??$?HDU?$char_traits@D@std@@V?$allocator@D@1@@std@@YA?AV?$basic_string@DU?$char_traits@D@std@@V?$allocator@D@2@@0@$$QEAV10@PEBD@Z 000000018000c170 f i RSACryptElectron:RSACrypt.obj
 0001:0000b210       ??$?HDU?$char_traits@D@std@@V?$allocator@D@1@@std@@YA?AV?$basic_string@DU?$char_traits@D@std@@V?$allocator@D@2@@0@$$QEAV10@0@Z 000000018000c210 f i RSACryptElectron:RSACrypt.obj
 0001:0000b310       ??1?$auto_ptr@VHashTransformation@CryptoPP@@@std@@QEAA@XZ 000000018000c310 f i cryptlib64:oaep.obj
 0001:0000b310       ??1?$auto_ptr@VMaskGeneratingFunction@CryptoPP@@@std@@QEAA@XZ 000000018000c310 f i cryptlib64:oaep.obj
 0001:0000b310       ??1?$member_ptr@V?$SimpleKeyedTransformation@VBlockTransformation@CryptoPP@@@CryptoPP@@@CryptoPP@@QEAA@XZ 000000018000c310 f i RSACryptElectron:RSACrypt.obj
 0001:0000b310       ??1?$member_ptr@VBufferedTransformation@CryptoPP@@@CryptoPP@@QEAA@XZ 000000018000c310 f i RSACryptElectron:RSACrypt.obj
 0001:0000b340       ??$MakeParameters@VConstByteArrayParameter@CryptoPP@@@CryptoPP@@YA?AV?$AlgorithmParameters@VNullNameValuePairs@CryptoPP@@VConstByteArrayParameter@2@@0@PEBDAEBVConstByteArrayParameter@0@_N@Z 000000018000c340 f i RSACryptElectron:RSACrypt.obj
 0001:0000b380       ??$MakeParameters@PEBH@CryptoPP@@YA?AV?$AlgorithmParameters@VNullNameValuePairs@CryptoPP@@PEBH@0@PEBDAEBQEBH_N@Z 000000018000c380 f i RSACryptElectron:RSACrypt.obj
 0001:0000b3c0       ??$?RH@?$AlgorithmParameters@VNullNameValuePairs@CryptoPP@@PEBH@CryptoPP@@QEBA?AV?$AlgorithmParameters@V?$AlgorithmParameters@VNullNameValuePairs@CryptoPP@@PEBH@CryptoPP@@H@1@PEBDAEBH@Z 000000018000c3c0 f i RSACryptElectron:RSACrypt.obj
 0001:0000b440       ??$MakeParameters@_N@CryptoPP@@YA?AV?$AlgorithmParameters@VNullNameValuePairs@CryptoPP@@_N@0@PEBDAEB_N_N@Z 000000018000c440 f i RSACryptElectron:RSACrypt.obj
 0001:0000b480       ??$?RH@?$AlgorithmParameters@VNullNameValuePairs@CryptoPP@@_N@CryptoPP@@QEBA?AV?$AlgorithmParameters@V?$AlgorithmParameters@VNullNameValuePairs@CryptoPP@@_N@CryptoPP@@H@1@PEBDAEBH@Z 000000018000c480 f i RSACryptElectron:RSACrypt.obj
 0001:0000b500       ??$?RVConstByteArrayParameter@CryptoPP@@@?$AlgorithmParameters@V?$AlgorithmParameters@VNullNameValuePairs@CryptoPP@@_N@CryptoPP@@H@CryptoPP@@QEBA?AV?$AlgorithmParameters@V?$AlgorithmParameters@V?$AlgorithmParameters@VNullNameValuePairs@CryptoPP@@_N@CryptoPP@@H@CryptoPP@@VConstByteArrayParameter@2@@1@PEBDAEBVConstByteArrayParameter@1@@Z 000000018000c500 f i RSACryptElectron:RSACrypt.obj
 0001:0000b530       ??$?RVConstByteArrayParameter@CryptoPP@@@?$AlgorithmParameters@V?$AlgorithmParameters@V?$AlgorithmParameters@VNullNameValuePairs@CryptoPP@@_N@CryptoPP@@H@CryptoPP@@VConstByteArrayParameter@2@@CryptoPP@@QEBA?AV?$AlgorithmParameters@V?$AlgorithmParameters@V?$AlgorithmParameters@V?$AlgorithmParameters@VNullNameValuePairs@CryptoPP@@_N@CryptoPP@@H@CryptoPP@@VConstByteArrayParameter@2@@CryptoPP@@VConstByteArrayParameter@2@@1@PEBDAEBVConstByteArrayParameter@1@@Z 000000018000c530 f i RSACryptElectron:RSACrypt.obj
 0001:0000b5a0       ??1?$member_ptr@V?$basic_ofstream@DU?$char_traits@D@std@@@std@@@CryptoPP@@QEAA@XZ 000000018000c5a0 f i RSACryptElectron:RSACrypt.obj
 0001:0000b5a0       ??1?$member_ptr@V?$basic_ifstream@DU?$char_traits@D@std@@@std@@@CryptoPP@@QEAA@XZ 000000018000c5a0 f i RSACryptElectron:RSACrypt.obj
 0001:0000b5d0       ??$MakeParameters@PEBD@CryptoPP@@YA?AV?$AlgorithmParameters@VNullNameValuePairs@CryptoPP@@PEBD@0@PEBDAEBQEBD_N@Z 000000018000c5d0 f i RSACryptElectron:RSACrypt.obj
 0001:0000b610       ??$?R_N@?$AlgorithmParameters@VNullNameValuePairs@CryptoPP@@PEBD@CryptoPP@@QEBA?AV?$AlgorithmParameters@V?$AlgorithmParameters@VNullNameValuePairs@CryptoPP@@PEBD@CryptoPP@@_N@1@PEBDAEB_N@Z 000000018000c610 f i RSACryptElectron:RSACrypt.obj
 0001:0000b690       ?Ref@?$Singleton@V?$OAEP@VSHA1@CryptoPP@@VP1363_MGF1@2@@CryptoPP@@U?$NewObject@V?$OAEP@VSHA1@CryptoPP@@VP1363_MGF1@2@@CryptoPP@@@2@$0A@@CryptoPP@@QEBAAEBV?$OAEP@VSHA1@CryptoPP@@VP1363_MGF1@2@@2@XZ 000000018000c690 f i RSACryptElectron:RSACrypt.obj
 0001:0000b740       ??0?$AlgorithmParameters@V?$AlgorithmParameters@V?$AlgorithmParameters@VNullNameValuePairs@CryptoPP@@_N@CryptoPP@@H@CryptoPP@@VConstByteArrayParameter@2@@CryptoPP@@QEAA@AEBV?$AlgorithmParameters@V?$AlgorithmParameters@VNullNameValuePairs@CryptoPP@@_N@CryptoPP@@H@1@PEBDAEBVConstByteArrayParameter@1@_N@Z 000000018000c740 f i RSACryptElectron:RSACrypt.obj
 0001:0000b810       ??_G?$AlgorithmParameters@V?$AlgorithmParameters@VNullNameValuePairs@CryptoPP@@_N@CryptoPP@@H@CryptoPP@@UEAAPEAXI@Z 000000018000c810 f i RSACryptElectron:RSACrypt.obj
 0001:0000b810       ??_E?$AlgorithmParameters@V?$AlgorithmParameters@VNullNameValuePairs@CryptoPP@@PEBH@CryptoPP@@H@CryptoPP@@UEAAPEAXI@Z 000000018000c810 f i * CIL library *:* CIL module *
 0001:0000b810       ??_G?$AlgorithmParameters@V?$AlgorithmParameters@VNullNameValuePairs@CryptoPP@@PEBD@CryptoPP@@_N@CryptoPP@@UEAAPEAXI@Z 000000018000c810 f i RSACryptElectron:RSACrypt.obj
 0001:0000b810       ??_G?$AlgorithmParameters@V?$AlgorithmParameters@VNullNameValuePairs@CryptoPP@@PEBE@CryptoPP@@E@CryptoPP@@UEAAPEAXI@Z 000000018000c810 f i cryptlib64:base64.obj
 0001:0000b810       ??_E?$AlgorithmParameters@V?$AlgorithmParameters@VNullNameValuePairs@CryptoPP@@PEBE@CryptoPP@@H@CryptoPP@@UEAAPEAXI@Z 000000018000c810 f i * CIL library *:* CIL module *
 0001:0000b810       ??_E?$AlgorithmParameters@V?$AlgorithmParameters@VNullNameValuePairs@CryptoPP@@_N@CryptoPP@@H@CryptoPP@@UEAAPEAXI@Z 000000018000c810 f i * CIL library *:* CIL module *
 0001:0000b810       ??_E?$AlgorithmParameters@V?$AlgorithmParameters@VNullNameValuePairs@CryptoPP@@PEBE@CryptoPP@@E@CryptoPP@@UEAAPEAXI@Z 000000018000c810 f i * CIL library *:* CIL module *
 0001:0000b810       ??_G?$AlgorithmParameters@V?$AlgorithmParameters@VNullNameValuePairs@CryptoPP@@PEBE@CryptoPP@@H@CryptoPP@@UEAAPEAXI@Z 000000018000c810 f i cryptlib64:hex.obj
 0001:0000b810       ??_G?$AlgorithmParameters@V?$AlgorithmParameters@VNullNameValuePairs@CryptoPP@@PEBH@CryptoPP@@H@CryptoPP@@UEAAPEAXI@Z 000000018000c810 f i RSACryptElectron:RSACrypt.obj
 0001:0000b810       ??_E?$AlgorithmParameters@V?$AlgorithmParameters@VNullNameValuePairs@CryptoPP@@PEBD@CryptoPP@@_N@CryptoPP@@UEAAPEAXI@Z 000000018000c810 f i * CIL library *:* CIL module *
 0001:0000b850       ??_G?$AlgorithmParameters@VNullNameValuePairs@CryptoPP@@PEBE@CryptoPP@@UEAAPEAXI@Z 000000018000c850 f i cryptlib64:cryptlib.obj
 0001:0000b850       ??_E?$AlgorithmParameters@VNullNameValuePairs@CryptoPP@@W4RandomNumberType@Integer@2@@CryptoPP@@UEAAPEAXI@Z 000000018000c850 f i * CIL library *:* CIL module *
 0001:0000b850       ??_E?$AlgorithmParameters@VNullNameValuePairs@CryptoPP@@_N@CryptoPP@@UEAAPEAXI@Z 000000018000c850 f i * CIL library *:* CIL module *
 0001:0000b850       ??_G?$AlgorithmParameters@VNullNameValuePairs@CryptoPP@@W4RandomNumberType@Integer@2@@CryptoPP@@UEAAPEAXI@Z 000000018000c850 f i cryptlib64:rsa.obj
 0001:0000b850       ??_G?$AlgorithmParameters@VNullNameValuePairs@CryptoPP@@PEBD@CryptoPP@@UEAAPEAXI@Z 000000018000c850 f i RSACryptElectron:RSACrypt.obj
 0001:0000b850       ??_G?$AlgorithmParameters@VNullNameValuePairs@CryptoPP@@H@CryptoPP@@UEAAPEAXI@Z 000000018000c850 f i cryptlib64:cryptlib.obj
 0001:0000b850       ??_E?$AlgorithmParameters@VNullNameValuePairs@CryptoPP@@H@CryptoPP@@UEAAPEAXI@Z 000000018000c850 f i * CIL library *:* CIL module *
 0001:0000b850       ??_G?$AlgorithmParameters@VNullNameValuePairs@CryptoPP@@_N@CryptoPP@@UEAAPEAXI@Z 000000018000c850 f i RSACryptElectron:RSACrypt.obj
 0001:0000b850       ??_E?$AlgorithmParameters@VNullNameValuePairs@CryptoPP@@PEBD@CryptoPP@@UEAAPEAXI@Z 000000018000c850 f i * CIL library *:* CIL module *
 0001:0000b850       ??_E?$AlgorithmParameters@VNullNameValuePairs@CryptoPP@@PEBH@CryptoPP@@UEAAPEAXI@Z 000000018000c850 f i * CIL library *:* CIL module *
 0001:0000b850       ??_G?$AlgorithmParameters@VNullNameValuePairs@CryptoPP@@PEBH@CryptoPP@@UEAAPEAXI@Z 000000018000c850 f i RSACryptElectron:RSACrypt.obj
 0001:0000b850       ??_E?$AlgorithmParameters@VNullNameValuePairs@CryptoPP@@PEBE@CryptoPP@@UEAAPEAXI@Z 000000018000c850 f i * CIL library *:* CIL module *
 0001:0000b8d0       ??_G?$AlgorithmParameters@V?$AlgorithmParameters@V?$AlgorithmParameters@V?$AlgorithmParameters@VNullNameValuePairs@CryptoPP@@_N@CryptoPP@@H@CryptoPP@@VConstByteArrayParameter@2@@CryptoPP@@VConstByteArrayParameter@2@@CryptoPP@@UEAAPEAXI@Z 000000018000c8d0 f i RSACryptElectron:RSACrypt.obj
 0001:0000b8d0       ??_E?$AlgorithmParameters@V?$AlgorithmParameters@V?$AlgorithmParameters@V?$AlgorithmParameters@VNullNameValuePairs@CryptoPP@@_N@CryptoPP@@H@CryptoPP@@VConstByteArrayParameter@2@@CryptoPP@@VConstByteArrayParameter@2@@CryptoPP@@UEAAPEAXI@Z 000000018000c8d0 f i * CIL library *:* CIL module *
 0001:0000b930       ??_G?$AlgorithmParameters@V?$AlgorithmParameters@V?$AlgorithmParameters@VNullNameValuePairs@CryptoPP@@_N@CryptoPP@@H@CryptoPP@@VConstByteArrayParameter@2@@CryptoPP@@UEAAPEAXI@Z 000000018000c930 f i RSACryptElectron:RSACrypt.obj
 0001:0000b930       ??_E?$AlgorithmParameters@V?$AlgorithmParameters@V?$AlgorithmParameters@VNullNameValuePairs@CryptoPP@@_N@CryptoPP@@H@CryptoPP@@VConstByteArrayParameter@2@@CryptoPP@@UEAAPEAXI@Z 000000018000c930 f i * CIL library *:* CIL module *
 0001:0000b970       ??_E?$AlgorithmParameters@VNullNameValuePairs@CryptoPP@@VConstByteArrayParameter@2@@CryptoPP@@UEAAPEAXI@Z 000000018000c970 f i * CIL library *:* CIL module *
 0001:0000b970       ??_G?$AlgorithmParameters@VNullNameValuePairs@CryptoPP@@VConstByteArrayParameter@2@@CryptoPP@@UEAAPEAXI@Z 000000018000c970 f i RSACryptElectron:RSACrypt.obj
 0001:0000b9b0       ??0?$AlgorithmParameters@V?$AlgorithmParameters@V?$AlgorithmParameters@VNullNameValuePairs@CryptoPP@@_N@CryptoPP@@H@CryptoPP@@VConstByteArrayParameter@2@@CryptoPP@@QEAA@AEBV01@@Z 000000018000c9b0 f i RSACryptElectron:RSACrypt.obj
 0001:0000ba80       ??0?$AlgorithmParametersBase2@VConstByteArrayParameter@CryptoPP@@@CryptoPP@@QEAA@PEBDAEBVConstByteArrayParameter@1@_N@Z 000000018000ca80 f i RSACryptElectron:RSACrypt.obj
 0001:0000bb30       ?insert@?$basic_string@DU?$char_traits@D@std@@V?$allocator@D@2@@std@@QEAAAEAV12@_KAEBV12@00@Z 000000018000cb30 f i RSACryptElectron:RSACrypt.obj
 0001:0000bcd0       ??_G?$AlgorithmParametersBase2@PEBVPrimeSelector@CryptoPP@@@CryptoPP@@UEAAPEAXI@Z 000000018000ccd0 f i cryptlib64:rsa.obj
 0001:0000bcd0       ??_E?$AlgorithmParametersBase2@H@CryptoPP@@UEAAPEAXI@Z 000000018000ccd0 f i * CIL library *:* CIL module *
 0001:0000bcd0       ??_G?$AlgorithmParametersBase2@W4RandomNumberType@Integer@CryptoPP@@@CryptoPP@@UEAAPEAXI@Z 000000018000ccd0 f i cryptlib64:integer.obj
 0001:0000bcd0       ??_G?$AlgorithmParametersBase2@_N@CryptoPP@@UEAAPEAXI@Z 000000018000ccd0 f i RSACryptElectron:RSACrypt.obj
 0001:0000bcd0       ??_E?$AlgorithmParametersBase2@W4RandomNumberType@Integer@CryptoPP@@@CryptoPP@@UEAAPEAXI@Z 000000018000ccd0 f i * CIL library *:* CIL module *
 0001:0000bcd0       ??_G?$AlgorithmParametersBase2@E@CryptoPP@@UEAAPEAXI@Z 000000018000ccd0 f i cryptlib64:base64.obj
 0001:0000bcd0       ??_G?$AlgorithmParametersBase2@PEBE@CryptoPP@@UEAAPEAXI@Z 000000018000ccd0 f i cryptlib64:cryptlib.obj
 0001:0000bcd0       ??_E?$AlgorithmParametersBase2@PEBVPrimeSelector@CryptoPP@@@CryptoPP@@UEAAPEAXI@Z 000000018000ccd0 f i * CIL library *:* CIL module *
 0001:0000bcd0       ??_G?$AlgorithmParametersBase2@H@CryptoPP@@UEAAPEAXI@Z 000000018000ccd0 f i RSACryptElectron:RSACrypt.obj
 0001:0000bcd0       ??_E?$AlgorithmParametersBase2@PEBH@CryptoPP@@UEAAPEAXI@Z 000000018000ccd0 f i * CIL library *:* CIL module *
 0001:0000bcd0       ??_G?$AlgorithmParametersBase2@PEBD@CryptoPP@@UEAAPEAXI@Z 000000018000ccd0 f i RSACryptElectron:RSACrypt.obj
 0001:0000bcd0       ??_E?$AlgorithmParametersBase2@E@CryptoPP@@UEAAPEAXI@Z 000000018000ccd0 f i * CIL library *:* CIL module *
 0001:0000bcd0       ??_E?$AlgorithmParametersBase2@PEBE@CryptoPP@@UEAAPEAXI@Z 000000018000ccd0 f i * CIL library *:* CIL module *
 0001:0000bcd0       ??_E?$AlgorithmParametersBase2@_N@CryptoPP@@UEAAPEAXI@Z 000000018000ccd0 f i * CIL library *:* CIL module *
 0001:0000bcd0       ??_E?$AlgorithmParametersBase2@PEBD@CryptoPP@@UEAAPEAXI@Z 000000018000ccd0 f i * CIL library *:* CIL module *
 0001:0000bcd0       ??_G?$AlgorithmParametersBase2@PEBH@CryptoPP@@UEAAPEAXI@Z 000000018000ccd0 f i RSACryptElectron:RSACrypt.obj
 0001:0000bd50       ??0?$AlgorithmParametersBase2@VConstByteArrayParameter@CryptoPP@@@CryptoPP@@QEAA@AEBV01@@Z 000000018000cd50 f i RSACryptElectron:RSACrypt.obj
 0001:0000be00       ??_G?$AlgorithmParametersBase2@VConstByteArrayParameter@CryptoPP@@@CryptoPP@@UEAAPEAXI@Z 000000018000ce00 f i RSACryptElectron:RSACrypt.obj
 0001:0000be00       ??_E?$AlgorithmParametersBase2@VConstByteArrayParameter@CryptoPP@@@CryptoPP@@UEAAPEAXI@Z 000000018000ce00 f i * CIL library *:* CIL module *
 0001:0000be34       ??_EBase64Encoder@CryptoPP@@W7EAAPEAXI@Z 000000018000ce34 f i RSACryptElectron:RSACrypt.obj
 0001:0000be34       ??_EPK_EncryptorFilter@CryptoPP@@W7EAAPEAXI@Z 000000018000ce34 f i RSACryptElectron:RSACrypt.obj
 0001:0000be34       ??_EProxyFilter@CryptoPP@@W7EAAPEAXI@Z 000000018000ce34 f i cryptlib64:filters.obj
 0001:0000be34       ??_EHexEncoder@CryptoPP@@W7EAAPEAXI@Z 000000018000ce34 f i RSACryptElectron:RSACrypt.obj
 0001:0000be34       ??_EPK_DecryptorFilter@CryptoPP@@W7EAAPEAXI@Z 000000018000ce34 f i RSACryptElectron:RSACrypt.obj
 0001:0000be34       ??_ESimpleProxyFilter@CryptoPP@@W7EAAPEAXI@Z 000000018000ce34 f i RSACryptElectron:RSACrypt.obj
 0001:0000be40       ??_ERSAFunction@CryptoPP@@W7EAAPEAXI@Z 000000018000ce40 f i RSACryptElectron:RSACrypt.obj
 0001:0000be4c       ??_E?$TF_DecryptorImpl@U?$TF_CryptoSchemeOptions@V?$TF_ES@V?$OAEP@VSHA1@CryptoPP@@VP1363_MGF1@2@@CryptoPP@@URSA@2@H@CryptoPP@@URSA@2@V?$OAEP@VSHA1@CryptoPP@@VP1363_MGF1@2@@2@@CryptoPP@@@CryptoPP@@W7EAAPEAXI@Z 000000018000ce4c f i RSACryptElectron:RSACrypt.obj
 0001:0000be58       ??_EHashFilter@CryptoPP@@W7EAAPEAXI@Z 000000018000ce58 f i RSACryptElectron:RSACrypt.obj
 0001:0000be64       ??_EInvertibleRSAFunction@CryptoPP@@WHA@EAAPEAXI@Z 000000018000ce64 f i RSACryptElectron:RSACrypt.obj
 0001:0000be70       ?Load@?$ASN1CryptoMaterial@VPublicKey@CryptoPP@@@CryptoPP@@WFA@EAAXAEAVBufferedTransformation@2@@Z 000000018000ce70 f i RSACryptElectron:RSACrypt.obj
 0001:0000be7c       ??_ERSAFunction@CryptoPP@@WGI@EAAPEAXI@Z 000000018000ce7c f i RSACryptElectron:RSACrypt.obj
 0001:0000be88       ??_EPKCS8PrivateKey@CryptoPP@@WGI@EAAPEAXI@Z 000000018000ce88 f i RSACryptElectron:RSACrypt.obj
 0001:0000be94       ??_EGrouper@CryptoPP@@W7EAAPEAXI@Z 000000018000ce94 f i RSACryptElectron:RSACrypt.obj
 0001:0000bea0       ??_EInvertibleRSAFunction@CryptoPP@@WBMI@EAAPEAXI@Z 000000018000cea0 f i RSACryptElectron:RSACrypt.obj
 0001:0000beac       ??_E?$SourceTemplate@VStringStore@CryptoPP@@@CryptoPP@@W7EAAPEAXI@Z 000000018000ceac f i RSACryptElectron:RSACrypt.obj
 0001:0000beac       ??_EStringSource@CryptoPP@@W7EAAPEAXI@Z 000000018000ceac f i RSACryptElectron:RSACrypt.obj
 0001:0000beb8       ??_EBaseN_Encoder@CryptoPP@@W7EAAPEAXI@Z 000000018000ceb8 f i RSACryptElectron:RSACrypt.obj
 0001:0000beb8       ??_EBaseN_Decoder@CryptoPP@@W7EAAPEAXI@Z 000000018000ceb8 f i RSACryptElectron:RSACrypt.obj
 0001:0000beb8       ??_EHexDecoder@CryptoPP@@W7EAAPEAXI@Z 000000018000ceb8 f i RSACryptElectron:RSACrypt.obj
 0001:0000bec4       ??_EFileSink@CryptoPP@@W7EAAPEAXI@Z 000000018000cec4 f i RSACryptElectron:RSACrypt.obj
 0001:0000bed0       ?GetAlgorithmID@InvertibleRSAFunction@CryptoPP@@WGI@EBA?AVOID@2@XZ 000000018000ced0 f i RSACryptElectron:RSACrypt.obj
 0001:0000bedc       ?Load@?$ASN1CryptoMaterial@VPrivateKey@CryptoPP@@@CryptoPP@@WFA@EAAXAEAVBufferedTransformation@2@@Z 000000018000cedc f i RSACryptElectron:RSACrypt.obj
 0001:0000bee8       ??_E?$TF_EncryptorImpl@U?$TF_CryptoSchemeOptions@V?$TF_ES@V?$OAEP@VSHA1@CryptoPP@@VP1363_MGF1@2@@CryptoPP@@URSA@2@H@CryptoPP@@URSA@2@V?$OAEP@VSHA1@CryptoPP@@VP1363_MGF1@2@@2@@CryptoPP@@@CryptoPP@@W7EAAPEAXI@Z 000000018000cee8 f i RSACryptElectron:RSACrypt.obj
 0001:0000bef4       ??_EStringStore@CryptoPP@@W7EAAPEAXI@Z 000000018000cef4 f i RSACryptElectron:RSACrypt.obj
 0001:0000bf00       ?BERDecode@InvertibleRSAFunction@CryptoPP@@WGI@EAAXAEAVBufferedTransformation@2@@Z 000000018000cf00 f i RSACryptElectron:RSACrypt.obj
 0001:0000bf0c       ??_EX509PublicKey@CryptoPP@@WBA@EAAPEAXI@Z 000000018000cf0c f i RSACryptElectron:RSACrypt.obj
 0001:0000bf18       ??_EFileSource@CryptoPP@@W7EAAPEAXI@Z 000000018000cf18 f i RSACryptElectron:RSACrypt.obj
 0001:0000bf18       ??_E?$SourceTemplate@VFileStore@CryptoPP@@@CryptoPP@@W7EAAPEAXI@Z 000000018000cf18 f i RSACryptElectron:RSACrypt.obj
 0001:0000bf24       ?DEREncode@InvertibleRSAFunction@CryptoPP@@WGI@EBAXAEAVBufferedTransformation@2@@Z 000000018000cf24 f i RSACryptElectron:RSACrypt.obj
 0001:0000bf30       ??_EInvertibleRSAFunction@CryptoPP@@W7EAAPEAXI@Z 000000018000cf30 f i RSACryptElectron:RSACrypt.obj
 0001:0000bf3c       ?Save@?$ASN1CryptoMaterial@VPublicKey@CryptoPP@@@CryptoPP@@WFA@EBAXAEAVBufferedTransformation@2@@Z 000000018000cf3c f i RSACryptElectron:RSACrypt.obj
 0001:0000bf48       ?Save@?$ASN1CryptoMaterial@VPrivateKey@CryptoPP@@@CryptoPP@@WFA@EBAXAEAVBufferedTransformation@2@@Z 000000018000cf48 f i RSACryptElectron:RSACrypt.obj
 0001:0000bf54       ??_E?$StringSinkTemplate@V?$basic_string@DU?$char_traits@D@std@@V?$allocator@D@2@@std@@@CryptoPP@@W7EAAPEAXI@Z 000000018000cf54 f i RSACryptElectron:RSACrypt.obj
 0001:0000bf60       ??_EFileStore@CryptoPP@@W7EAAPEAXI@Z 000000018000cf60 f i RSACryptElectron:RSACrypt.obj
 0001:0000bf6c       ??_EInvertibleRSAFunction@CryptoPP@@WGI@EAAPEAXI@Z 000000018000cf6c f i RSACryptElectron:RSACrypt.obj
 0001:0000bf80       ??_EArraySink@CryptoPP@@UEAAPEAXI@Z 000000018000cf80 f i * CIL library *:* CIL module *
 0001:0000bf80       ??_EArrayXorSink@CryptoPP@@UEAAPEAXI@Z 000000018000cf80 f i * CIL library *:* CIL module *
 0001:0000bf80       ??_GArrayXorSink@CryptoPP@@UEAAPEAXI@Z 000000018000cf80 f i cryptlib64:pubkey.obj
 0001:0000bf80       ??_GArraySink@CryptoPP@@UEAAPEAXI@Z 000000018000cf80 f i cryptlib64:cryptlib.obj
 0001:0000bfb0       ?TheBitBucket@CryptoPP@@YAAEAVBufferedTransformation@1@XZ 000000018000cfb0 f   cryptlib64:cryptlib.obj
 0001:0000c040       ?SetKey@SimpleKeyingInterface@CryptoPP@@UEAAXPEBE_KAEBVNameValuePairs@2@@Z 000000018000d040 f   cryptlib64:cryptlib.obj
 0001:0000c0a0       ?ThrowIfInvalidKeyLength@SimpleKeyingInterface@CryptoPP@@IEAAX_K@Z 000000018000d0a0 f   cryptlib64:cryptlib.obj
 0001:0000c140       ??0InvalidKeyLength@CryptoPP@@QEAA@AEBV01@@Z 000000018000d140 f i cryptlib64:cryptlib.obj
 0001:0000c170       ?GetNextIV@SimpleKeyingInterface@CryptoPP@@UEAAXAEAVRandomNumberGenerator@2@PEAE@Z 000000018000d170 f   cryptlib64:cryptlib.obj
 0001:0000c1b0       ?ProcessAndXorMultipleBlocks@BlockTransformation@CryptoPP@@UEBAXPEBE0PEAE_K@Z 000000018000d1b0 f   cryptlib64:cryptlib.obj
 0001:0000c230       ?GenerateBit@RandomNumberGenerator@CryptoPP@@UEAAIXZ 000000018000d230 f   cryptlib64:cryptlib.obj
 0001:0000c250       ?GenerateByte@RandomNumberGenerator@CryptoPP@@UEAAEXZ 000000018000d250 f   cryptlib64:cryptlib.obj
 0001:0000c270       ?GenerateWord32@RandomNumberGenerator@CryptoPP@@UEAAIII@Z 000000018000d270 f   cryptlib64:cryptlib.obj
 0001:0000c320       ?GenerateBlock@RandomNumberGenerator@CryptoPP@@UEAAXPEAE_K@Z 000000018000d320 f   cryptlib64:cryptlib.obj
 0001:0000c390       ?DiscardBytes@RandomNumberGenerator@CryptoPP@@UEAAX_K@Z 000000018000d390 f   cryptlib64:cryptlib.obj
 0001:0000c3e0       ?GenerateIntoBufferedTransformation@RandomNumberGenerator@CryptoPP@@UEAAXAEAVBufferedTransformation@2@AEBV?$basic_string@DU?$char_traits@D@std@@V?$allocator@D@2@@std@@_K@Z 000000018000d3e0 f   cryptlib64:cryptlib.obj
 0001:0000c4d0       ??1?$FixedSizeSecBlock@E$0BAA@V?$FixedSizeAllocatorWithCleanup@E$0BAA@V?$NullAllocator@E@CryptoPP@@$0A@@CryptoPP@@@CryptoPP@@QEAA@XZ 000000018000d4d0 f i cryptlib64:cryptlib.obj
 0001:0000c500       ?AlgorithmName@ClassNullRNG@CryptoPP@@UEBA?AV?$basic_string@DU?$char_traits@D@std@@V?$allocator@D@2@@std@@XZ 000000018000d500 f i cryptlib64:cryptlib.obj
 0001:0000c570       ?GenerateBlock@ClassNullRNG@CryptoPP@@UEAAXPEAE_K@Z 000000018000d570 f i cryptlib64:cryptlib.obj
 0001:0000c650       ?NullRNG@CryptoPP@@YAAEAVRandomNumberGenerator@1@XZ 000000018000d650 f   cryptlib64:cryptlib.obj
 0001:0000c6d0       ?TruncatedVerify@HashTransformation@CryptoPP@@UEAA_NPEBE_K@Z 000000018000d6d0 f   cryptlib64:cryptlib.obj
 0001:0000c770       ?ThrowIfInvalidTruncatedSize@HashTransformation@CryptoPP@@IEBAX_K@Z 000000018000d770 f   cryptlib64:cryptlib.obj
 0001:0000c8f0       ?GetMaxWaitObjectCount@BufferedTransformation@CryptoPP@@UEBAIXZ 000000018000d8f0 f   cryptlib64:cryptlib.obj
 0001:0000c920       ?GetWaitObjects@BufferedTransformation@CryptoPP@@UEAAXAEAVWaitObjectContainer@2@AEBVCallStack@2@@Z 000000018000d920 f   cryptlib64:cryptlib.obj
 0001:0000c960       ?Initialize@BufferedTransformation@CryptoPP@@UEAAXAEBVNameValuePairs@2@H@Z 000000018000d960 f   cryptlib64:cryptlib.obj
 0001:0000c970       ?Flush@BufferedTransformation@CryptoPP@@UEAA_N_NH0@Z 000000018000d970 f   cryptlib64:cryptlib.obj
 0001:0000c980       ?MessageSeriesEnd@BufferedTransformation@CryptoPP@@UEAA_NH_N@Z 000000018000d980 f   cryptlib64:cryptlib.obj
 0001:0000c990       ?ChannelCreatePutSpace@BufferedTransformation@CryptoPP@@UEAAPEAEAEBV?$basic_string@DU?$char_traits@D@std@@V?$allocator@D@2@@std@@AEA_K@Z 000000018000d990 f   cryptlib64:cryptlib.obj
 0001:0000c9f0       ??0NoChannelSupport@BufferedTransformation@CryptoPP@@QEAA@AEBU012@@Z 000000018000d9f0 f i cryptlib64:cryptlib.obj
 0001:0000ca20       ?ChannelPut2@BufferedTransformation@CryptoPP@@UEAA_KAEBV?$basic_string@DU?$char_traits@D@std@@V?$allocator@D@2@@std@@PEBE_KH_N@Z 000000018000da20 f   cryptlib64:cryptlib.obj
 0001:0000caa0       ?ChannelPutModifiable2@BufferedTransformation@CryptoPP@@UEAA_KAEBV?$basic_string@DU?$char_traits@D@std@@V?$allocator@D@2@@std@@PEAE_KH_N@Z 000000018000daa0 f   cryptlib64:cryptlib.obj
 0001:0000cae0       ?ChannelFlush@BufferedTransformation@CryptoPP@@UEAA_NAEBV?$basic_string@DU?$char_traits@D@std@@V?$allocator@D@2@@std@@_NH1@Z 000000018000dae0 f   cryptlib64:cryptlib.obj
 0001:0000cb50       ?ChannelMessageSeriesEnd@BufferedTransformation@CryptoPP@@UEAA_NAEBV?$basic_string@DU?$char_traits@D@std@@V?$allocator@D@2@@std@@H_N@Z 000000018000db50 f   cryptlib64:cryptlib.obj
 0001:0000cbb0       ?MaxRetrievable@BufferedTransformation@CryptoPP@@UEBA_KXZ 000000018000dbb0 f   cryptlib64:cryptlib.obj
 0001:0000cc30       ?AnyRetrievable@BufferedTransformation@CryptoPP@@UEBA_NXZ 000000018000dc30 f   cryptlib64:cryptlib.obj
 0001:0000cc80       ?Get@BufferedTransformation@CryptoPP@@UEAA_KAEAE@Z 000000018000dc80 f   cryptlib64:cryptlib.obj
 0001:0000cce0       ?Get@BufferedTransformation@CryptoPP@@UEAA_KPEAE_K@Z 000000018000dce0 f   cryptlib64:cryptlib.obj
 0001:0000cdb0       ?Peek@BufferedTransformation@CryptoPP@@UEBA_KAEAE@Z 000000018000ddb0 f   cryptlib64:cryptlib.obj
 0001:0000ce10       ?Peek@BufferedTransformation@CryptoPP@@UEBA_KPEAE_K@Z 000000018000de10 f   cryptlib64:cryptlib.obj
 0001:0000cee0       ?Skip@BufferedTransformation@CryptoPP@@UEAA_K_K@Z 000000018000dee0 f   cryptlib64:cryptlib.obj
 0001:0000cf60       ?TotalBytesRetrievable@BufferedTransformation@CryptoPP@@UEBA_KXZ 000000018000df60 f   cryptlib64:cryptlib.obj
 0001:0000cfa0       ?NumberOfMessages@BufferedTransformation@CryptoPP@@UEBAIXZ 000000018000dfa0 f   cryptlib64:cryptlib.obj
 0001:0000d010       ?AnyMessages@BufferedTransformation@CryptoPP@@UEBA_NXZ 000000018000e010 f   cryptlib64:cryptlib.obj
 0001:0000d060       ?GetNextMessage@BufferedTransformation@CryptoPP@@UEAA_NXZ 000000018000e060 f   cryptlib64:cryptlib.obj
 0001:0000d0a0       ?SkipMessages@BufferedTransformation@CryptoPP@@UEAAII@Z 000000018000e0a0 f   cryptlib64:cryptlib.obj
 0001:0000d120       ?TransferMessagesTo2@BufferedTransformation@CryptoPP@@QEAA_KAEAV12@AEAIAEBV?$basic_string@DU?$char_traits@D@std@@V?$allocator@D@2@@std@@_N@Z 000000018000e120 f   cryptlib64:cryptlib.obj
 0001:0000d260       ?CopyMessagesTo@BufferedTransformation@CryptoPP@@QEBAIAEAV12@IAEBV?$basic_string@DU?$char_traits@D@std@@V?$allocator@D@2@@std@@@Z 000000018000e260 f   cryptlib64:cryptlib.obj
 0001:0000d2b0       ?SkipAll@BufferedTransformation@CryptoPP@@UEAAXXZ 000000018000e2b0 f   cryptlib64:cryptlib.obj
 0001:0000d330       ?TransferAllTo2@BufferedTransformation@CryptoPP@@QEAA_KAEAV12@AEBV?$basic_string@DU?$char_traits@D@std@@V?$allocator@D@2@@std@@_N@Z 000000018000e330 f   cryptlib64:cryptlib.obj
 0001:0000d500       ?SetRetrievalChannel@BufferedTransformation@CryptoPP@@UEAAXAEBV?$basic_string@DU?$char_traits@D@std@@V?$allocator@D@2@@std@@@Z 000000018000e500 f   cryptlib64:cryptlib.obj
 0001:0000d550       ?Attach@BufferedTransformation@CryptoPP@@UEAAXPEAV12@@Z 000000018000e550 f   cryptlib64:cryptlib.obj
 0001:0000d5d0       ??0PK_DefaultEncryptionFilter@CryptoPP@@QEAA@AEAVRandomNumberGenerator@1@AEBVPK_Encryptor@1@PEAVBufferedTransformation@1@AEBVNameValuePairs@1@@Z 000000018000e5d0 f i cryptlib64:cryptlib.obj
 0001:0000d6b0       ?Put2@PK_DefaultEncryptionFilter@CryptoPP@@UEAA_KPEBE_KH_N@Z 000000018000e6b0 f i cryptlib64:cryptlib.obj
 0001:0000d840       ??_EPK_DefaultEncryptionFilter@CryptoPP@@UEAAPEAXI@Z 000000018000e840 f i * CIL library *:* CIL module *
 0001:0000d840       ??_GPK_DefaultEncryptionFilter@CryptoPP@@UEAAPEAXI@Z 000000018000e840 f i cryptlib64:cryptlib.obj
 0001:0000d8d0       ?CreateEncryptionFilter@PK_Encryptor@CryptoPP@@UEBAPEAVBufferedTransformation@2@AEAVRandomNumberGenerator@2@PEAV32@AEBVNameValuePairs@2@@Z 000000018000e8d0 f   cryptlib64:cryptlib.obj
 0001:0000d940       ??0PK_DefaultDecryptionFilter@CryptoPP@@QEAA@AEAVRandomNumberGenerator@1@AEBVPK_Decryptor@1@PEAVBufferedTransformation@1@AEBVNameValuePairs@1@@Z 000000018000e940 f i cryptlib64:cryptlib.obj
 0001:0000da30       ?Put2@PK_DefaultDecryptionFilter@CryptoPP@@UEAA_KPEBE_KH_N@Z 000000018000ea30 f i cryptlib64:cryptlib.obj
 0001:0000dcf0       ??_EPK_DefaultDecryptionFilter@CryptoPP@@UEAAPEAXI@Z 000000018000ecf0 f i * CIL library *:* CIL module *
 0001:0000dcf0       ??_GPK_DefaultDecryptionFilter@CryptoPP@@UEAAPEAXI@Z 000000018000ecf0 f i cryptlib64:cryptlib.obj
 0001:0000dd80       ??0InvalidCiphertext@CryptoPP@@QEAA@AEBV01@@Z 000000018000ed80 f i cryptlib64:cryptlib.obj
 0001:0000ddb0       ?CreateDecryptionFilter@PK_Decryptor@CryptoPP@@UEBAPEAVBufferedTransformation@2@AEAVRandomNumberGenerator@2@PEAV32@AEBVNameValuePairs@2@@Z 000000018000edb0 f   cryptlib64:cryptlib.obj
 0001:0000de20       ?AssignValue@?$AlgorithmParametersBase2@PEBE@CryptoPP@@UEBAXPEBDAEBVtype_info@@PEAX@Z 000000018000ee20 f i cryptlib64:cryptlib.obj
 0001:0000deb0       ?resize@?$SecBlock@EV?$AllocatorWithCleanup@E$0A@@CryptoPP@@@CryptoPP@@QEAAX_K@Z 000000018000eeb0 f i cryptlib64:cryptlib.obj
 0001:0000df50       ??$?HDU?$char_traits@D@std@@V?$allocator@D@1@@std@@YA?AV?$basic_string@DU?$char_traits@D@std@@V?$allocator@D@2@@0@PEBD$$QEAV10@@Z 000000018000ef50 f i cryptlib64:cryptlib.obj
 0001:0000dfe0       ??$MakeParameters@H@CryptoPP@@YA?AV?$AlgorithmParameters@VNullNameValuePairs@CryptoPP@@H@0@PEBDAEBH_N@Z 000000018000efe0 f i cryptlib64:cryptlib.obj
 0001:0000e020       ??$MakeParameters@PEBE@CryptoPP@@YA?AV?$AlgorithmParameters@VNullNameValuePairs@CryptoPP@@PEBE@0@PEBDAEBQEBE_N@Z 000000018000f020 f i cryptlib64:cryptlib.obj
 0001:0000e060       ?insert@?$basic_string@DU?$char_traits@D@std@@V?$allocator@D@2@@std@@QEAAAEAV12@_KPEBD0@Z 000000018000f060 f i cryptlib64:cryptlib.obj
 0001:0000e1e0       ??_EPK_DefaultEncryptionFilter@CryptoPP@@W7EAAPEAXI@Z 000000018000f1e0 f i cryptlib64:cryptlib.obj
 0001:0000e1ec       ??_EBitBucket@CryptoPP@@W7EAAPEAXI@Z 000000018000f1ec f i cryptlib64:cryptlib.obj
 0001:0000e1f8       ??_EArrayXorSink@CryptoPP@@W7EAAPEAXI@Z 000000018000f1f8 f i cryptlib64:pubkey.obj
 0001:0000e1f8       ??_EArraySink@CryptoPP@@W7EAAPEAXI@Z 000000018000f1f8 f i cryptlib64:cryptlib.obj
 0001:0000e204       ??_EPK_DefaultDecryptionFilter@CryptoPP@@W7EAAPEAXI@Z 000000018000f204 f i cryptlib64:cryptlib.obj
 0001:0000e210       ?AlgorithmName@BitBucket@CryptoPP@@UEBA?AV?$basic_string@DU?$char_traits@D@std@@V?$allocator@D@2@@std@@XZ 000000018000f210 f i cryptlib64:cryptlib.obj
 0001:0000e280       ?IncorporateEntropy@RandomNumberGenerator@CryptoPP@@UEAAXPEBE_K@Z 000000018000f280 f i cryptlib64:cryptlib.obj
 0001:0000e360       ??0NoChannelSupport@BufferedTransformation@CryptoPP@@QEAA@XZ 000000018000f360 f i cryptlib64:cryptlib.obj
 0001:0000e4e0       ??$IntToString@I@CryptoPP@@YA?AV?$basic_string@DU?$char_traits@D@std@@V?$allocator@D@2@@std@@II@Z 000000018000f4e0 f i cryptlib64:cryptlib.obj
 0001:0000e7d0       ?_Chassign@?$basic_string@DU?$char_traits@D@std@@V?$allocator@D@2@@std@@QEAAX_K0D@Z 000000018000f7d0 f i cryptlib64:cryptlib.obj
 0001:0000e800       ?append@?$basic_string@DU?$char_traits@D@std@@V?$allocator@D@2@@std@@QEAAAEAV12@_KD@Z 000000018000f800 f i cryptlib64:cryptlib.obj
 0001:0000e910       ??Y?$basic_string@DU?$char_traits@D@std@@V?$allocator@D@2@@std@@QEAAAEAV01@D@Z 000000018000f910 f i cryptlib64:cryptlib.obj
 0001:0000ea00       ??$?HDU?$char_traits@D@std@@V?$allocator@D@1@@std@@YA?AV?$basic_string@DU?$char_traits@D@std@@V?$allocator@D@2@@0@DAEBV10@@Z 000000018000fa00 f i cryptlib64:cryptlib.obj
 0001:0000eaa0       ??$IntToString@_K@CryptoPP@@YA?AV?$basic_string@DU?$char_traits@D@std@@V?$allocator@D@2@@std@@_KI@Z 000000018000faa0 f i cryptlib64:cryptlib.obj
 0001:0000eda0       ??0InvalidKeyLength@CryptoPP@@QEAA@AEBV?$basic_string@DU?$char_traits@D@std@@V?$allocator@D@2@@std@@_K@Z 000000018000fda0 f i cryptlib64:cryptlib.obj
 0001:0000f040       ?IsolatedInitialize@BufferedTransformation@CryptoPP@@UEAAXAEBVNameValuePairs@2@@Z 0000000180010040 f i cryptlib64:cryptlib.obj
 0001:0000f120       ??$?HDU?$char_traits@D@std@@V?$allocator@D@1@@std@@YA?AV?$basic_string@DU?$char_traits@D@std@@V?$allocator@D@2@@0@AEBV10@PEBD@Z 0000000180010120 f i cryptlib64:cryptlib.obj
 0001:0000f200       ?NextPutModifiable@FilterWithBufferedInput@CryptoPP@@MEAAXPEAE_K@Z 0000000180010200 f i cryptlib64:filters.obj
 0001:0000f210       ??0BlockingInputOnly@BufferedTransformation@CryptoPP@@QEAA@AEBU012@@Z 0000000180010210 f i cryptlib64:filters.obj
 0001:0000f240       ?CreatePutSpace@OutputProxy@CryptoPP@@UEAAPEAEAEA_K@Z 0000000180010240 f i cryptlib64:filters.obj
 0001:0000f270       ?Put2@OutputProxy@CryptoPP@@UEAA_KPEBE_KH_N@Z 0000000180010270 f i cryptlib64:filters.obj
 0001:0000f2e0       ?PutModifiable2@OutputProxy@CryptoPP@@UEAA_KPEAE_KH_N@Z 00000001800102e0 f i cryptlib64:filters.obj
 0001:0000f350       ?Initialize@OutputProxy@CryptoPP@@UEAAXAEBVNameValuePairs@2@H@Z 0000000180010350 f i cryptlib64:filters.obj
 0001:0000f390       ?Flush@OutputProxy@CryptoPP@@UEAA_N_NH0@Z 0000000180010390 f i cryptlib64:filters.obj
 0001:0000f400       ?MessageSeriesEnd@OutputProxy@CryptoPP@@UEAA_NH_N@Z 0000000180010400 f i cryptlib64:filters.obj
 0001:0000f450       ?ChannelPut2@OutputProxy@CryptoPP@@UEAA_KAEBV?$basic_string@DU?$char_traits@D@std@@V?$allocator@D@2@@std@@PEBE_KH_N@Z 0000000180010450 f i cryptlib64:filters.obj
 0001:0000f4d0       ?ChannelPutModifiable2@OutputProxy@CryptoPP@@UEAA_KAEBV?$basic_string@DU?$char_traits@D@std@@V?$allocator@D@2@@std@@PEAE_KH_N@Z 00000001800104d0 f i cryptlib64:filters.obj
 0001:0000f550       ?ChannelFlush@OutputProxy@CryptoPP@@UEAA_NAEBV?$basic_string@DU?$char_traits@D@std@@V?$allocator@D@2@@std@@_NH1@Z 0000000180010550 f i cryptlib64:filters.obj
 0001:0000f5c0       ?ChannelMessageSeriesEnd@OutputProxy@CryptoPP@@UEAA_NAEBV?$basic_string@DU?$char_traits@D@std@@V?$allocator@D@2@@std@@H_N@Z 00000001800105c0 f i cryptlib64:filters.obj
 0001:0000f630       ??_GOutputProxy@CryptoPP@@UEAAPEAXI@Z 0000000180010630 f i cryptlib64:filters.obj
 0001:0000f630       ??_EOutputProxy@CryptoPP@@UEAAPEAXI@Z 0000000180010630 f i * CIL library *:* CIL module *
 0001:0000f660       ?NewDefaultAttachment@Filter@CryptoPP@@MEBAPEAVBufferedTransformation@2@XZ 0000000180010660 f   cryptlib64:filters.obj
 0001:0000f690       ?AttachedTransformation@Filter@CryptoPP@@UEBAPEBVBufferedTransformation@2@XZ 0000000180010690 f   cryptlib64:filters.obj
 0001:0000f690       ?AttachedTransformation@Filter@CryptoPP@@UEAAPEAVBufferedTransformation@2@XZ 0000000180010690 f   cryptlib64:filters.obj
 0001:0000f6f0       ?Detach@Filter@CryptoPP@@UEAAXPEAVBufferedTransformation@2@@Z 00000001800106f0 f   cryptlib64:filters.obj
 0001:0000f730       ?CopyRangeTo2@Filter@CryptoPP@@UEBA_KAEAVBufferedTransformation@2@AEA_K_KAEBV?$basic_string@DU?$char_traits@D@std@@V?$allocator@D@2@@std@@_N@Z 0000000180010730 f   cryptlib64:filters.obj
 0001:0000f780       ?TransferTo2@Filter@CryptoPP@@UEAA_KAEAVBufferedTransformation@2@AEA_KAEBV?$basic_string@DU?$char_traits@D@std@@V?$allocator@D@2@@std@@_N@Z 0000000180010780 f   cryptlib64:filters.obj
 0001:0000f7d0       ?Initialize@Filter@CryptoPP@@UEAAXAEBVNameValuePairs@2@H@Z 00000001800107d0 f   cryptlib64:filters.obj
 0001:0000f830       ?Flush@Filter@CryptoPP@@UEAA_N_NH0@Z 0000000180010830 f   cryptlib64:filters.obj
 0001:0000f8b0       ?MessageSeriesEnd@Filter@CryptoPP@@UEAA_NH_N@Z 00000001800108b0 f   cryptlib64:filters.obj
 0001:0000f930       ?Output@Filter@CryptoPP@@IEAA_KHPEBE_KH_NAEBV?$basic_string@DU?$char_traits@D@std@@V?$allocator@D@2@@std@@@Z 0000000180010930 f   cryptlib64:filters.obj
 0001:0000f9b0       ?OutputFlush@Filter@CryptoPP@@IEAA_NH_NH0AEBV?$basic_string@DU?$char_traits@D@std@@V?$allocator@D@2@@std@@@Z 00000001800109b0 f   cryptlib64:filters.obj
 0001:0000fa40       ?OutputMessageSeriesEnd@Filter@CryptoPP@@IEAA_NHH_NAEBV?$basic_string@DU?$char_traits@D@std@@V?$allocator@D@2@@std@@@Z 0000000180010a40 f   cryptlib64:filters.obj
 0001:0000fac0       ?ResetQueue@BlockQueue@FilterWithBufferedInput@CryptoPP@@QEAAX_K0@Z 0000000180010ac0 f   cryptlib64:filters.obj
 0001:0000fb50       ?GetBlock@BlockQueue@FilterWithBufferedInput@CryptoPP@@QEAAPEAEXZ 0000000180010b50 f   cryptlib64:filters.obj
 0001:0000fba0       ?GetContigousBlocks@BlockQueue@FilterWithBufferedInput@CryptoPP@@QEAAPEAEAEA_K@Z 0000000180010ba0 f   cryptlib64:filters.obj
 0001:0000fc10       ?GetAll@BlockQueue@FilterWithBufferedInput@CryptoPP@@QEAA_KPEAE@Z 0000000180010c10 f   cryptlib64:filters.obj
 0001:0000fcc0       ?Put@BlockQueue@FilterWithBufferedInput@CryptoPP@@QEAAXPEBE_K@Z 0000000180010cc0 f   cryptlib64:filters.obj
 0001:0000fd50       ??_EFilterWithBufferedInput@CryptoPP@@UEAAPEAXI@Z 0000000180010d50 f i * CIL library *:* CIL module *
 0001:0000fd50       ??_GFilterWithBufferedInput@CryptoPP@@UEAAPEAXI@Z 0000000180010d50 f i cryptlib64:filters.obj
 0001:0000fdd0       ??0FilterWithBufferedInput@CryptoPP@@QEAA@_K00PEAVBufferedTransformation@1@@Z 0000000180010dd0 f   cryptlib64:filters.obj
 0001:0000ff40       ?IsolatedInitialize@FilterWithBufferedInput@CryptoPP@@UEAAXAEBVNameValuePairs@2@@Z 0000000180010f40 f   cryptlib64:filters.obj
 0001:00010090       ?IsolatedFlush@FilterWithBufferedInput@CryptoPP@@UEAA_N_N0@Z 0000000180011090 f   cryptlib64:filters.obj
 0001:00010150       ?PutMaybeModifiable@FilterWithBufferedInput@CryptoPP@@AEAA_KPEAE_KH_N2@Z 0000000180011150 f   cryptlib64:filters.obj
 0001:000105f0       ?ForceNextPut@FilterWithBufferedInput@CryptoPP@@QEAAXXZ 00000001800115f0 f   cryptlib64:filters.obj
 0001:00010720       ?NextPutMultiple@FilterWithBufferedInput@CryptoPP@@MEAAXPEBE_K@Z 0000000180011720 f   cryptlib64:filters.obj
 0001:00010770       ??0ProxyFilter@CryptoPP@@QEAA@PEAVBufferedTransformation@1@_K10@Z 0000000180011770 f   cryptlib64:filters.obj
 0001:00010820       ?IsolatedFlush@ProxyFilter@CryptoPP@@UEAA_N_N0@Z 0000000180011820 f   cryptlib64:filters.obj
 0001:00010840       ?NextPutMultiple@ProxyFilter@CryptoPP@@UEAAXPEBE_K@Z 0000000180011840 f   cryptlib64:filters.obj
 0001:00010870       ?NextPutModifiable@ProxyFilter@CryptoPP@@UEAAXPEAE_K@Z 0000000180011870 f   cryptlib64:filters.obj
 0001:000108a0       ?Put2@ArraySink@CryptoPP@@UEAA_KPEBE_KH_N@Z 00000001800118a0 f   cryptlib64:filters.obj
 0001:00010910       ?CreatePutSpace@ArraySink@CryptoPP@@UEAAPEAEAEA_K@Z 0000000180011910 f   cryptlib64:filters.obj
 0001:00010940       ?IsolatedInitialize@ArraySink@CryptoPP@@UEAAXAEBVNameValuePairs@2@@Z 0000000180011940 f   cryptlib64:filters.obj
 0001:00010a90       ?Put2@ArrayXorSink@CryptoPP@@UEAA_KPEBE_KH_N@Z 0000000180011a90 f   cryptlib64:filters.obj
 0001:00010ae0       ?IsolatedInitialize@HashFilter@CryptoPP@@UEAAXAEBVNameValuePairs@2@@Z 0000000180011ae0 f   cryptlib64:filters.obj
 0001:00010b60       ?Put2@HashFilter@CryptoPP@@UEAA_KPEBE_KH_N@Z 0000000180011b60 f   cryptlib64:filters.obj
 0001:00010d00       ?GetNextMessage@Store@CryptoPP@@UEAA_NXZ 0000000180011d00 f   cryptlib64:filters.obj
 0001:00010d30       ?StoreInitialize@StringStore@CryptoPP@@EEAAXAEBVNameValuePairs@2@@Z 0000000180011d30 f   cryptlib64:filters.obj
 0001:00010ec0       ?TransferTo2@StringStore@CryptoPP@@UEAA_KAEAVBufferedTransformation@2@AEA_KAEBV?$basic_string@DU?$char_traits@D@std@@V?$allocator@D@2@@std@@_N@Z 0000000180011ec0 f   cryptlib64:filters.obj
 0001:00010f10       ?CopyRangeTo2@StringStore@CryptoPP@@UEBA_KAEAVBufferedTransformation@2@AEA_K_KAEBV?$basic_string@DU?$char_traits@D@std@@V?$allocator@D@2@@std@@_N@Z 0000000180011f10 f   cryptlib64:filters.obj
 0001:00010f9c       ??_EFilterWithBufferedInput@CryptoPP@@W7EAAPEAXI@Z 0000000180011f9c f i cryptlib64:filters.obj
 0001:00010fa8       ??_EOutputProxy@CryptoPP@@W7EAAPEAXI@Z 0000000180011fa8 f i cryptlib64:filters.obj
 0001:00010fc0       ?GetRequiredIntParameter@NameValuePairs@CryptoPP@@QEBAXPEBD0AEAH@Z 0000000180011fc0 f i cryptlib64:filters.obj
 0001:00011140       ??0BlockingInputOnly@BufferedTransformation@CryptoPP@@QEAA@AEBV?$basic_string@DU?$char_traits@D@std@@V?$allocator@D@2@@std@@@Z 0000000180012140 f i cryptlib64:filters.obj
 0001:00011240       ?MaxRetrievable@ByteQueue@CryptoPP@@UEBA_KXZ 0000000180012240 f i cryptlib64:queue.obj
 0001:00011270       ?AnyRetrievable@ByteQueue@CryptoPP@@UEBA_NXZ 0000000180012270 f i cryptlib64:queue.obj
 0001:000112a0       ?MaxRetrievable@Walker@ByteQueue@CryptoPP@@UEBA_KXZ 00000001800122a0 f i cryptlib64:queue.obj
 0001:000112d0       ??_EWalker@ByteQueue@CryptoPP@@UEAAPEAXI@Z 00000001800122d0 f i * CIL library *:* CIL module *
 0001:000112d0       ??_GWalker@ByteQueue@CryptoPP@@UEAAPEAXI@Z 00000001800122d0 f i cryptlib64:queue.obj
 0001:00011300       ??0ByteQueueNode@CryptoPP@@QEAA@_K@Z 0000000180012300 f i cryptlib64:queue.obj
 0001:00011350       ??0ByteQueue@CryptoPP@@QEAA@_K@Z 0000000180012350 f   cryptlib64:queue.obj
 0001:000113f0       ??_GByteQueue@CryptoPP@@UEAAPEAXI@Z 00000001800123f0 f i cryptlib64:queue.obj
 0001:000113f0       ??_EByteQueue@CryptoPP@@UEAAPEAXI@Z 00000001800123f0 f i * CIL library *:* CIL module *
 0001:00011430       ?CopyFrom@ByteQueue@CryptoPP@@AEAAXAEBV12@@Z 0000000180012430 f   cryptlib64:queue.obj
 0001:000115f0       ??1ByteQueue@CryptoPP@@UEAA@XZ 00000001800125f0 f   cryptlib64:queue.obj
 0001:00011670       ?IsolatedInitialize@ByteQueue@CryptoPP@@UEAAXAEBVNameValuePairs@2@@Z 0000000180012670 f   cryptlib64:queue.obj
 0001:000116c0       ?Clear@ByteQueue@CryptoPP@@QEAAXXZ 00000001800126c0 f   cryptlib64:queue.obj
 0001:00011760       ?Put2@ByteQueue@CryptoPP@@UEAA_KPEBE_KH_N@Z 0000000180012760 f   cryptlib64:queue.obj
 0001:00011920       ?CleanupUsedNodes@ByteQueue@CryptoPP@@AEAAXXZ 0000000180012920 f   cryptlib64:queue.obj
 0001:000119c0       ?Get@ByteQueue@CryptoPP@@UEAA_KAEAE@Z 00000001800129c0 f   cryptlib64:queue.obj
 0001:00011a40       ?Get@ByteQueue@CryptoPP@@UEAA_KPEAE_K@Z 0000000180012a40 f   cryptlib64:queue.obj
 0001:00011a40       ?Get@Walker@ByteQueue@CryptoPP@@UEAA_KPEAE_K@Z 0000000180012a40 f   cryptlib64:queue.obj
 0001:00011ad0       ?Peek@ByteQueue@CryptoPP@@UEBA_KAEAE@Z 0000000180012ad0 f   cryptlib64:queue.obj
 0001:00011b10       ?Peek@ByteQueue@CryptoPP@@UEBA_KPEAE_K@Z 0000000180012b10 f   cryptlib64:queue.obj
 0001:00011b10       ?Peek@Walker@ByteQueue@CryptoPP@@UEBA_KPEAE_K@Z 0000000180012b10 f   cryptlib64:queue.obj
 0001:00011ba0       ?TransferTo2@ByteQueue@CryptoPP@@UEAA_KAEAVBufferedTransformation@2@AEA_KAEBV?$basic_string@DU?$char_traits@D@std@@V?$allocator@D@2@@std@@_N@Z 0000000180012ba0 f   cryptlib64:queue.obj
 0001:00011d20       ?CopyRangeTo2@ByteQueue@CryptoPP@@UEBA_KAEAVBufferedTransformation@2@AEA_K_KAEBV?$basic_string@DU?$char_traits@D@std@@V?$allocator@D@2@@std@@_N@Z 0000000180012d20 f   cryptlib64:queue.obj
 0001:00011e40       ?CreatePutSpace@ByteQueue@CryptoPP@@UEAAPEAEAEA_K@Z 0000000180012e40 f   cryptlib64:queue.obj
 0001:00011f20       ??4ByteQueue@CryptoPP@@QEAAAEAV01@AEBV01@@Z 0000000180012f20 f   cryptlib64:queue.obj
 0001:00011fb0       ?IsolatedInitialize@Walker@ByteQueue@CryptoPP@@UEAAXAEBVNameValuePairs@3@@Z 0000000180012fb0 f   cryptlib64:queue.obj
 0001:00011fe0       ?Get@Walker@ByteQueue@CryptoPP@@UEAA_KAEAE@Z 0000000180012fe0 f   cryptlib64:queue.obj
 0001:00012070       ?Peek@Walker@ByteQueue@CryptoPP@@UEBA_KAEAE@Z 0000000180013070 f   cryptlib64:queue.obj
 0001:00012100       ?TransferTo2@Walker@ByteQueue@CryptoPP@@UEAA_KAEAVBufferedTransformation@3@AEA_KAEBV?$basic_string@DU?$char_traits@D@std@@V?$allocator@D@2@@std@@_N@Z 0000000180013100 f   cryptlib64:queue.obj
 0001:00012220       ?CopyRangeTo2@Walker@ByteQueue@CryptoPP@@UEBA_KAEAVBufferedTransformation@3@AEA_K_KAEBV?$basic_string@DU?$char_traits@D@std@@V?$allocator@D@2@@std@@_N@Z 0000000180013220 f   cryptlib64:queue.obj
 0001:00012354       ??_EByteQueue@CryptoPP@@W7EAAPEAXI@Z 0000000180013354 f i cryptlib64:queue.obj
 0001:00012360       ??_EWalker@ByteQueue@CryptoPP@@W7EAAPEAXI@Z 0000000180013360 f i cryptlib64:queue.obj
 0001:00012370       ??0DivideByZero@Integer@CryptoPP@@QEAA@XZ 0000000180013370 f i cryptlib64:integer.obj
 0001:000124e0       ??0RandomNumberNotFound@Integer@CryptoPP@@QEAA@XZ 00000001800134e0 f i cryptlib64:integer.obj
 0001:00012650       ??XInteger@CryptoPP@@QEAAAEAV01@AEBV01@@Z 0000000180013650 f i cryptlib64:integer.obj
 0001:000126c0       ??5Integer@CryptoPP@@QEBA?AV01@_K@Z 00000001800136c0 f i cryptlib64:integer.obj
 0001:00012740       ??6Integer@CryptoPP@@QEBA?AV01@_K@Z 0000000180013740 f i cryptlib64:integer.obj
 0001:000127c0       ?Doubled@Integer@CryptoPP@@QEBA?AV12@XZ 00000001800137c0 f i cryptlib64:integer.obj
 0001:000127f0       ?Squared@Integer@CryptoPP@@QEBA?AV12@XZ 00000001800137f0 f i cryptlib64:integer.obj
 0001:00012820       ??0RandomNumberNotFound@Integer@CryptoPP@@QEAA@AEBV012@@Z 0000000180013820 f i cryptlib64:integer.obj
 0001:00012850       ??8CryptoPP@@YA_NAEBVInteger@0@0@Z 0000000180013850 f i cryptlib64:integer.obj
 0001:000128b0       ??OCryptoPP@@YA_NAEBVInteger@0@0@Z 00000001800138b0 f i cryptlib64:integer.obj
 0001:00012910       ??MCryptoPP@@YA_NAEBVInteger@0@0@Z 0000000180013910 f i cryptlib64:integer.obj
 0001:00012960       ??HCryptoPP@@YA?AVInteger@0@AEBV10@0@Z 0000000180013960 f i cryptlib64:integer.obj
 0001:00012990       ??GCryptoPP@@YA?AVInteger@0@AEBV10@0@Z 0000000180013990 f i cryptlib64:integer.obj
 0001:000129c0       ??DCryptoPP@@YA?AVInteger@0@AEBV10@0@Z 00000001800139c0 f i cryptlib64:integer.obj
 0001:000129f0       ??KCryptoPP@@YA?AVInteger@0@AEBV10@0@Z 00000001800139f0 f i cryptlib64:integer.obj
 0001:00012a20       ??LCryptoPP@@YA?AVInteger@0@AEBV10@0@Z 0000000180013a20 f i cryptlib64:integer.obj
 0001:00012a50       ??0ModularArithmetic@CryptoPP@@QEAA@AEBVInteger@1@@Z 0000000180013a50 f i cryptlib64:integer.obj
 0001:00012b40       ??0ModularArithmetic@CryptoPP@@QEAA@AEBV01@@Z 0000000180013b40 f i cryptlib64:integer.obj
 0001:00012c30       ?Clone@ModularArithmetic@CryptoPP@@UEBAPEAV12@XZ 0000000180013c30 f i cryptlib64:integer.obj
 0001:00012c70       ?ConvertIn@ModularArithmetic@CryptoPP@@UEBA?AVInteger@2@AEBV32@@Z 0000000180013c70 f i cryptlib64:integer.obj
 0001:00012ca0       ?ConvertOut@ModularArithmetic@CryptoPP@@UEBA?AVInteger@2@AEBV32@@Z 0000000180013ca0 f i cryptlib64:integer.obj
 0001:00012cd0       ?Equal@ModularArithmetic@CryptoPP@@UEBA_NAEBVInteger@2@0@Z 0000000180013cd0 f i cryptlib64:integer.obj
 0001:00012cd0       ?Equal@?$EuclideanDomainOf@VInteger@CryptoPP@@@CryptoPP@@UEBA_NAEBVInteger@2@0@Z 0000000180013cd0 f i cryptlib64:integer.obj
 0001:00012d40       ?Identity@?$EuclideanDomainOf@VInteger@CryptoPP@@@CryptoPP@@UEBAAEBVInteger@2@XZ 0000000180013d40 f i cryptlib64:integer.obj
 0001:00012d40       ?Identity@ModularArithmetic@CryptoPP@@UEBAAEBVInteger@2@XZ 0000000180013d40 f i cryptlib64:integer.obj
 0001:00012d50       ?Double@ModularArithmetic@CryptoPP@@UEBAAEBVInteger@2@AEBV32@@Z 0000000180013d50 f i cryptlib64:integer.obj
 0001:00012d60       ?MultiplicativeIdentity@?$EuclideanDomainOf@VInteger@CryptoPP@@@CryptoPP@@UEBAAEBVInteger@2@XZ 0000000180013d60 f i cryptlib64:integer.obj
 0001:00012d60       ?MultiplicativeIdentity@ModularArithmetic@CryptoPP@@UEBAAEBVInteger@2@XZ 0000000180013d60 f i cryptlib64:integer.obj
 0001:00012d70       ?Multiply@ModularArithmetic@CryptoPP@@UEBAAEBVInteger@2@AEBV32@0@Z 0000000180013d70 f i cryptlib64:integer.obj
 0001:00012e20       ?Square@ModularArithmetic@CryptoPP@@UEBAAEBVInteger@2@AEBV32@@Z 0000000180013e20 f i cryptlib64:integer.obj
 0001:00012ed0       ?IsUnit@ModularArithmetic@CryptoPP@@UEBA_NAEBVInteger@2@@Z 0000000180013ed0 f i cryptlib64:integer.obj
 0001:00012f60       ?MultiplicativeInverse@ModularArithmetic@CryptoPP@@UEBAAEBVInteger@2@AEBV32@@Z 0000000180013f60 f i cryptlib64:integer.obj
 0001:00012fd0       ?Divide@ModularArithmetic@CryptoPP@@UEBAAEBVInteger@2@AEBV32@0@Z 0000000180013fd0 f i cryptlib64:integer.obj
 0001:00013010       ??_EModularArithmetic@CryptoPP@@UEAAPEAXI@Z 0000000180014010 f i * CIL library *:* CIL module *
 0001:00013010       ??_GModularArithmetic@CryptoPP@@UEAAPEAXI@Z 0000000180014010 f i cryptlib64:integer.obj
 0001:00013050       ??1ModularArithmetic@CryptoPP@@UEAA@XZ 0000000180014050 f i cryptlib64:integer.obj
 0001:000130d0       ?Clone@MontgomeryRepresentation@CryptoPP@@UEBAPEAVModularArithmetic@2@XZ 00000001800140d0 f i cryptlib64:integer.obj
 0001:00013110       ?ConvertIn@MontgomeryRepresentation@CryptoPP@@UEBA?AVInteger@2@AEBV32@@Z 0000000180014110 f i cryptlib64:integer.obj
 0001:00013190       ?MultiplicativeIdentity@MontgomeryRepresentation@CryptoPP@@UEBAAEBVInteger@2@XZ 0000000180014190 f i cryptlib64:integer.obj
 0001:000132c0       ?CascadeExponentiate@MontgomeryRepresentation@CryptoPP@@UEBA?AVInteger@2@AEBV32@000@Z 00000001800142c0 f i cryptlib64:integer.obj
 0001:00013300       ?SimultaneousExponentiate@?$AbstractRing@VInteger@CryptoPP@@@CryptoPP@@UEBAXPEAVInteger@2@AEBV32@PEBV32@I@Z 0000000180014300 f i cryptlib64:dll.obj
 0001:00013300       ?SimultaneousExponentiate@MontgomeryRepresentation@CryptoPP@@UEBAXPEAVInteger@2@AEBV32@PEBV32@I@Z 0000000180014300 f i cryptlib64:integer.obj
 0001:00013350       ??0MontgomeryRepresentation@CryptoPP@@QEAA@AEBV01@@Z 0000000180014350 f i cryptlib64:integer.obj
 0001:00013400       ??_GMontgomeryRepresentation@CryptoPP@@UEAAPEAXI@Z 0000000180014400 f i cryptlib64:integer.obj
 0001:00013400       ??_EMontgomeryRepresentation@CryptoPP@@UEAAPEAXI@Z 0000000180014400 f i * CIL library *:* CIL module *
 0001:00013490       ??1MontgomeryRepresentation@CryptoPP@@UEAA@XZ 0000000180014490 f i cryptlib64:integer.obj
 0001:00013500       ?BERDecodeError@CryptoPP@@YAXXZ 0000000180014500 f i cryptlib64:integer.obj
 0001:00013530       ??0BERDecodeErr@CryptoPP@@QEAA@AEBV01@@Z 0000000180014530 f i cryptlib64:integer.obj
 0001:00013560       ??YOID@CryptoPP@@QEAAAEAV01@I@Z 0000000180014560 f i cryptlib64:integer.obj
 0001:00013600       ??_GBERGeneralDecoder@CryptoPP@@UEAAPEAXI@Z 0000000180014600 f i cryptlib64:asn.obj
 0001:00013600       ??_EBERGeneralDecoder@CryptoPP@@UEAAPEAXI@Z 0000000180014600 f i * CIL library *:* CIL module *
 0001:00013600       ??_EBERSequenceDecoder@CryptoPP@@UEAAPEAXI@Z 0000000180014600 f i * CIL library *:* CIL module *
 0001:00013600       ??_GBERSequenceDecoder@CryptoPP@@UEAAPEAXI@Z 0000000180014600 f i cryptlib64:integer.obj
 0001:00013640       ??1BERSequenceDecoder@CryptoPP@@UEAA@XZ 0000000180014640 f i cryptlib64:integer.obj
 0001:00013650       ??_EDERGeneralEncoder@CryptoPP@@UEAAPEAXI@Z 0000000180014650 f i * CIL library *:* CIL module *
 0001:00013650       ??_GDERSequenceEncoder@CryptoPP@@UEAAPEAXI@Z 0000000180014650 f i cryptlib64:integer.obj
 0001:00013650       ??_GDERGeneralEncoder@CryptoPP@@UEAAPEAXI@Z 0000000180014650 f i cryptlib64:asn.obj
 0001:00013650       ??_EDERSequenceEncoder@CryptoPP@@UEAAPEAXI@Z 0000000180014650 f i * CIL library *:* CIL module *
 0001:00013690       ??1DERSequenceEncoder@CryptoPP@@UEAA@XZ 0000000180014690 f i cryptlib64:integer.obj
 0001:000136a0       ??HCryptoPP@@YA?AVOID@0@AEBV10@K@Z 00000001800146a0 f i cryptlib64:integer.obj
 0001:00013710       ?iso@ASN1@CryptoPP@@YA?AVOID@2@XZ 0000000180014710 f i cryptlib64:integer.obj
 0001:00013750       ?member_body@ASN1@CryptoPP@@YA?AVOID@2@XZ 0000000180014750 f i cryptlib64:integer.obj
 0001:000137b0       ?iso_us@ASN1@CryptoPP@@YA?AVOID@2@XZ 00000001800147b0 f i cryptlib64:integer.obj
 0001:00013810       ?AssignIntToInteger@CryptoPP@@YA_NAEBVtype_info@@PEAXPEBX@Z 0000000180014810 f   cryptlib64:integer.obj
 0001:00013a10       ??KDWord@CryptoPP@@QEAA_K_K@Z 0000000180014a10 f i cryptlib64:integer.obj
 0001:00013b50       ??LDWord@CryptoPP@@QEAA_K_K@Z 0000000180014b50 f i cryptlib64:integer.obj
 0001:00013cb0       ?Baseline_Multiply2@CryptoPP@@YAXPEA_KPEB_K1@Z 0000000180014cb0 f   cryptlib64:integer.obj
 0001:00013d30       ?Baseline_Multiply4@CryptoPP@@YAXPEA_KPEB_K1@Z 0000000180014d30 f   cryptlib64:integer.obj
 0001:00013f20       ?Baseline_Multiply8@CryptoPP@@YAXPEA_KPEB_K1@Z 0000000180014f20 f   cryptlib64:integer.obj
 0001:00014650       ?Baseline_Square2@CryptoPP@@YAXPEA_KPEB_K@Z 0000000180015650 f   cryptlib64:integer.obj
 0001:000146c0       ?Baseline_Square4@CryptoPP@@YAXPEA_KPEB_K@Z 00000001800156c0 f   cryptlib64:integer.obj
 0001:00014860       ?Baseline_Square8@CryptoPP@@YAXPEA_KPEB_K@Z 0000000180015860 f   cryptlib64:integer.obj
 0001:00014d80       ?Baseline_MultiplyBottom2@CryptoPP@@YAXPEA_KPEB_K1@Z 0000000180015d80 f   cryptlib64:integer.obj
 0001:00014db0       ?Baseline_MultiplyBottom4@CryptoPP@@YAXPEA_KPEB_K1@Z 0000000180015db0 f   cryptlib64:integer.obj
 0001:00014e90       ?Baseline_MultiplyBottom8@CryptoPP@@YAXPEA_KPEB_K1@Z 0000000180015e90 f   cryptlib64:integer.obj
 0001:00015200       ?Baseline_MultiplyTop2@CryptoPP@@YAXPEA_KPEB_K1_K@Z 0000000180016200 f   cryptlib64:integer.obj
 0001:00015290       ?Baseline_MultiplyTop4@CryptoPP@@YAXPEA_KPEB_K1_K@Z 0000000180016290 f   cryptlib64:integer.obj
 0001:00015450       ?Baseline_MultiplyTop8@CryptoPP@@YAXPEA_KPEB_K1_K@Z 0000000180016450 f   cryptlib64:integer.obj
 0001:00015950       ?Baseline_Multiply16@CryptoPP@@YAXPEA_KPEB_K1@Z 0000000180016950 f   cryptlib64:integer.obj
 0001:00017720       ?Baseline_Square16@CryptoPP@@YAXPEA_KPEB_K@Z 0000000180018720 f   cryptlib64:integer.obj
 0001:00018880       ?Baseline_MultiplyBottom16@CryptoPP@@YAXPEA_KPEB_K1@Z 0000000180019880 f   cryptlib64:integer.obj
 0001:00019610       ?Baseline_MultiplyTop16@CryptoPP@@YAXPEA_KPEB_K1_K@Z 000000018001a610 f   cryptlib64:integer.obj
 0001:0001a760       ?RecursiveMultiply@CryptoPP@@YAXPEA_K0PEB_K1_K@Z 000000018001b760 f   cryptlib64:integer.obj
 0001:0001aad0       ?RecursiveSquare@CryptoPP@@YAXPEA_K0PEB_K_K@Z 000000018001bad0 f   cryptlib64:integer.obj
 0001:0001abe0       ?RecursiveMultiplyBottom@CryptoPP@@YAXPEA_K0PEB_K1_K@Z 000000018001bbe0 f   cryptlib64:integer.obj
 0001:0001acc0       ?MultiplyTop@CryptoPP@@YAXPEA_K0PEB_K11_K@Z 000000018001bcc0 f   cryptlib64:integer.obj
 0001:0001b060       ?AsymmetricMultiply@CryptoPP@@YAXPEA_K0PEB_K_K12@Z 000000018001c060 f   cryptlib64:integer.obj
 0001:0001b3f0       ?RecursiveInverseModPower2@CryptoPP@@YAXPEA_K0PEB_K_K@Z 000000018001c3f0 f   cryptlib64:integer.obj
 0001:0001b5b0       ?MontgomeryReduce@CryptoPP@@YAXPEA_K00PEB_K1_K@Z 000000018001c5b0 f   cryptlib64:integer.obj
 0001:0001b740       ?Divide@CryptoPP@@YAXPEA_K00PEB_K_K12@Z 000000018001c740 f   cryptlib64:integer.obj
 0001:0001bbb0       ?AlmostInverse@CryptoPP@@YAIPEA_K0PEB_K_K12@Z 000000018001cbb0 f   cryptlib64:integer.obj
 0001:0001bf70       ?DivideByPower2Mod@CryptoPP@@YAXPEA_KPEB_K_K12@Z 000000018001cf70 f   cryptlib64:integer.obj
 0001:0001c070       ?MultiplyByPower2Mod@CryptoPP@@YAXPEA_KPEB_K_K12@Z 000000018001d070 f   cryptlib64:integer.obj
 0001:0001c1a0       ??0Integer@CryptoPP@@QEAA@XZ 000000018001d1a0 f   cryptlib64:integer.obj
 0001:0001c280       ??_GInteger@CryptoPP@@UEAAPEAXI@Z 000000018001d280 f i cryptlib64:integer.obj
 0001:0001c280       ??_EInteger@CryptoPP@@UEAAPEAXI@Z 000000018001d280 f i * CIL library *:* CIL module *
 0001:0001c2e0       ??0Integer@CryptoPP@@QEAA@AEBV01@@Z 000000018001d2e0 f   cryptlib64:integer.obj
 0001:0001c3a0       ??0Integer@CryptoPP@@QEAA@J@Z 000000018001d3a0 f   cryptlib64:integer.obj
 0001:0001c4a0       ?Power2@Integer@CryptoPP@@SA?AV12@_K@Z 000000018001d4a0 f   cryptlib64:integer.obj
 0001:0001c530       ??4Integer@CryptoPP@@QEAAAEAV01@AEBV01@@Z 000000018001d530 f   cryptlib64:integer.obj
 0001:0001c5d0       ??GInteger@CryptoPP@@QEBA?AV01@XZ 000000018001d5d0 f   cryptlib64:integer.obj
 0001:0001c640       ?AbsoluteValue@Integer@CryptoPP@@QEBA?AV12@XZ 000000018001d640 f   cryptlib64:integer.obj
 0001:0001c670       ??0Integer@CryptoPP@@AEAA@_K0@Z 000000018001d670 f   cryptlib64:integer.obj
 0001:0001c710       ?ByteCount@Integer@CryptoPP@@QEBAIXZ 000000018001d710 f   cryptlib64:integer.obj
 0001:0001c780       ?BitCount@Integer@CryptoPP@@QEBAIXZ 000000018001d780 f   cryptlib64:integer.obj
 0001:0001c7f0       ?Decode@Integer@CryptoPP@@QEAAXPEBE_KW4Signedness@12@@Z 000000018001d7f0 f   cryptlib64:integer.obj
 0001:0001c8e0       ?Decode@Integer@CryptoPP@@QEAAXAEAVBufferedTransformation@2@_KW4Signedness@12@@Z 000000018001d8e0 f   cryptlib64:integer.obj
 0001:0001ca60       ?MinEncodedSize@Integer@CryptoPP@@QEBA_KW4Signedness@12@@Z 000000018001da60 f   cryptlib64:integer.obj
 0001:0001cbd0       ?Encode@Integer@CryptoPP@@QEBAXPEAE_KW4Signedness@12@@Z 000000018001dbd0 f   cryptlib64:integer.obj
 0001:0001cc40       ?Encode@Integer@CryptoPP@@QEBAXAEAVBufferedTransformation@2@_KW4Signedness@12@@Z 000000018001dc40 f   cryptlib64:integer.obj
 0001:0001cda0       ?DEREncode@Integer@CryptoPP@@UEBAXAEAVBufferedTransformation@2@@Z 000000018001dda0 f   cryptlib64:integer.obj
 0001:0001cec0       ?BERDecode@Integer@CryptoPP@@UEAAXAEAVBufferedTransformation@2@@Z 000000018001dec0 f   cryptlib64:integer.obj
 0001:0001d000       ?Randomize@Integer@CryptoPP@@QEAAXAEAVRandomNumberGenerator@2@_K@Z 000000018001e000 f   cryptlib64:integer.obj
 0001:0001d0b0       ?Randomize@Integer@CryptoPP@@QEAAXAEAVRandomNumberGenerator@2@AEBV12@1@Z 000000018001e0b0 f   cryptlib64:integer.obj
 0001:0001d2d0       ??1?$AlgorithmParametersBase2@VInteger@CryptoPP@@@CryptoPP@@UEAA@XZ 000000018001e2d0 f i cryptlib64:integer.obj
 0001:0001d360       ??0KDF2_RNG@CryptoPP@@QEAA@PEBE_K@Z 000000018001e360 f i cryptlib64:integer.obj
 0001:0001d3d0       ?GenerateBlock@KDF2_RNG@CryptoPP@@UEAAXPEAE_K@Z 000000018001e3d0 f i cryptlib64:integer.obj
 0001:0001d410       ??_GKDF2_RNG@CryptoPP@@UEAAPEAXI@Z 000000018001e410 f i cryptlib64:integer.obj
 0001:0001d410       ??_EKDF2_RNG@CryptoPP@@UEAAPEAXI@Z 000000018001e410 f i * CIL library *:* CIL module *
 0001:0001d470       ?GenerateRandomNoThrow@Integer@CryptoPP@@QEAA_NAEAVRandomNumberGenerator@2@AEBVNameValuePairs@2@@Z 000000018001e470 f   cryptlib64:integer.obj
 0001:0001e650       ??EInteger@CryptoPP@@QEAAAEAV01@XZ 000000018001f650 f   cryptlib64:integer.obj
 0001:0001e770       ??FInteger@CryptoPP@@QEAAAEAV01@XZ 000000018001f770 f   cryptlib64:integer.obj
 0001:0001e880       ?PositiveAdd@CryptoPP@@YAXAEAVInteger@1@AEBV21@1@Z 000000018001f880 f   cryptlib64:integer.obj
 0001:0001ea10       ?PositiveSubtract@CryptoPP@@YAXAEAVInteger@1@AEBV21@1@Z 000000018001fa10 f   cryptlib64:integer.obj
 0001:0001ec40       ?Plus@Integer@CryptoPP@@QEBA?AV12@AEBV12@@Z 000000018001fc40 f   cryptlib64:integer.obj
 0001:0001ecf0       ??YInteger@CryptoPP@@QEAAAEAV01@AEBV01@@Z 000000018001fcf0 f   cryptlib64:integer.obj
 0001:0001ed80       ?Minus@Integer@CryptoPP@@QEBA?AV12@AEBV12@@Z 000000018001fd80 f   cryptlib64:integer.obj
 0001:0001ee30       ??ZInteger@CryptoPP@@QEAAAEAV01@AEBV01@@Z 000000018001fe30 f   cryptlib64:integer.obj
 0001:0001eec0       ??_3Integer@CryptoPP@@QEAAAEAV01@_K@Z 000000018001fec0 f   cryptlib64:integer.obj
 0001:0001f010       ??_2Integer@CryptoPP@@QEAAAEAV01@_K@Z 0000000180020010 f   cryptlib64:integer.obj
 0001:0001f140       ?PositiveMultiply@CryptoPP@@YAXAEAVInteger@1@AEBV21@1@Z 0000000180020140 f   cryptlib64:integer.obj
 0001:0001f280       ?Multiply@CryptoPP@@YAXAEAVInteger@1@AEBV21@1@Z 0000000180020280 f   cryptlib64:integer.obj
 0001:0001f300       ?Times@Integer@CryptoPP@@QEBA?AV12@AEBV12@@Z 0000000180020300 f   cryptlib64:integer.obj
 0001:0001f360       ?PositiveDivide@CryptoPP@@YAXAEAVInteger@1@0AEBV21@1@Z 0000000180020360 f   cryptlib64:integer.obj
 0001:0001f5b0       ??0DivideByZero@Integer@CryptoPP@@QEAA@AEBV012@@Z 00000001800205b0 f i cryptlib64:integer.obj
 0001:0001f5e0       ?Divide@Integer@CryptoPP@@SAXAEAV12@0AEBV12@1@Z 00000001800205e0 f   cryptlib64:integer.obj
 0001:0001f7f0       ?DividedBy@Integer@CryptoPP@@QEBA?AV12@AEBV12@@Z 00000001800207f0 f   cryptlib64:integer.obj
 0001:0001f890       ?Modulo@Integer@CryptoPP@@QEBA?AV12@AEBV12@@Z 0000000180020890 f   cryptlib64:integer.obj
 0001:0001f930       ?Modulo@Integer@CryptoPP@@QEBA_K_K@Z 0000000180020930 f   cryptlib64:integer.obj
 0001:0001fa90       ?PositiveCompare@Integer@CryptoPP@@AEBAHAEBV12@@Z 0000000180020a90 f   cryptlib64:integer.obj
 0001:0001fb40       ?SquareRoot@Integer@CryptoPP@@QEBA?AV12@XZ 0000000180020b40 f   cryptlib64:integer.obj
 0001:00020010       ?IsSquare@Integer@CryptoPP@@QEBA_NXZ 0000000180021010 f   cryptlib64:integer.obj
 0001:000200f0       ?MultiplicativeInverse@Integer@CryptoPP@@QEBA?AV12@XZ 00000001800210f0 f   cryptlib64:integer.obj
 0001:00020160       ?a_exp_b_mod_c@CryptoPP@@YA?AVInteger@1@AEBV21@00@Z 0000000180021160 f   cryptlib64:integer.obj
 0001:00020240       ?Gcd@Integer@CryptoPP@@SA?AV12@AEBV12@0@Z 0000000180021240 f   cryptlib64:integer.obj
 0001:00020330       ??1?$AbstractEuclideanDomain@VInteger@CryptoPP@@@CryptoPP@@UEAA@XZ 0000000180021330 f i cryptlib64:integer.obj
 0001:00020360       ?InverseMod@Integer@CryptoPP@@QEBA?AV12@AEBV12@@Z 0000000180021360 f   cryptlib64:integer.obj
 0001:00020890       ?InverseMod@Integer@CryptoPP@@QEBA_K_K@Z 0000000180021890 f   cryptlib64:integer.obj
 0001:00020920       ?Add@ModularArithmetic@CryptoPP@@UEBAAEBVInteger@2@AEBV32@0@Z 0000000180021920 f   cryptlib64:integer.obj
 0001:00020aa0       ?Accumulate@ModularArithmetic@CryptoPP@@UEBAAEAVInteger@2@AEAV32@AEBV32@@Z 0000000180021aa0 f   cryptlib64:integer.obj
 0001:00020bf0       ?Subtract@ModularArithmetic@CryptoPP@@UEBAAEBVInteger@2@AEBV32@0@Z 0000000180021bf0 f   cryptlib64:integer.obj
 0001:00020cc0       ?Reduce@ModularArithmetic@CryptoPP@@UEBAAEAVInteger@2@AEAV32@AEBV32@@Z 0000000180021cc0 f   cryptlib64:integer.obj
 0001:00020d50       ?Inverse@ModularArithmetic@CryptoPP@@UEBAAEBVInteger@2@AEBV32@@Z 0000000180021d50 f   cryptlib64:integer.obj
 0001:00020e40       ?CascadeExponentiate@ModularArithmetic@CryptoPP@@UEBA?AVInteger@2@AEBV32@000@Z 0000000180021e40 f   cryptlib64:integer.obj
 0001:00021060       ?SimultaneousExponentiate@ModularArithmetic@CryptoPP@@UEBAXPEAVInteger@2@AEBV32@PEBV32@I@Z 0000000180022060 f   cryptlib64:integer.obj
 0001:00021280       ??0MontgomeryRepresentation@CryptoPP@@QEAA@AEBVInteger@1@@Z 0000000180022280 f   cryptlib64:integer.obj
 0001:00021490       ?Multiply@MontgomeryRepresentation@CryptoPP@@UEBAAEBVInteger@2@AEBV32@0@Z 0000000180022490 f   cryptlib64:integer.obj
 0001:00021560       ?Square@MontgomeryRepresentation@CryptoPP@@UEBAAEBVInteger@2@AEBV32@@Z 0000000180022560 f   cryptlib64:integer.obj
 0001:00021610       ?ConvertOut@MontgomeryRepresentation@CryptoPP@@UEBA?AVInteger@2@AEBV32@@Z 0000000180022610 f   cryptlib64:integer.obj
 0001:000216d0       ?MultiplicativeInverse@MontgomeryRepresentation@CryptoPP@@UEBAAEBVInteger@2@AEBV32@@Z 00000001800226d0 f   cryptlib64:integer.obj
 0001:000217d0       ?DivisionAlgorithm@?$EuclideanDomainOf@VInteger@CryptoPP@@@CryptoPP@@UEBAXAEAVInteger@2@0AEBV32@1@Z 00000001800227d0 f i cryptlib64:integer.obj
 0001:000217f0       ?Mod@?$EuclideanDomainOf@VInteger@CryptoPP@@@CryptoPP@@UEBAAEBVInteger@2@AEBV32@0@Z 00000001800227f0 f i cryptlib64:integer.obj
 0001:00021860       ?Divide@?$EuclideanDomainOf@VInteger@CryptoPP@@@CryptoPP@@UEBAAEBVInteger@2@AEBV32@0@Z 0000000180022860 f i cryptlib64:integer.obj
 0001:000218d0       ?MultiplicativeInverse@?$EuclideanDomainOf@VInteger@CryptoPP@@@CryptoPP@@UEBAAEBVInteger@2@AEBV32@@Z 00000001800228d0 f i cryptlib64:integer.obj
 0001:00021940       ?IsUnit@?$EuclideanDomainOf@VInteger@CryptoPP@@@CryptoPP@@UEBA_NAEBVInteger@2@@Z 0000000180022940 f i cryptlib64:integer.obj
 0001:00021980       ?Square@?$EuclideanDomainOf@VInteger@CryptoPP@@@CryptoPP@@UEBAAEBVInteger@2@AEBV32@@Z 0000000180022980 f i cryptlib64:integer.obj
 0001:000219f0       ?Multiply@?$EuclideanDomainOf@VInteger@CryptoPP@@@CryptoPP@@UEBAAEBVInteger@2@AEBV32@0@Z 00000001800229f0 f i cryptlib64:integer.obj
 0001:00021a60       ?Double@?$EuclideanDomainOf@VInteger@CryptoPP@@@CryptoPP@@UEBAAEBVInteger@2@AEBV32@@Z 0000000180022a60 f i cryptlib64:integer.obj
 0001:00021ad0       ?Reduce@?$EuclideanDomainOf@VInteger@CryptoPP@@@CryptoPP@@UEBAAEAVInteger@2@AEAV32@AEBV32@@Z 0000000180022ad0 f i cryptlib64:integer.obj
 0001:00021ae0       ?Subtract@?$EuclideanDomainOf@VInteger@CryptoPP@@@CryptoPP@@UEBAAEBVInteger@2@AEBV32@0@Z 0000000180022ae0 f i cryptlib64:integer.obj
 0001:00021b50       ?Inverse@?$EuclideanDomainOf@VInteger@CryptoPP@@@CryptoPP@@UEBAAEBVInteger@2@AEBV32@@Z 0000000180022b50 f i cryptlib64:integer.obj
 0001:00021bc0       ?Accumulate@?$EuclideanDomainOf@VInteger@CryptoPP@@@CryptoPP@@UEBAAEAVInteger@2@AEAV32@AEBV32@@Z 0000000180022bc0 f i cryptlib64:integer.obj
 0001:00021bd0       ?Add@?$EuclideanDomainOf@VInteger@CryptoPP@@@CryptoPP@@UEBAAEBVInteger@2@AEBV32@0@Z 0000000180022bd0 f i cryptlib64:integer.obj
 0001:00021c40       ?DeriveKey@?$P1363_KDF2@VSHA1@CryptoPP@@@CryptoPP@@SAXPEAE_KPEBE121@Z 0000000180022c40 f i cryptlib64:integer.obj
 0001:00021d80       ?AssignValue@?$AlgorithmParametersBase2@W4RandomNumberType@Integer@CryptoPP@@@CryptoPP@@UEBAXPEBDAEBVtype_info@@PEAX@Z 0000000180022d80 f i cryptlib64:integer.obj
 0001:00021e10       ?AssignValue@?$AlgorithmParametersBase2@VInteger@CryptoPP@@@CryptoPP@@UEBAXPEBDAEBVtype_info@@PEAX@Z 0000000180022e10 f i cryptlib64:integer.obj
 0001:00021ea0       ??0?$vector@IV?$allocator@I@std@@@std@@QEAA@AEBV01@@Z 0000000180022ea0 f i cryptlib64:integer.obj
 0001:00021f60       ?SimultaneousMultiply@MultiplicativeGroupT@?$AbstractRing@VInteger@CryptoPP@@@CryptoPP@@UEBAXPEAVInteger@3@AEBV43@PEBV43@I@Z 0000000180022f60 f i cryptlib64:integer.obj
 0001:00021f70       ?CascadeScalarMultiply@MultiplicativeGroupT@?$AbstractRing@VInteger@CryptoPP@@@CryptoPP@@UEBA?AVInteger@3@AEBV43@000@Z 0000000180022f70 f i cryptlib64:integer.obj
 0001:00021fb0       ?ScalarMultiply@MultiplicativeGroupT@?$AbstractRing@VInteger@CryptoPP@@@CryptoPP@@UEBA?AVInteger@3@AEBV43@0@Z 0000000180022fb0 f i cryptlib64:integer.obj
 0001:00021fe0       ?Double@MultiplicativeGroupT@?$AbstractRing@VInteger@CryptoPP@@@CryptoPP@@UEBAAEBVInteger@3@AEBV43@@Z 0000000180022fe0 f i cryptlib64:integer.obj
 0001:00021ff0       ?Reduce@MultiplicativeGroupT@?$AbstractRing@VInteger@CryptoPP@@@CryptoPP@@UEBAAEAVInteger@3@AEAV43@AEBV43@@Z 0000000180022ff0 f i cryptlib64:integer.obj
 0001:00022020       ?Subtract@MultiplicativeGroupT@?$AbstractRing@VInteger@CryptoPP@@@CryptoPP@@UEBAAEBVInteger@3@AEBV43@0@Z 0000000180023020 f i cryptlib64:integer.obj
 0001:00022030       ?Inverse@MultiplicativeGroupT@?$AbstractRing@VInteger@CryptoPP@@@CryptoPP@@UEBAAEBVInteger@3@AEBV43@@Z 0000000180023030 f i cryptlib64:integer.obj
 0001:00022040       ?Accumulate@MultiplicativeGroupT@?$AbstractRing@VInteger@CryptoPP@@@CryptoPP@@UEBAAEAVInteger@3@AEAV43@AEBV43@@Z 0000000180023040 f i cryptlib64:integer.obj
 0001:00022070       ?Add@MultiplicativeGroupT@?$AbstractRing@VInteger@CryptoPP@@@CryptoPP@@UEBAAEBVInteger@3@AEBV43@0@Z 0000000180023070 f i cryptlib64:integer.obj
 0001:00022080       ?Identity@MultiplicativeGroupT@?$AbstractRing@VInteger@CryptoPP@@@CryptoPP@@UEBAAEBVInteger@3@XZ 0000000180023080 f i cryptlib64:integer.obj
 0001:00022090       ?Equal@MultiplicativeGroupT@?$AbstractRing@VInteger@CryptoPP@@@CryptoPP@@UEBA_NAEBVInteger@3@0@Z 0000000180023090 f i cryptlib64:integer.obj
 0001:000220a0       ?MultiplicativeGroup@?$AbstractRing@VInteger@CryptoPP@@@CryptoPP@@UEBAAEBV?$AbstractGroup@VInteger@CryptoPP@@@2@XZ 00000001800230a0 f i cryptlib64:integer.obj
 0001:000220b0       ?CleanGrow@?$SecBlock@_KV?$AllocatorWithCleanup@_K$0A@@CryptoPP@@@CryptoPP@@QEAAX_K@Z 00000001800230b0 f i cryptlib64:integer.obj
 0001:00022180       ?New@?$SecBlock@_KV?$AllocatorWithCleanup@_K$0A@@CryptoPP@@@CryptoPP@@QEAAX_K@Z 0000000180023180 f i cryptlib64:integer.obj
 0001:00022210       ?read@?$basic_istream@DU?$char_traits@D@std@@@std@@QEAAAEAV12@PEAD_J@Z 0000000180023210 f i cryptlib64:integer.obj
 0001:00022300       ??_E?$EuclideanDomainOf@VInteger@CryptoPP@@@CryptoPP@@UEAAPEAXI@Z 0000000180023300 f i * CIL library *:* CIL module *
 0001:00022300       ??_G?$EuclideanDomainOf@VInteger@CryptoPP@@@CryptoPP@@UEAAPEAXI@Z 0000000180023300 f i cryptlib64:integer.obj
 0001:00022380       ??1sentry@?$basic_istream@DU?$char_traits@D@std@@@std@@QEAA@XZ 0000000180023380 f i cryptlib64:integer.obj
 0001:000223b0       ??_EMultiplicativeGroupT@?$AbstractRing@VInteger@CryptoPP@@@CryptoPP@@UEAAPEAXI@Z 00000001800233b0 f i * CIL library *:* CIL module *
 0001:000223b0       ??_GMultiplicativeGroupT@?$AbstractRing@VInteger@CryptoPP@@@CryptoPP@@UEAAPEAXI@Z 00000001800233b0 f i cryptlib64:integer.obj
 0001:000223e0       ??1_Sentry_base@?$basic_istream@DU?$char_traits@D@std@@@std@@QEAA@XZ 00000001800233e0 f i cryptlib64:integer.obj
 0001:000223e0       ??1_Sentry_base@?$basic_ostream@DU?$char_traits@D@std@@@std@@QEAA@XZ 00000001800233e0 f i cryptlib64:integer.obj
 0001:00022410       ?_Reserve@?$vector@IV?$allocator@I@std@@@std@@IEAAX_K@Z 0000000180023410 f i cryptlib64:integer.obj
 0001:000224a0       ?_Construct_n@?$vector@IV?$allocator@I@std@@@std@@QEAAX_KPEBI@Z 00000001800234a0 f i cryptlib64:integer.obj
 0001:00022520       ?allocate@?$AllocatorWithCleanup@_K$0A@@CryptoPP@@QEAAPEA_K_KPEBX@Z 0000000180023520 f i cryptlib64:integer.obj
 0001:000225a0       ?allocate@?$_Wrap_alloc@V?$allocator@I@std@@@std@@QEAAPEAI_K@Z 00000001800235a0 f i cryptlib64:integer.obj
 0001:00022610       ?_Reallocate@?$vector@IV?$allocator@_N@std@@@std@@IEAAX_K@Z 0000000180023610 f i cryptlib64:nbtheory.obj
 0001:00022610       ?_Reallocate@?$vector@IV?$allocator@I@std@@@std@@IEAAX_K@Z 0000000180023610 f i cryptlib64:integer.obj
 0001:000226f0       ?CheckSize@?$AllocatorBase@_K@CryptoPP@@KAX_K@Z 00000001800236f0 f i cryptlib64:integer.obj
 0001:00022810       ?_Ipfx@?$basic_istream@DU?$char_traits@D@std@@@std@@QEAA_N_N@Z 0000000180023810 f i cryptlib64:integer.obj
 0001:00022880       ?_Pnavail@?$basic_streambuf@DU?$char_traits@D@std@@@std@@IEBA_JXZ 0000000180023880 f i cryptlib64:integer.obj
 0001:000228a0       ?_Gnavail@?$basic_streambuf@DU?$char_traits@D@std@@@std@@IEBA_JXZ 00000001800238a0 f i cryptlib64:integer.obj
 0001:000228c0       ?flush@?$basic_ostream@DU?$char_traits@D@std@@@std@@QEAAAEAV12@XZ 00000001800238c0 f i cryptlib64:integer.obj
 0001:000229a0       ??1sentry@?$basic_ostream@DU?$char_traits@D@std@@@std@@QEAA@XZ 00000001800239a0 f i cryptlib64:integer.obj
 0001:000229f0       ??0sentry@?$basic_ostream@DU?$char_traits@D@std@@@std@@QEAA@AEAV12@@Z 00000001800239f0 f i cryptlib64:integer.obj
 0001:00022a70       ?_Osfx@?$basic_ostream@DU?$char_traits@D@std@@@std@@QEAAXXZ 0000000180023a70 f i cryptlib64:integer.obj
 0001:00022ae0       ?Ref@?$Singleton@VInteger@CryptoPP@@U?$NewObject@VInteger@CryptoPP@@@2@$0A@@CryptoPP@@QEBAAEBVInteger@2@XZ 0000000180023ae0 f i cryptlib64:integer.obj
 0001:00022ba0       ?Ref@?$Singleton@VInteger@CryptoPP@@U?$NewInteger@$00@2@$0A@@CryptoPP@@QEBAAEBVInteger@2@XZ 0000000180023ba0 f i cryptlib64:integer.obj
 0001:00022c60       ?Ref@?$Singleton@VInteger@CryptoPP@@U?$NewInteger@$01@2@$0A@@CryptoPP@@QEBAAEBVInteger@2@XZ 0000000180023c60 f i cryptlib64:integer.obj
 0001:00022d20       ??$GetValueWithDefault@VInteger@CryptoPP@@@NameValuePairs@CryptoPP@@QEBA?AVInteger@1@PEBDV21@@Z 0000000180023d20 f i cryptlib64:integer.obj
 0001:00022da0       ??1?$member_ptr@VKDF2_RNG@CryptoPP@@@CryptoPP@@QEAA@XZ 0000000180023da0 f i cryptlib64:integer.obj
 0001:00022dc0       ??$DEREncodeUnsigned@W4RandomNumberType@Integer@CryptoPP@@@CryptoPP@@YA_KAEAVBufferedTransformation@0@W4RandomNumberType@Integer@0@E@Z 0000000180023dc0 f i cryptlib64:integer.obj
 0001:00022ea0       ??$STDMIN@VInteger@CryptoPP@@@CryptoPP@@YAAEBVInteger@0@AEBV10@0@Z 0000000180023ea0 f i cryptlib64:integer.obj
 0001:00022f20       ??$?6U?$char_traits@D@std@@@std@@YAAEAV?$basic_ostream@DU?$char_traits@D@std@@@0@AEAV10@D@Z 0000000180023f20 f i cryptlib64:integer.obj
 0001:000231a0       ?sputc@?$basic_streambuf@DU?$char_traits@D@std@@@std@@QEAAHD@Z 00000001800241a0 f i cryptlib64:integer.obj
 0001:000231e0       ??_G?$AlgorithmParametersBase2@VInteger@CryptoPP@@@CryptoPP@@UEAAPEAXI@Z 00000001800241e0 f i cryptlib64:integer.obj
 0001:000231e0       ??_E?$AlgorithmParametersBase2@VInteger@CryptoPP@@@CryptoPP@@UEAAPEAXI@Z 00000001800241e0 f i * CIL library *:* CIL module *
 0001:00023220       ??$DivideThreeWordsByTwo@IVWord@CryptoPP@@@CryptoPP@@YAIPEAIIIPEAVWord@0@@Z 0000000180024220 f i cryptlib64:integer.obj
 0001:00023300       ??$DivideThreeWordsByTwo@_KVDWord@CryptoPP@@@CryptoPP@@YA_KPEA_K_K1PEAVDWord@0@@Z 0000000180024300 f i cryptlib64:integer.obj
 0001:00023440       ??$_Uninit_alloc_fill_n1@PEAI_KV?$allocator@I@std@@@std@@YAXPEAI_KPEBIAEAU?$_Wrap_alloc@V?$allocator@I@std@@@0@U?$integral_constant@_N$0A@@0@@Z 0000000180024440 f i cryptlib64:integer.obj
 0001:00023478       ??_EDERGeneralEncoder@CryptoPP@@W7EAAPEAXI@Z 0000000180024478 f i cryptlib64:asn.obj
 0001:00023478       ??_EDERSequenceEncoder@CryptoPP@@W7EAAPEAXI@Z 0000000180024478 f i cryptlib64:integer.obj
 0001:00023484       ??_EBERSequenceDecoder@CryptoPP@@W7EAAPEAXI@Z 0000000180024484 f i cryptlib64:integer.obj
 0001:00023484       ??_EBERGeneralDecoder@CryptoPP@@W7EAAPEAXI@Z 0000000180024484 f i cryptlib64:asn.obj
 0001:00023490       ?getloc@ios_base@std@@QEBA?AVlocale@2@XZ 0000000180024490 f i cryptlib64:integer.obj
 0001:000234c0       ??Bid@locale@std@@QEAA_KXZ 00000001800244c0 f i cryptlib64:integer.obj
 0001:00023510       ?_Getfacet@locale@std@@QEBAPEBVfacet@12@_K@Z 0000000180024510 f i cryptlib64:integer.obj
 0001:00023570       ??_E?$codecvt@DDU_Mbstatet@@@std@@MEAAPEAXI@Z 0000000180024570 f i * CIL library *:* CIL module *
 0001:00023570       ??_Efacet@locale@std@@MEAAPEAXI@Z 0000000180024570 f i * CIL library *:* CIL module *
 0001:00023570       ??_Gfacet@locale@std@@MEAAPEAXI@Z 0000000180024570 f i cryptlib64:integer.obj
 0001:00023570       ??_G?$codecvt@DDU_Mbstatet@@@std@@MEAAPEAXI@Z 0000000180024570 f i cryptlib64:files.obj
 0001:000235a0       ??1facet@locale@std@@MEAA@XZ 00000001800245a0 f i cryptlib64:integer.obj
 0001:000235b0       ??_G?$ctype@D@std@@MEAAPEAXI@Z 00000001800245b0 f i cryptlib64:integer.obj
 0001:000235b0       ??_E?$ctype@D@std@@MEAAPEAXI@Z 00000001800245b0 f i * CIL library *:* CIL module *
 0001:00023620       ?do_tolower@?$ctype@D@std@@MEBAPEBDPEADPEBD@Z 0000000180024620 f i cryptlib64:integer.obj
 0001:00023680       ?do_tolower@?$ctype@D@std@@MEBADD@Z 0000000180024680 f i cryptlib64:integer.obj
 0001:00023690       ?do_toupper@?$ctype@D@std@@MEBAPEBDPEADPEBD@Z 0000000180024690 f i cryptlib64:integer.obj
 0001:000236f0       ?do_toupper@?$ctype@D@std@@MEBADD@Z 00000001800246f0 f i cryptlib64:integer.obj
 0001:00023700       ?do_widen@?$ctype@D@std@@MEBAPEBDPEBD0PEAD@Z 0000000180024700 f i cryptlib64:integer.obj
 0001:00023720       ?do_widen@?$ctype@D@std@@MEBADD@Z 0000000180024720 f i cryptlib64:integer.obj
 0001:00023720       ?do_narrow@?$ctype@D@std@@MEBADDD@Z 0000000180024720 f i cryptlib64:integer.obj
 0001:00023730       ?do_narrow@?$ctype@D@std@@MEBAPEBDPEBD0DPEAD@Z 0000000180024730 f i cryptlib64:integer.obj
 0001:00023750       ??0_Locinfo@std@@QEAA@PEBD@Z 0000000180024750 f i cryptlib64:integer.obj
 0001:00023820       ??1?$_Yarn@_W@std@@QEAA@XZ 0000000180024820 f i cryptlib64:integer.obj
 0001:00023820       ??1?$_Yarn@D@std@@QEAA@XZ  0000000180024820 f i cryptlib64:integer.obj
 0001:00023850       ??1_Locinfo@std@@QEAA@XZ   0000000180024850 f i cryptlib64:integer.obj
 0001:00023900       ?_Getcat@?$ctype@D@std@@SA_KPEAPEBVfacet@locale@2@PEBV42@@Z 0000000180024900 f i cryptlib64:integer.obj
 0001:000239d0       ??0bad_cast@std@@QEAA@AEBV01@@Z 00000001800249d0 f i cryptlib64:integer.obj
 0001:00023a10       ?_Incref@facet@locale@std@@UEAAXXZ 0000000180024a10 f i cryptlib64:integer.obj
 0001:00023a20       ??$use_facet@V?$ctype@D@std@@@std@@YAAEBV?$ctype@D@0@AEBVlocale@0@@Z 0000000180024a20 f i cryptlib64:integer.obj
 0001:00023b60       ?_Decref@facet@locale@std@@UEAAPEAV_Facet_base@3@XZ 0000000180024b60 f i cryptlib64:integer.obj
 0001:00023b70       ??_E_Facet_base@std@@UEAAPEAXI@Z 0000000180024b70 f i * CIL library *:* CIL module *
 0001:00023b70       ??_G_Facet_base@std@@UEAAPEAXI@Z 0000000180024b70 f i cryptlib64:integer.obj
 0001:00023ba0       ??1locale@std@@QEAA@XZ     0000000180024ba0 f i cryptlib64:integer.obj
 0001:00023be0       ?message@error_code@std@@QEBA?AV?$basic_string@DU?$char_traits@D@std@@V?$allocator@D@2@@2@XZ 0000000180024be0 f i cryptlib64:integer.obj
 0001:00023c10       ?_Makestr@_System_error@std@@CA?AV?$basic_string@DU?$char_traits@D@std@@V?$allocator@D@2@@2@Verror_code@2@V32@@Z 0000000180024c10 f i cryptlib64:integer.obj
 0001:00023d70       ??0_System_error@std@@IEAA@Verror_code@1@AEBV?$basic_string@DU?$char_traits@D@std@@V?$allocator@D@2@@1@@Z 0000000180024d70 f i cryptlib64:integer.obj
 0001:00023ef0       ??0system_error@std@@QEAA@Verror_code@1@PEBD@Z 0000000180024ef0 f i cryptlib64:integer.obj
 0001:00024030       ??_G_Iostream_error_category@std@@UEAAPEAXI@Z 0000000180025030 f i cryptlib64:integer.obj
 0001:00024030       ??_Eerror_category@std@@UEAAPEAXI@Z 0000000180025030 f i * CIL library *:* CIL module *
 0001:00024030       ??_Gerror_category@std@@UEAAPEAXI@Z 0000000180025030 f i cryptlib64:integer.obj
 0001:00024030       ??_G_Generic_error_category@std@@UEAAPEAXI@Z 0000000180025030 f i cryptlib64:integer.obj
 0001:00024030       ??_E_Generic_error_category@std@@UEAAPEAXI@Z 0000000180025030 f i * CIL library *:* CIL module *
 0001:00024030       ??_E_Iostream_error_category@std@@UEAAPEAXI@Z 0000000180025030 f i * CIL library *:* CIL module *
 0001:00024060       ?name@_Generic_error_category@std@@UEBAPEBDXZ 0000000180025060 f i cryptlib64:integer.obj
 0001:00024070       ?name@_Iostream_error_category@std@@UEBAPEBDXZ 0000000180025070 f i cryptlib64:integer.obj
 0001:00024080       ?message@_Generic_error_category@std@@UEBA?AV?$basic_string@DU?$char_traits@D@std@@V?$allocator@D@2@@2@H@Z 0000000180025080 f i cryptlib64:integer.obj
 0001:00024110       ?message@_Iostream_error_category@std@@UEBA?AV?$basic_string@DU?$char_traits@D@std@@V?$allocator@D@2@@2@H@Z 0000000180025110 f i cryptlib64:integer.obj
 0001:00024190       ?equivalent@error_category@std@@UEBA_NAEBVerror_code@2@H@Z 0000000180025190 f i cryptlib64:integer.obj
 0001:000241b0       ?default_error_condition@error_category@std@@UEBA?AVerror_condition@2@H@Z 00000001800251b0 f i cryptlib64:integer.obj
 0001:000241c0       ?equivalent@error_category@std@@UEBA_NHAEBVerror_condition@2@@Z 00000001800251c0 f i cryptlib64:integer.obj
 0001:00024200       ??$_Immortalize@V_Iostream_error_category@std@@@std@@YAAEAV_Iostream_error_category@0@XZ 0000000180025200 f i cryptlib64:integer.obj
 0001:000242d0       ??_Gfailure@ios_base@std@@UEAAPEAXI@Z 00000001800252d0 f i cryptlib64:integer.obj
 0001:000242d0       ??_Gsystem_error@std@@UEAAPEAXI@Z 00000001800252d0 f i cryptlib64:integer.obj
 0001:000242d0       ??_G_System_error@std@@UEAAPEAXI@Z 00000001800252d0 f i cryptlib64:integer.obj
 0001:000242d0       ??_Esystem_error@std@@UEAAPEAXI@Z 00000001800252d0 f i * CIL library *:* CIL module *
 0001:000242d0       ??_E_System_error@std@@UEAAPEAXI@Z 00000001800252d0 f i * CIL library *:* CIL module *
 0001:000242d0       ??_Efailure@ios_base@std@@UEAAPEAXI@Z 00000001800252d0 f i * CIL library *:* CIL module *
 0001:00024320       ??0failure@ios_base@std@@QEAA@AEBV012@@Z 0000000180025320 f i cryptlib64:integer.obj
 0001:00024380       ??0system_error@std@@QEAA@AEBV01@@Z 0000000180025380 f i cryptlib64:integer.obj
 0001:000243e0       ??0_System_error@std@@QEAA@AEBV01@@Z 00000001800253e0 f i cryptlib64:integer.obj
 0001:00024430       ??0runtime_error@std@@QEAA@AEBV01@@Z 0000000180025430 f i cryptlib64:integer.obj
 0001:00024470       ?clear@ios_base@std@@QEAAXH_N@Z 0000000180025470 f i cryptlib64:integer.obj
 0001:00024590       ??0BERDecodeErr@CryptoPP@@QEAA@XZ 0000000180025590 f i cryptlib64:integer.obj
 0001:00024710       ?AvailableSize@ArraySink@CryptoPP@@QEAA_KXZ 0000000180025710 f i cryptlib64:pubkey.obj
 0001:00024730       ?P1363_MGF1KDF2_Common@CryptoPP@@YAXAEAVHashTransformation@1@PEAE_KPEBE232_NI@Z 0000000180025730 f   cryptlib64:pubkey.obj
 0001:00024900       ?Decrypt@TF_DecryptorBase@CryptoPP@@UEBA?AUDecodingResult@2@AEAVRandomNumberGenerator@2@PEBE_KPEAEAEBVNameValuePairs@2@@Z 0000000180025900 f   cryptlib64:pubkey.obj
 0001:00024c40       ?Encrypt@TF_EncryptorBase@CryptoPP@@UEBAXAEAVRandomNumberGenerator@2@PEBE_KPEAEAEBVNameValuePairs@2@@Z 0000000180025c40 f   cryptlib64:pubkey.obj
 0001:00024f50       ?DERLengthEncode@CryptoPP@@YA_KAEAVBufferedTransformation@1@_K@Z 0000000180025f50 f   cryptlib64:asn.obj
 0001:000250a0       ?BERLengthDecode@CryptoPP@@YA_NAEAVBufferedTransformation@1@AEA_KAEA_N@Z 00000001800260a0 f   cryptlib64:asn.obj
 0001:00025150       ?BERLengthDecode@CryptoPP@@YA_NAEAVBufferedTransformation@1@AEA_K@Z 0000000180026150 f   cryptlib64:asn.obj
 0001:00025200       ?DEREncodeOctetString@CryptoPP@@YA_KAEAVBufferedTransformation@1@PEBE_K@Z 0000000180026200 f   cryptlib64:asn.obj
 0001:00025280       ?DERReencode@CryptoPP@@YAXAEAVBufferedTransformation@1@0@Z 0000000180026280 f   cryptlib64:asn.obj
 0001:000253f0       ?EncodeValue@OID@CryptoPP@@CAXAEAVBufferedTransformation@2@I@Z 00000001800263f0 f   cryptlib64:asn.obj
 0001:000254d0       ?DEREncode@OID@CryptoPP@@QEBAXAEAVBufferedTransformation@2@@Z 00000001800264d0 f   cryptlib64:asn.obj
 0001:000256d0       ?BERDecode@OID@CryptoPP@@QEAAXAEAVBufferedTransformation@2@@Z 00000001800266d0 f   cryptlib64:asn.obj
 0001:00025880       ?BERDecodeAndCheck@OID@CryptoPP@@QEBAXAEAVBufferedTransformation@2@@Z 0000000180026880 f   cryptlib64:asn.obj
 0001:00025930       ?Init@BERGeneralDecoder@CryptoPP@@AEAAXE@Z 0000000180026930 f   cryptlib64:asn.obj
 0001:000259d0       ??1BERGeneralDecoder@CryptoPP@@UEAA@XZ 00000001800269d0 f   cryptlib64:asn.obj
 0001:00025a10       ?MessageEnd@BERGeneralDecoder@CryptoPP@@QEAAXXZ 0000000180026a10 f   cryptlib64:asn.obj
 0001:00025aa0       ?TransferTo2@BERGeneralDecoder@CryptoPP@@UEAA_KAEAVBufferedTransformation@2@AEA_KAEBV?$basic_string@DU?$char_traits@D@std@@V?$allocator@D@2@@std@@_N@Z 0000000180026aa0 f   cryptlib64:asn.obj
 0001:00025b10       ?CopyRangeTo2@BERGeneralDecoder@CryptoPP@@UEBA_KAEAVBufferedTransformation@2@AEA_K_KAEBV?$basic_string@DU?$char_traits@D@std@@V?$allocator@D@2@@std@@_N@Z 0000000180026b10 f   cryptlib64:asn.obj
 0001:00025b40       ??0DERGeneralEncoder@CryptoPP@@QEAA@AEAV01@E@Z 0000000180026b40 f   cryptlib64:asn.obj
 0001:00025b40       ??0DERGeneralEncoder@CryptoPP@@QEAA@AEAVBufferedTransformation@1@E@Z 0000000180026b40 f   cryptlib64:asn.obj
 0001:00025c10       ??1DERGeneralEncoder@CryptoPP@@UEAA@XZ 0000000180026c10 f   cryptlib64:asn.obj
 0001:00025c60       ?MessageEnd@DERGeneralEncoder@CryptoPP@@QEAAXXZ 0000000180026c60 f   cryptlib64:asn.obj
 0001:00025d00       ?BERDecode@X509PublicKey@CryptoPP@@UEAAXAEAVBufferedTransformation@2@@Z 0000000180026d00 f   cryptlib64:asn.obj
 0001:00025f80       ?DEREncode@X509PublicKey@CryptoPP@@UEBAXAEAVBufferedTransformation@2@@Z 0000000180026f80 f   cryptlib64:asn.obj
 0001:00026160       ?BERDecode@PKCS8PrivateKey@CryptoPP@@UEAAXAEAVBufferedTransformation@2@@Z 0000000180027160 f   cryptlib64:asn.obj
 0001:00026430       ?DEREncode@PKCS8PrivateKey@CryptoPP@@UEBAXAEAVBufferedTransformation@2@@Z 0000000180027430 f   cryptlib64:asn.obj
 0001:00026600       ?BERDecodeOptionalAttributes@PKCS8PrivateKey@CryptoPP@@UEAAXAEAVBufferedTransformation@2@@Z 0000000180027600 f   cryptlib64:asn.obj
 0001:00026610       ?DEREncodeOptionalAttributes@PKCS8PrivateKey@CryptoPP@@UEBAXAEAVBufferedTransformation@2@@Z 0000000180027610 f   cryptlib64:asn.obj
 0001:00026650       ?resize@?$vector@IV?$allocator@I@std@@@std@@QEAAX_K@Z 0000000180027650 f i cryptlib64:asn.obj
 0001:00026760       ??$RoundUpToMultipleOf@II@CryptoPP@@YAIAEBI0@Z 0000000180027760 f i cryptlib64:asn.obj
 0001:000268a0       ??$BERDecodeUnsigned@I@CryptoPP@@YAXAEAVBufferedTransformation@0@AEAIEII@Z 00000001800278a0 f i cryptlib64:asn.obj
 0001:000269c0       ??$DEREncodeUnsigned@I@CryptoPP@@YA_KAEAVBufferedTransformation@0@IE@Z 00000001800279c0 f i cryptlib64:asn.obj
 0001:00026a90       ?Transform@SHA1@CryptoPP@@SAXPEAIPEBI@Z 0000000180027a90 f   cryptlib64:sha.obj
 0001:00027c50       ?Transform@SHA256@CryptoPP@@SAXPEAIPEBI@Z 0000000180028c50 f   cryptlib64:sha.obj
 0001:00028850       ?GenerateRandom@Integer@CryptoPP@@QEAAXAEAVRandomNumberGenerator@2@AEBVNameValuePairs@2@@Z 0000000180029850 f i cryptlib64:rsa.obj
 0001:000288a0       ?GetParent@?$AlgorithmParameters@V?$AlgorithmParameters@VNullNameValuePairs@CryptoPP@@H@CryptoPP@@VInteger@2@@CryptoPP@@EEBAAEBVNameValuePairs@2@XZ 00000001800298a0 f i cryptlib64:rsa.obj
 0001:000288a0       ?GetParent@?$AlgorithmParameters@V?$AlgorithmParameters@V?$AlgorithmParameters@VNullNameValuePairs@CryptoPP@@W4RandomNumberType@Integer@2@@CryptoPP@@VInteger@2@@CryptoPP@@VInteger@2@@CryptoPP@@EEBAAEBVNameValuePairs@2@XZ 00000001800298a0 f i cryptlib64:rsa.obj
 0001:000288a0       ?GetPublicExponent@RSAFunction@CryptoPP@@QEBAAEBVInteger@2@XZ 00000001800298a0 f i cryptlib64:rsa.obj
 0001:000288a0       ?GetParent@?$AlgorithmParameters@V?$AlgorithmParameters@VNullNameValuePairs@CryptoPP@@W4RandomNumberType@Integer@2@@CryptoPP@@VInteger@2@@CryptoPP@@EEBAAEBVNameValuePairs@2@XZ 00000001800298a0 f i cryptlib64:rsa.obj
 0001:000288b0       ?SetModulus@RSAFunction@CryptoPP@@QEAAXAEBVInteger@2@@Z 00000001800298b0 f i cryptlib64:rsa.obj
 0001:000288c0       ?SetPublicExponent@RSAFunction@CryptoPP@@QEAAXAEBVInteger@2@@Z 00000001800298c0 f i cryptlib64:rsa.obj
 0001:000288d0       ?GetPrime1@InvertibleRSAFunction@CryptoPP@@QEBAAEBVInteger@2@XZ 00000001800298d0 f i cryptlib64:rsa.obj
 0001:000288e0       ?GetPrime2@InvertibleRSAFunction@CryptoPP@@QEBAAEBVInteger@2@XZ 00000001800298e0 f i cryptlib64:rsa.obj
 0001:000288f0       ?GetPrivateExponent@InvertibleRSAFunction@CryptoPP@@QEBAAEBVInteger@2@XZ 00000001800298f0 f i cryptlib64:rsa.obj
 0001:00028900       ?GetModPrime1PrivateExponent@InvertibleRSAFunction@CryptoPP@@QEBAAEBVInteger@2@XZ 0000000180029900 f i cryptlib64:rsa.obj
 0001:00028910       ?GetModPrime2PrivateExponent@InvertibleRSAFunction@CryptoPP@@QEBAAEBVInteger@2@XZ 0000000180029910 f i cryptlib64:rsa.obj
 0001:00028920       ?GetMultiplicativeInverseOfPrime2ModPrime1@InvertibleRSAFunction@CryptoPP@@QEBAAEBVInteger@2@XZ 0000000180029920 f i cryptlib64:rsa.obj
 0001:00028930       ?SetPrime1@InvertibleRSAFunction@CryptoPP@@QEAAXAEBVInteger@2@@Z 0000000180029930 f i cryptlib64:rsa.obj
 0001:00028940       ?SetPrime2@InvertibleRSAFunction@CryptoPP@@QEAAXAEBVInteger@2@@Z 0000000180029940 f i cryptlib64:rsa.obj
 0001:00028950       ?SetPrivateExponent@InvertibleRSAFunction@CryptoPP@@QEAAXAEBVInteger@2@@Z 0000000180029950 f i cryptlib64:rsa.obj
 0001:00028960       ?SetModPrime1PrivateExponent@InvertibleRSAFunction@CryptoPP@@QEAAXAEBVInteger@2@@Z 0000000180029960 f i cryptlib64:rsa.obj
 0001:00028970       ?SetModPrime2PrivateExponent@InvertibleRSAFunction@CryptoPP@@QEAAXAEBVInteger@2@@Z 0000000180029970 f i cryptlib64:rsa.obj
 0001:00028980       ?SetMultiplicativeInverseOfPrime2ModPrime1@InvertibleRSAFunction@CryptoPP@@QEAAXAEBVInteger@2@@Z 0000000180029980 f i cryptlib64:rsa.obj
 0001:00028990       ?rsadsi@ASN1@CryptoPP@@YA?AVOID@2@XZ 0000000180029990 f i cryptlib64:rsa.obj
 0001:000289f0       ?pkcs@ASN1@CryptoPP@@YA?AVOID@2@XZ 00000001800299f0 f i cryptlib64:rsa.obj
 0001:00028a50       ?pkcs_1@ASN1@CryptoPP@@YA?AVOID@2@XZ 0000000180029a50 f i cryptlib64:rsa.obj
 0001:00028ab0       ?rsaEncryption@ASN1@CryptoPP@@YA?AVOID@2@XZ 0000000180029ab0 f i cryptlib64:rsa.obj
 0001:00028b10       ?GCD@CryptoPP@@YA?AVInteger@1@AEBV21@0@Z 0000000180029b10 f i cryptlib64:rsa.obj
 0001:00028b30       ?RelativelyPrime@CryptoPP@@YA_NAEBVInteger@1@0@Z 0000000180029b30 f i cryptlib64:rsa.obj
 0001:00028bd0       ?LCM@CryptoPP@@YA?AVInteger@1@AEBV21@0@Z 0000000180029bd0 f i cryptlib64:rsa.obj
 0001:00028c90       ?EuclideanMultiplicativeInverse@CryptoPP@@YA?AVInteger@1@AEBV21@0@Z 0000000180029c90 f i cryptlib64:rsa.obj
 0001:00028cc0       ?GetAlgorithmID@RSAFunction@CryptoPP@@UEBA?AVOID@2@XZ 0000000180029cc0 f   cryptlib64:rsa.obj
 0001:00028cf0       ?BERDecodePublicKey@RSAFunction@CryptoPP@@UEAAXAEAVBufferedTransformation@2@_N_K@Z 0000000180029cf0 f   cryptlib64:rsa.obj
 0001:00028e20       ?DEREncodePublicKey@RSAFunction@CryptoPP@@UEBAXAEAVBufferedTransformation@2@@Z 0000000180029e20 f   cryptlib64:rsa.obj
 0001:00028f50       ?ApplyFunction@RSAFunction@CryptoPP@@UEBA?AVInteger@2@AEBV32@@Z 0000000180029f50 f   cryptlib64:rsa.obj
 0001:00028fd0       ?Validate@RSAFunction@CryptoPP@@UEBA_NAEAVRandomNumberGenerator@2@I@Z 0000000180029fd0 f   cryptlib64:rsa.obj
 0001:000290a0       ?GetVoidValue@RSAFunction@CryptoPP@@UEBA_NPEBDAEBVtype_info@@PEAX@Z 000000018002a0a0 f   cryptlib64:rsa.obj
 0001:00029150       ?AssignFrom@RSAFunction@CryptoPP@@UEAAXAEBVNameValuePairs@2@@Z 000000018002a150 f   cryptlib64:rsa.obj
 0001:00029240       ?IsAcceptable@RSAPrimeSelector@CryptoPP@@UEBA_NAEBVInteger@2@@Z 000000018002a240 f i cryptlib64:rsa.obj
 0001:000292c0       ?GenerateRandom@InvertibleRSAFunction@CryptoPP@@UEAAXAEAVRandomNumberGenerator@2@AEBVNameValuePairs@2@@Z 000000018002a2c0 f   cryptlib64:rsa.obj
 0001:00029b30       ??1RSAPrimeSelector@CryptoPP@@QEAA@XZ 000000018002ab30 f i cryptlib64:rsa.obj
 0001:00029b60       ??1?$AlgorithmParameters@V?$AlgorithmParameters@V?$AlgorithmParameters@VNullNameValuePairs@CryptoPP@@W4RandomNumberType@Integer@2@@CryptoPP@@VInteger@2@@CryptoPP@@VInteger@2@@CryptoPP@@UEAA@XZ 000000018002ab60 f i cryptlib64:rsa.obj
 0001:00029bf0       ??1?$AlgorithmParameters@V?$AlgorithmParameters@V?$AlgorithmParameters@V?$AlgorithmParameters@VNullNameValuePairs@CryptoPP@@W4RandomNumberType@Integer@2@@CryptoPP@@VInteger@2@@CryptoPP@@VInteger@2@@CryptoPP@@PEBVPrimeSelector@2@@CryptoPP@@UEAA@XZ 000000018002abf0 f i cryptlib64:rsa.obj
 0001:00029c60       ??1?$AlgorithmParameters@V?$AlgorithmParameters@VNullNameValuePairs@CryptoPP@@W4RandomNumberType@Integer@2@@CryptoPP@@VInteger@2@@CryptoPP@@UEAA@XZ 000000018002ac60 f i cryptlib64:rsa.obj
 0001:00029c60       ??1?$AlgorithmParameters@V?$AlgorithmParameters@VNullNameValuePairs@CryptoPP@@H@CryptoPP@@VInteger@2@@CryptoPP@@UEAA@XZ 000000018002ac60 f i cryptlib64:rsa.obj
 0001:00029cc0       ?Initialize@InvertibleRSAFunction@CryptoPP@@QEAAXAEAVRandomNumberGenerator@2@IAEBVInteger@2@@Z 000000018002acc0 f   cryptlib64:rsa.obj
 0001:00029ea0       ?BERDecodePrivateKey@InvertibleRSAFunction@CryptoPP@@UEAAXAEAVBufferedTransformation@2@_N_K@Z 000000018002aea0 f   cryptlib64:rsa.obj
 0001:0002a040       ?DEREncodePrivateKey@InvertibleRSAFunction@CryptoPP@@UEBAXAEAVBufferedTransformation@2@@Z 000000018002b040 f   cryptlib64:rsa.obj
 0001:0002a1d0       ?CalculateInverse@InvertibleRSAFunction@CryptoPP@@UEBA?AVInteger@2@AEAVRandomNumberGenerator@2@AEBV32@@Z 000000018002b1d0 f   cryptlib64:rsa.obj
 0001:0002aa20       ?Validate@InvertibleRSAFunction@CryptoPP@@UEBA_NAEAVRandomNumberGenerator@2@I@Z 000000018002ba20 f   cryptlib64:rsa.obj
 0001:0002b500       ?GetVoidValue@InvertibleRSAFunction@CryptoPP@@UEBA_NPEBDAEBVtype_info@@PEAX@Z 000000018002c500 f   cryptlib64:rsa.obj
 0001:0002b680       ?AssignFrom@InvertibleRSAFunction@CryptoPP@@UEAAXAEBVNameValuePairs@2@@Z 000000018002c680 f   cryptlib64:rsa.obj
 0001:0002b860       ?Assignable@?$GetValueHelperClass@VInvertibleRSAFunction@CryptoPP@@VRSAFunction@2@@CryptoPP@@QEAAAEAV12@XZ 000000018002c860 f i cryptlib64:rsa.obj
 0001:0002b960       ?AssignValue@?$AlgorithmParametersBase2@PEBVPrimeSelector@CryptoPP@@@CryptoPP@@UEBAXPEBDAEBVtype_info@@PEAX@Z 000000018002c960 f i cryptlib64:rsa.obj
 0001:0002b9f0       ?Assignable@?$GetValueHelperClass@VRSAFunction@CryptoPP@@V12@@CryptoPP@@QEAAAEAV12@XZ 000000018002c9f0 f i cryptlib64:rsa.obj
 0001:0002bb10       ??4InvertibleRSAFunction@CryptoPP@@QEAAAEAV01@AEBV01@@Z 000000018002cb10 f i cryptlib64:rsa.obj
 0001:0002bbe0       ??$?RVInteger@CryptoPP@@@?$GetValueHelperClass@VInvertibleRSAFunction@CryptoPP@@VRSAFunction@2@@CryptoPP@@QEAAAEAV01@PEBDP8InvertibleRSAFunction@1@EBAAEBVInteger@1@XZ@Z 000000018002cbe0 f i cryptlib64:rsa.obj
 0001:0002bbe0       ??$?RVInteger@CryptoPP@@@?$GetValueHelperClass@VRSAFunction@CryptoPP@@V12@@CryptoPP@@QEAAAEAV01@PEBDP8RSAFunction@1@EBAAEBVInteger@1@XZ@Z 000000018002cbe0 f i cryptlib64:rsa.obj
 0001:0002bcc0       ??$?RAEBVInteger@CryptoPP@@@?$AssignFromHelperClass@VRSAFunction@CryptoPP@@V12@@CryptoPP@@QEAAAEAV01@PEBDP8RSAFunction@1@EAAXAEBVInteger@1@@Z@Z 000000018002ccc0 f i cryptlib64:rsa.obj
 0001:0002beb0       ??$?RPEBVPrimeSelector@CryptoPP@@@?$AlgorithmParameters@V?$AlgorithmParameters@V?$AlgorithmParameters@VNullNameValuePairs@CryptoPP@@W4RandomNumberType@Integer@2@@CryptoPP@@VInteger@2@@CryptoPP@@VInteger@2@@CryptoPP@@QEBA?AV?$AlgorithmParameters@V?$AlgorithmParameters@V?$AlgorithmParameters@V?$AlgorithmParameters@VNullNameValuePairs@CryptoPP@@W4RandomNumberType@Integer@2@@CryptoPP@@VInteger@2@@CryptoPP@@VInteger@2@@CryptoPP@@PEBVPrimeSelector@2@@1@PEBDAEBQEBVPrimeSelector@1@@Z 000000018002ceb0 f i cryptlib64:rsa.obj
 0001:0002bf10       ??$?RVInteger@CryptoPP@@@?$AlgorithmParameters@VNullNameValuePairs@CryptoPP@@H@CryptoPP@@QEBA?AV?$AlgorithmParameters@V?$AlgorithmParameters@VNullNameValuePairs@CryptoPP@@H@CryptoPP@@VInteger@2@@1@PEBDAEBVInteger@1@@Z 000000018002cf10 f i cryptlib64:rsa.obj
 0001:0002bf40       ??$?RAEBVInteger@CryptoPP@@@?$AssignFromHelperClass@VInvertibleRSAFunction@CryptoPP@@VRSAFunction@2@@CryptoPP@@QEAAAEAV01@PEBDP8InvertibleRSAFunction@1@EAAXAEBVInteger@1@@Z@Z 000000018002cf40 f i cryptlib64:rsa.obj
 0001:0002c130       ??0?$GetValueHelperClass@VInvertibleRSAFunction@CryptoPP@@VRSAFunction@2@@CryptoPP@@QEAA@PEBVInvertibleRSAFunction@1@PEBDAEBVtype_info@@PEAXPEBVNameValuePairs@1@@Z 000000018002d130 f i cryptlib64:rsa.obj
 0001:0002c300       ??0?$AlgorithmParameters@V?$AlgorithmParameters@VNullNameValuePairs@CryptoPP@@H@CryptoPP@@VInteger@2@@CryptoPP@@QEAA@AEBV?$AlgorithmParameters@VNullNameValuePairs@CryptoPP@@H@1@PEBDAEBVInteger@1@_N@Z 000000018002d300 f i cryptlib64:rsa.obj
 0001:0002c3b0       ??0?$GetValueHelperClass@VRSAFunction@CryptoPP@@V12@@CryptoPP@@QEAA@PEBVRSAFunction@1@PEBDAEBVtype_info@@PEAXPEBVNameValuePairs@1@@Z 000000018002d3b0 f i cryptlib64:rsa.obj
 0001:0002c5b0       ??_G?$AlgorithmParameters@V?$AlgorithmParameters@VNullNameValuePairs@CryptoPP@@H@CryptoPP@@VInteger@2@@CryptoPP@@UEAAPEAXI@Z 000000018002d5b0 f i cryptlib64:rsa.obj
 0001:0002c5b0       ??_E?$AlgorithmParameters@V?$AlgorithmParameters@VNullNameValuePairs@CryptoPP@@W4RandomNumberType@Integer@2@@CryptoPP@@VInteger@2@@CryptoPP@@UEAAPEAXI@Z 000000018002d5b0 f i * CIL library *:* CIL module *
 0001:0002c5b0       ??_G?$AlgorithmParameters@V?$AlgorithmParameters@VNullNameValuePairs@CryptoPP@@W4RandomNumberType@Integer@2@@CryptoPP@@VInteger@2@@CryptoPP@@UEAAPEAXI@Z 000000018002d5b0 f i cryptlib64:rsa.obj
 0001:0002c5b0       ??_E?$AlgorithmParameters@V?$AlgorithmParameters@VNullNameValuePairs@CryptoPP@@H@CryptoPP@@VInteger@2@@CryptoPP@@UEAAPEAXI@Z 000000018002d5b0 f i * CIL library *:* CIL module *
 0001:0002c640       ??_E?$AlgorithmParameters@V?$AlgorithmParameters@V?$AlgorithmParameters@V?$AlgorithmParameters@VNullNameValuePairs@CryptoPP@@W4RandomNumberType@Integer@2@@CryptoPP@@VInteger@2@@CryptoPP@@VInteger@2@@CryptoPP@@PEBVPrimeSelector@2@@CryptoPP@@UEAAPEAXI@Z 000000018002d640 f i * CIL library *:* CIL module *
 0001:0002c640       ??_G?$AlgorithmParameters@V?$AlgorithmParameters@V?$AlgorithmParameters@V?$AlgorithmParameters@VNullNameValuePairs@CryptoPP@@W4RandomNumberType@Integer@2@@CryptoPP@@VInteger@2@@CryptoPP@@VInteger@2@@CryptoPP@@PEBVPrimeSelector@2@@CryptoPP@@UEAAPEAXI@Z 000000018002d640 f i cryptlib64:rsa.obj
 0001:0002c6d0       ??0?$AlgorithmParameters@V?$AlgorithmParameters@V?$AlgorithmParameters@VNullNameValuePairs@CryptoPP@@W4RandomNumberType@Integer@2@@CryptoPP@@VInteger@2@@CryptoPP@@VInteger@2@@CryptoPP@@QEAA@AEBV01@@Z 000000018002d6d0 f i cryptlib64:rsa.obj
 0001:0002c750       ??_E?$AlgorithmParameters@V?$AlgorithmParameters@V?$AlgorithmParameters@VNullNameValuePairs@CryptoPP@@W4RandomNumberType@Integer@2@@CryptoPP@@VInteger@2@@CryptoPP@@VInteger@2@@CryptoPP@@UEAAPEAXI@Z 000000018002d750 f i * CIL library *:* CIL module *
 0001:0002c750       ??_G?$AlgorithmParameters@V?$AlgorithmParameters@V?$AlgorithmParameters@VNullNameValuePairs@CryptoPP@@W4RandomNumberType@Integer@2@@CryptoPP@@VInteger@2@@CryptoPP@@VInteger@2@@CryptoPP@@UEAAPEAXI@Z 000000018002d750 f i cryptlib64:rsa.obj
 0001:0002c790       ??0?$AlgorithmParameters@V?$AlgorithmParameters@VNullNameValuePairs@CryptoPP@@W4RandomNumberType@Integer@2@@CryptoPP@@VInteger@2@@CryptoPP@@QEAA@AEBV01@@Z 000000018002d790 f i cryptlib64:rsa.obj
 0001:0002c860       ??$Hack_DefaultValueFromConstReferenceType@VInteger@CryptoPP@@@CryptoPP@@YA?AVInteger@0@AEBV10@@Z 000000018002d860 f i cryptlib64:rsa.obj
 0001:0002c880       ??$GetThisObject@VInvertibleRSAFunction@CryptoPP@@@NameValuePairs@CryptoPP@@QEBA_NAEAVInvertibleRSAFunction@1@@Z 000000018002d880 f i cryptlib64:rsa.obj
 0001:0002ca40       ??$GetThisObject@VRSAFunction@CryptoPP@@@NameValuePairs@CryptoPP@@QEBA_NAEAVRSAFunction@1@@Z 000000018002da40 f i cryptlib64:rsa.obj
 0001:0002cc00       ?IsolatedInitialize@BaseN_Encoder@CryptoPP@@UEAAXAEBVNameValuePairs@2@@Z 000000018002dc00 f   cryptlib64:basecode.obj
 0001:0002cde0       ?Put2@BaseN_Encoder@CryptoPP@@UEAA_KPEBE_KH_N@Z 000000018002dde0 f   cryptlib64:basecode.obj
 0001:0002d060       ?IsolatedInitialize@BaseN_Decoder@CryptoPP@@UEAAXAEBVNameValuePairs@2@@Z 000000018002e060 f   cryptlib64:basecode.obj
 0001:0002d200       ?Put2@BaseN_Decoder@CryptoPP@@UEAA_KPEBE_KH_N@Z 000000018002e200 f   cryptlib64:basecode.obj
 0001:0002d410       ?InitializeDecodingLookupArray@BaseN_Decoder@CryptoPP@@SAXPEAHPEBEI_N@Z 000000018002e410 f   cryptlib64:basecode.obj
 0001:0002d4d0       ?IsolatedInitialize@Grouper@CryptoPP@@UEAAXAEBVNameValuePairs@2@@Z 000000018002e4d0 f   cryptlib64:basecode.obj
 0001:0002d630       ?Put2@Grouper@CryptoPP@@UEAA_KPEBE_KH_N@Z 000000018002e630 f   cryptlib64:basecode.obj
 0001:0002d850       ??$GetRequiredParameter@PEBE@NameValuePairs@CryptoPP@@QEBAXPEBD0AEAPEBE@Z 000000018002e850 f i cryptlib64:basecode.obj
 0001:0002d9a0       ??$GetRequiredParameter@PEBH@NameValuePairs@CryptoPP@@QEBAXPEBD0AEAPEBH@Z 000000018002e9a0 f i cryptlib64:basecode.obj
 0001:0002daf0       ??$GetRequiredParameter@VConstByteArrayParameter@CryptoPP@@@NameValuePairs@CryptoPP@@QEBAXPEBD0AEAVConstByteArrayParameter@1@@Z 000000018002eaf0 f i cryptlib64:basecode.obj
 0001:0002dc40       ?IsolatedInitialize@HexEncoder@CryptoPP@@UEAAXAEBVNameValuePairs@2@@Z 000000018002ec40 f   cryptlib64:hex.obj
 0001:0002ddc0       ?IsolatedInitialize@HexDecoder@CryptoPP@@UEAAXAEBVNameValuePairs@2@@Z 000000018002edc0 f   cryptlib64:hex.obj
 0001:0002df20       ??$?RH@?$AlgorithmParameters@VNullNameValuePairs@CryptoPP@@PEBE@CryptoPP@@QEBA?AV?$AlgorithmParameters@V?$AlgorithmParameters@VNullNameValuePairs@CryptoPP@@PEBE@CryptoPP@@H@1@PEBDAEBH_N@Z 000000018002ef20 f i cryptlib64:hex.obj
 0001:0002dfa0       ??$?RH@?$AlgorithmParameters@VNullNameValuePairs@CryptoPP@@PEBH@CryptoPP@@QEBA?AV?$AlgorithmParameters@V?$AlgorithmParameters@VNullNameValuePairs@CryptoPP@@PEBH@CryptoPP@@H@1@PEBDAEBH_N@Z 000000018002efa0 f i cryptlib64:hex.obj
 0001:0002e020       ??0ReadErr@FileStore@CryptoPP@@QEAA@XZ 000000018002f020 f i cryptlib64:files.obj
 0001:0002e1a0       ??0WriteErr@FileSink@CryptoPP@@QEAA@XZ 000000018002f1a0 f i cryptlib64:files.obj
 0001:0002e320       ?StoreInitialize@FileStore@CryptoPP@@EEAAXAEBVNameValuePairs@2@@Z 000000018002f320 f   cryptlib64:files.obj
 0001:0002e5f0       ??0OpenErr@FileStore@CryptoPP@@QEAA@AEBV012@@Z 000000018002f5f0 f i cryptlib64:files.obj
 0001:0002e620       ??0Err@FileStore@CryptoPP@@QEAA@AEBV012@@Z 000000018002f620 f i cryptlib64:files.obj
 0001:0002e650       ?MaxRetrievable@FileStore@CryptoPP@@UEBA_KXZ 000000018002f650 f   cryptlib64:files.obj
 0001:0002e6e0       ?TransferTo2@FileStore@CryptoPP@@UEAA_KAEAVBufferedTransformation@2@AEA_KAEBV?$basic_string@DU?$char_traits@D@std@@V?$allocator@D@2@@std@@_N@Z 000000018002f6e0 f   cryptlib64:files.obj
 0001:0002e890       ??0ReadErr@FileStore@CryptoPP@@QEAA@AEBV012@@Z 000000018002f890 f i cryptlib64:files.obj
 0001:0002e8c0       ?CopyRangeTo2@FileStore@CryptoPP@@UEBA_KAEAVBufferedTransformation@2@AEA_K_KAEBV?$basic_string@DU?$char_traits@D@std@@V?$allocator@D@2@@std@@_N@Z 000000018002f8c0 f   cryptlib64:files.obj
 0001:0002eaa0       ?Skip@FileStore@CryptoPP@@UEAA_K_K@Z 000000018002faa0 f   cryptlib64:files.obj
 0001:0002ec10       ?IsolatedInitialize@FileSink@CryptoPP@@UEAAXAEBVNameValuePairs@2@@Z 000000018002fc10 f   cryptlib64:files.obj
 0001:0002eee0       ??0OpenErr@FileSink@CryptoPP@@QEAA@AEBV012@@Z 000000018002fee0 f i cryptlib64:files.obj
 0001:0002ef10       ??0Err@FileSink@CryptoPP@@QEAA@AEBV012@@Z 000000018002ff10 f i cryptlib64:files.obj
 0001:0002ef40       ?IsolatedFlush@FileSink@CryptoPP@@UEAA_N_N0@Z 000000018002ff40 f   cryptlib64:files.obj
 0001:0002f090       ??0WriteErr@FileSink@CryptoPP@@QEAA@AEBV012@@Z 0000000180030090 f i cryptlib64:files.obj
 0001:0002f0c0       ?Put2@FileSink@CryptoPP@@UEAA_KPEBE_KH_N@Z 00000001800300c0 f   cryptlib64:files.obj
 0001:0002f280       ??1?$basic_ofstream@DU?$char_traits@D@std@@@std@@UEAA@XZ 0000000180030280 f i cryptlib64:files.obj
 0001:0002f300       ??0?$basic_ofstream@DU?$char_traits@D@std@@@std@@QEAA@XZ 0000000180030300 f i cryptlib64:files.obj
 0001:0002f440       ??1?$basic_ifstream@DU?$char_traits@D@std@@@std@@UEAA@XZ 0000000180030440 f i cryptlib64:files.obj
 0001:0002f4c0       ??0?$basic_ifstream@DU?$char_traits@D@std@@@std@@QEAA@XZ 00000001800304c0 f i cryptlib64:files.obj
 0001:0002f600       ?imbue@?$basic_filebuf@DU?$char_traits@D@std@@@std@@MEAAXAEBVlocale@2@@Z 0000000180030600 f i cryptlib64:files.obj
 0001:0002f630       ?sync@?$basic_filebuf@DU?$char_traits@D@std@@@std@@MEAAHXZ 0000000180030630 f i cryptlib64:files.obj
 0001:0002f680       ?setbuf@?$basic_filebuf@DU?$char_traits@D@std@@@std@@MEAAPEAV?$basic_streambuf@DU?$char_traits@D@std@@@2@PEAD_J@Z 0000000180030680 f i cryptlib64:files.obj
 0001:0002f6e0       ?seekpos@?$basic_filebuf@DU?$char_traits@D@std@@@std@@MEAA?AV?$fpos@U_Mbstatet@@@2@V32@H@Z 00000001800306e0 f i cryptlib64:files.obj
 0001:0002f7c0       ?seekoff@?$basic_filebuf@DU?$char_traits@D@std@@@std@@MEAA?AV?$fpos@U_Mbstatet@@@2@_JHH@Z 00000001800307c0 f i cryptlib64:files.obj
 0001:0002f8b0       ?uflow@?$basic_filebuf@DU?$char_traits@D@std@@@std@@MEAAHXZ 00000001800308b0 f i cryptlib64:files.obj
 0001:0002fc40       ?underflow@?$basic_filebuf@DU?$char_traits@D@std@@@std@@MEAAHXZ 0000000180030c40 f i cryptlib64:files.obj
 0001:0002fcb0       ?pbackfail@?$basic_filebuf@DU?$char_traits@D@std@@@std@@MEAAHH@Z 0000000180030cb0 f i cryptlib64:files.obj
 0001:0002fd90       ?overflow@?$basic_filebuf@DU?$char_traits@D@std@@@std@@MEAAHH@Z 0000000180030d90 f i cryptlib64:files.obj
 0001:00030090       ?_Unlock@?$basic_filebuf@DU?$char_traits@D@std@@@std@@UEAAXXZ 0000000180031090 f i cryptlib64:files.obj
 0001:000300b0       ?_Lock@?$basic_filebuf@DU?$char_traits@D@std@@@std@@UEAAXXZ 00000001800310b0 f i cryptlib64:files.obj
 0001:000300d0       ??1?$basic_filebuf@DU?$char_traits@D@std@@@std@@UEAA@XZ 00000001800310d0 f i cryptlib64:files.obj
 0001:00030190       ?write@?$basic_ostream@DU?$char_traits@D@std@@@std@@QEAAAEAV12@PEBD_J@Z 0000000180031190 f i cryptlib64:files.obj
 0001:000302b0       ??1?$basic_ostream@DU?$char_traits@D@std@@@std@@UEAA@XZ 00000001800312b0 f i cryptlib64:files.obj
 0001:000302e0       ?tellg@?$basic_istream@DU?$char_traits@D@std@@@std@@QEAA?AV?$fpos@U_Mbstatet@@@2@XZ 00000001800312e0 f i cryptlib64:files.obj
 0001:000303b0       ?seekg@?$basic_istream@DU?$char_traits@D@std@@@std@@QEAAAEAV12@_JH@Z 00000001800313b0 f i cryptlib64:files.obj
 0001:000304b0       ?seekg@?$basic_istream@DU?$char_traits@D@std@@@std@@QEAAAEAV12@V?$fpos@U_Mbstatet@@@2@@Z 00000001800314b0 f i cryptlib64:files.obj
 0001:000305c0       ?peek@?$basic_istream@DU?$char_traits@D@std@@@std@@QEAAHXZ 00000001800315c0 f i cryptlib64:files.obj
 0001:000306c0       ??1?$basic_istream@DU?$char_traits@D@std@@@std@@UEAA@XZ 00000001800316c0 f i cryptlib64:files.obj
 0001:000306f0       ?seekoff@?$basic_streambuf@DU?$char_traits@D@std@@@std@@MEAA?AV?$fpos@U_Mbstatet@@@2@_JHH@Z 00000001800316f0 f i cryptlib64:files.obj
 0001:000306f0       ?seekpos@?$basic_streambuf@DU?$char_traits@D@std@@@std@@MEAA?AV?$fpos@U_Mbstatet@@@2@V32@H@Z 00000001800316f0 f i cryptlib64:files.obj
 0001:00030710       ?xsputn@?$basic_streambuf@DU?$char_traits@D@std@@@std@@MEAA_JPEBD_J@Z 0000000180031710 f i cryptlib64:files.obj
 0001:000307d0       ?xsgetn@?$basic_streambuf@DU?$char_traits@D@std@@@std@@MEAA_JPEAD_J@Z 00000001800317d0 f i cryptlib64:files.obj
 0001:00030890       ?uflow@?$basic_streambuf@DU?$char_traits@D@std@@@std@@MEAAHXZ 0000000180031890 f i cryptlib64:files.obj
 0001:000308d0       ?underflow@?$basic_streambuf@DU?$char_traits@D@std@@@std@@MEAAHXZ 00000001800318d0 f i cryptlib64:files.obj
 0001:000308d0       ?pbackfail@?$basic_streambuf@DU?$char_traits@D@std@@@std@@MEAAHH@Z 00000001800318d0 f i cryptlib64:files.obj
 0001:000308d0       ?overflow@?$basic_streambuf@DU?$char_traits@D@std@@@std@@MEAAHH@Z 00000001800318d0 f i cryptlib64:files.obj
 0001:000308e0       ??1?$basic_streambuf@DU?$char_traits@D@std@@@std@@UEAA@XZ 00000001800318e0 f i cryptlib64:files.obj
 0001:00030940       ??1?$basic_ios@DU?$char_traits@D@std@@@std@@UEAA@XZ 0000000180031940 f i cryptlib64:files.obj
 0001:00030970       ??_E?$basic_ofstream@DU?$char_traits@D@std@@@std@@UEAAPEAXI@Z 0000000180031970 f i * CIL library *:* CIL module *
 0001:00030970       ??_G?$basic_ofstream@DU?$char_traits@D@std@@@std@@UEAAPEAXI@Z 0000000180031970 f i cryptlib64:files.obj
 0001:000309d0       ??_E?$basic_ifstream@DU?$char_traits@D@std@@@std@@UEAAPEAXI@Z 00000001800319d0 f i * CIL library *:* CIL module *
 0001:000309d0       ??_G?$basic_ifstream@DU?$char_traits@D@std@@@std@@UEAAPEAXI@Z 00000001800319d0 f i cryptlib64:files.obj
 0001:00030a30       ??_G?$basic_filebuf@DU?$char_traits@D@std@@@std@@UEAAPEAXI@Z 0000000180031a30 f i cryptlib64:files.obj
 0001:00030a30       ??_E?$basic_filebuf@DU?$char_traits@D@std@@@std@@UEAAPEAXI@Z 0000000180031a30 f i * CIL library *:* CIL module *
 0001:00030a70       ??_E?$basic_ostream@DU?$char_traits@D@std@@@std@@UEAAPEAXI@Z 0000000180031a70 f i * CIL library *:* CIL module *
 0001:00030a70       ??_G?$basic_ostream@DU?$char_traits@D@std@@@std@@UEAAPEAXI@Z 0000000180031a70 f i cryptlib64:files.obj
 0001:00030ae0       ??_E?$basic_istream@DU?$char_traits@D@std@@@std@@UEAAPEAXI@Z 0000000180031ae0 f i * CIL library *:* CIL module *
 0001:00030ae0       ??_G?$basic_istream@DU?$char_traits@D@std@@@std@@UEAAPEAXI@Z 0000000180031ae0 f i cryptlib64:files.obj
 0001:00030b50       ??_G?$basic_streambuf@DU?$char_traits@D@std@@@std@@UEAAPEAXI@Z 0000000180031b50 f i cryptlib64:files.obj
 0001:00030b50       ??_E?$basic_streambuf@DU?$char_traits@D@std@@@std@@UEAAPEAXI@Z 0000000180031b50 f i * CIL library *:* CIL module *
 0001:00030be0       ??_Glocale@std@@QEAAPEAXI@Z 0000000180031be0 f i cryptlib64:files.obj
 0001:00030c40       ??_E?$basic_ios@DU?$char_traits@D@std@@@std@@UEAAPEAXI@Z 0000000180031c40 f i * CIL library *:* CIL module *
 0001:00030c40       ??_G?$basic_ios@DU?$char_traits@D@std@@@std@@UEAAPEAXI@Z 0000000180031c40 f i cryptlib64:files.obj
 0001:00030c90       ?do_length@?$codecvt@DDU_Mbstatet@@@std@@MEBAHAEAU_Mbstatet@@PEBD1_K@Z 0000000180031c90 f i cryptlib64:files.obj
 0001:00030cb0       ?do_unshift@?$codecvt@DDU_Mbstatet@@@std@@MEBAHAEAU_Mbstatet@@PEAD1AEAPEAD@Z 0000000180031cb0 f i cryptlib64:files.obj
 0001:00030cc0       ?do_in@?$codecvt@DDU_Mbstatet@@@std@@MEBAHAEAU_Mbstatet@@PEBD1AEAPEBDPEAD3AEAPEAD@Z 0000000180031cc0 f i cryptlib64:files.obj
 0001:00030cc0       ?do_out@?$codecvt@DDU_Mbstatet@@@std@@MEBAHAEAU_Mbstatet@@PEBD1AEAPEBDPEAD3AEAPEAD@Z 0000000180031cc0 f i cryptlib64:files.obj
 0001:00030ce0       ?_Reset_back@?$basic_filebuf@DU?$char_traits@D@std@@@std@@AEAAXXZ 0000000180031ce0 f i cryptlib64:files.obj
 0001:00030d10       ?_Initcvt@?$basic_filebuf@DU?$char_traits@D@std@@@std@@IEAAXPEBV?$codecvt@DDU_Mbstatet@@@2@@Z 0000000180031d10 f i cryptlib64:files.obj
 0001:00030db0       ?_Endwrite@?$basic_filebuf@DU?$char_traits@D@std@@@std@@IEAA_NXZ 0000000180031db0 f i cryptlib64:files.obj
 0001:00031070       ?_Init@?$basic_filebuf@DU?$char_traits@D@std@@@std@@IEAAXPEAU_iobuf@@W4_Initfl@12@@Z 0000000180032070 f i cryptlib64:files.obj
 0001:00031160       ?close@?$basic_filebuf@DU?$char_traits@D@std@@@std@@QEAAPEAV12@XZ 0000000180032160 f i cryptlib64:files.obj
 0001:00031230       ?open@?$basic_filebuf@DU?$char_traits@D@std@@@std@@QEAAPEAV12@PEBDHH@Z 0000000180032230 f i cryptlib64:files.obj
 0001:000312d0       ??0?$basic_istream@DU?$char_traits@D@std@@@std@@QEAA@PEAV?$basic_streambuf@DU?$char_traits@D@std@@@1@_N@Z 00000001800322d0 f i cryptlib64:files.obj
 0001:00031360       ?getloc@?$basic_streambuf@DU?$char_traits@D@std@@@std@@QEBA?AVlocale@2@XZ 0000000180032360 f i cryptlib64:files.obj
 0001:00031390       ??0?$basic_streambuf@DU?$char_traits@D@std@@@std@@IEAA@XZ 0000000180032390 f i cryptlib64:files.obj
 0001:00031440       ?init@?$basic_ios@DU?$char_traits@D@std@@@std@@IEAAXPEAV?$basic_streambuf@DU?$char_traits@D@std@@@2@_N@Z 0000000180032440 f i cryptlib64:files.obj
 0001:00031500       ??$use_facet@V?$codecvt@DDU_Mbstatet@@@std@@@std@@YAAEBV?$codecvt@DDU_Mbstatet@@@0@AEBVlocale@0@@Z 0000000180032500 f i cryptlib64:files.obj
 0001:00031640       ?_Getcat@?$codecvt@DDU_Mbstatet@@@std@@SA_KPEAPEBVfacet@locale@2@PEBV42@@Z 0000000180032640 f i cryptlib64:files.obj
 0001:000316f0       ??_E?$basic_ostream@DU?$char_traits@D@std@@@std@@$4PPPPPPPM@A@EAAPEAXI@Z 00000001800326f0 f i cryptlib64:files.obj
 0001:000316fc       ??_E?$basic_ifstream@DU?$char_traits@D@std@@@std@@$4PPPPPPPM@A@EAAPEAXI@Z 00000001800326fc f i cryptlib64:files.obj
 0001:00031708       ??_E?$basic_istream@DU?$char_traits@D@std@@@std@@$4PPPPPPPM@A@EAAPEAXI@Z 0000000180032708 f i cryptlib64:files.obj
 0001:00031714       ??_E?$basic_ofstream@DU?$char_traits@D@std@@@std@@$4PPPPPPPM@A@EAAPEAXI@Z 0000000180032714 f i cryptlib64:files.obj
 0001:00031720       ?_Init@ios_base@std@@IEAAXXZ 0000000180032720 f i cryptlib64:files.obj
 0001:00031790       ??_Gios_base@std@@UEAAPEAXI@Z 0000000180032790 f i cryptlib64:files.obj
 0001:00031790       ??_Eios_base@std@@UEAAPEAXI@Z 0000000180032790 f i * CIL library *:* CIL module *
 0001:000317e0       ?assign@?$basic_string@DU?$char_traits@D@std@@V?$allocator@D@2@@std@@QEAAAEAV12@_KD@Z 00000001800327e0 f i cryptlib64:files.obj
 0001:000318e0       ??0?$basic_string@DU?$char_traits@D@std@@V?$allocator@D@2@@std@@QEAA@_KD@Z 00000001800328e0 f i cryptlib64:files.obj
 0001:00031930       ?IsolatedInitialize@Base64Encoder@CryptoPP@@UEAAXAEBVNameValuePairs@2@@Z 0000000180032930 f   cryptlib64:base64.obj
 0001:00031c50       ??1?$AlgorithmParameters@V?$AlgorithmParameters@V?$AlgorithmParameters@VNullNameValuePairs@CryptoPP@@PEBE@CryptoPP@@E@CryptoPP@@H@CryptoPP@@UEAA@XZ 0000000180032c50 f i cryptlib64:base64.obj
 0001:00031cc0       ??1?$AlgorithmParameters@V?$AlgorithmParameters@V?$AlgorithmParameters@V?$AlgorithmParameters@VNullNameValuePairs@CryptoPP@@PEBE@CryptoPP@@E@CryptoPP@@H@CryptoPP@@VConstByteArrayParameter@2@@CryptoPP@@UEAA@XZ 0000000180032cc0 f i cryptlib64:base64.obj
 0001:00031d30       ??1?$AlgorithmParameters@V?$AlgorithmParameters@V?$AlgorithmParameters@V?$AlgorithmParameters@V?$AlgorithmParameters@VNullNameValuePairs@CryptoPP@@PEBE@CryptoPP@@E@CryptoPP@@H@CryptoPP@@VConstByteArrayParameter@2@@CryptoPP@@VConstByteArrayParameter@2@@CryptoPP@@UEAA@XZ 0000000180032d30 f i cryptlib64:base64.obj
 0001:00031dd0       ??1?$AlgorithmParameters@V?$AlgorithmParameters@V?$AlgorithmParameters@V?$AlgorithmParameters@V?$AlgorithmParameters@V?$AlgorithmParameters@VNullNameValuePairs@CryptoPP@@PEBE@CryptoPP@@E@CryptoPP@@H@CryptoPP@@VConstByteArrayParameter@2@@CryptoPP@@VConstByteArrayParameter@2@@CryptoPP@@H@CryptoPP@@UEAA@XZ 0000000180032dd0 f i cryptlib64:base64.obj
 0001:00031e40       ?AssignValue@?$AlgorithmParametersBase2@E@CryptoPP@@UEBAXPEBDAEBVtype_info@@PEAX@Z 0000000180032e40 f i cryptlib64:base64.obj
 0001:00031ed0       ??$?RE@?$AlgorithmParameters@VNullNameValuePairs@CryptoPP@@PEBE@CryptoPP@@QEBA?AV?$AlgorithmParameters@V?$AlgorithmParameters@VNullNameValuePairs@CryptoPP@@PEBE@CryptoPP@@E@1@PEBDAEBE@Z 0000000180032ed0 f i cryptlib64:base64.obj
 0001:00031f40       ??$?RH@?$AlgorithmParameters@V?$AlgorithmParameters@VNullNameValuePairs@CryptoPP@@PEBE@CryptoPP@@E@CryptoPP@@QEBA?AV?$AlgorithmParameters@V?$AlgorithmParameters@V?$AlgorithmParameters@VNullNameValuePairs@CryptoPP@@PEBE@CryptoPP@@E@CryptoPP@@H@1@PEBDAEBH@Z 0000000180032f40 f i cryptlib64:base64.obj
 0001:00032000       ??$?RVConstByteArrayParameter@CryptoPP@@@?$AlgorithmParameters@V?$AlgorithmParameters@V?$AlgorithmParameters@VNullNameValuePairs@CryptoPP@@PEBE@CryptoPP@@E@CryptoPP@@H@CryptoPP@@QEBA?AV?$AlgorithmParameters@V?$AlgorithmParameters@V?$AlgorithmParameters@V?$AlgorithmParameters@VNullNameValuePairs@CryptoPP@@PEBE@CryptoPP@@E@CryptoPP@@H@CryptoPP@@VConstByteArrayParameter@2@@1@PEBDAEBVConstByteArrayParameter@1@@Z 0000000180033000 f i cryptlib64:base64.obj
 0001:00032060       ??$?RVConstByteArrayParameter@CryptoPP@@@?$AlgorithmParameters@V?$AlgorithmParameters@V?$AlgorithmParameters@V?$AlgorithmParameters@VNullNameValuePairs@CryptoPP@@PEBE@CryptoPP@@E@CryptoPP@@H@CryptoPP@@VConstByteArrayParameter@2@@CryptoPP@@QEBA?AV?$AlgorithmParameters@V?$AlgorithmParameters@V?$AlgorithmParameters@V?$AlgorithmParameters@V?$AlgorithmParameters@VNullNameValuePairs@CryptoPP@@PEBE@CryptoPP@@E@CryptoPP@@H@CryptoPP@@VConstByteArrayParameter@2@@CryptoPP@@VConstByteArrayParameter@2@@1@PEBDAEBVConstByteArrayParameter@1@@Z 0000000180033060 f i cryptlib64:base64.obj
 0001:00032090       ??$?RH@?$AlgorithmParameters@V?$AlgorithmParameters@V?$AlgorithmParameters@V?$AlgorithmParameters@V?$AlgorithmParameters@VNullNameValuePairs@CryptoPP@@PEBE@CryptoPP@@E@CryptoPP@@H@CryptoPP@@VConstByteArrayParameter@2@@CryptoPP@@VConstByteArrayParameter@2@@CryptoPP@@QEBA?AV?$AlgorithmParameters@V?$AlgorithmParameters@V?$AlgorithmParameters@V?$AlgorithmParameters@V?$AlgorithmParameters@V?$AlgorithmParameters@VNullNameValuePairs@CryptoPP@@PEBE@CryptoPP@@E@CryptoPP@@H@CryptoPP@@VConstByteArrayParameter@2@@CryptoPP@@VConstByteArrayParameter@2@@CryptoPP@@H@1@PEBDAEBH_N@Z 0000000180033090 f i cryptlib64:base64.obj
 0001:000320f0       ??0?$AlgorithmParameters@V?$AlgorithmParameters@V?$AlgorithmParameters@V?$AlgorithmParameters@V?$AlgorithmParameters@VNullNameValuePairs@CryptoPP@@PEBE@CryptoPP@@E@CryptoPP@@H@CryptoPP@@VConstByteArrayParameter@2@@CryptoPP@@VConstByteArrayParameter@2@@CryptoPP@@QEAA@AEBV?$AlgorithmParameters@V?$AlgorithmParameters@V?$AlgorithmParameters@V?$AlgorithmParameters@VNullNameValuePairs@CryptoPP@@PEBE@CryptoPP@@E@CryptoPP@@H@CryptoPP@@VConstByteArrayParameter@2@@1@PEBDAEBVConstByteArrayParameter@1@_N@Z 00000001800330f0 f i cryptlib64:base64.obj
 0001:00032180       ??_E?$AlgorithmParameters@V?$AlgorithmParameters@V?$AlgorithmParameters@V?$AlgorithmParameters@V?$AlgorithmParameters@V?$AlgorithmParameters@VNullNameValuePairs@CryptoPP@@PEBE@CryptoPP@@E@CryptoPP@@H@CryptoPP@@VConstByteArrayParameter@2@@CryptoPP@@VConstByteArrayParameter@2@@CryptoPP@@H@CryptoPP@@UEAAPEAXI@Z 0000000180033180 f i * CIL library *:* CIL module *
 0001:00032180       ??_G?$AlgorithmParameters@V?$AlgorithmParameters@V?$AlgorithmParameters@V?$AlgorithmParameters@V?$AlgorithmParameters@V?$AlgorithmParameters@VNullNameValuePairs@CryptoPP@@PEBE@CryptoPP@@E@CryptoPP@@H@CryptoPP@@VConstByteArrayParameter@2@@CryptoPP@@VConstByteArrayParameter@2@@CryptoPP@@H@CryptoPP@@UEAAPEAXI@Z 0000000180033180 f i cryptlib64:base64.obj
 0001:00032210       ??_E?$AlgorithmParameters@V?$AlgorithmParameters@V?$AlgorithmParameters@V?$AlgorithmParameters@V?$AlgorithmParameters@VNullNameValuePairs@CryptoPP@@PEBE@CryptoPP@@E@CryptoPP@@H@CryptoPP@@VConstByteArrayParameter@2@@CryptoPP@@VConstByteArrayParameter@2@@CryptoPP@@UEAAPEAXI@Z 0000000180033210 f i * CIL library *:* CIL module *
 0001:00032210       ??_G?$AlgorithmParameters@V?$AlgorithmParameters@V?$AlgorithmParameters@V?$AlgorithmParameters@V?$AlgorithmParameters@VNullNameValuePairs@CryptoPP@@PEBE@CryptoPP@@E@CryptoPP@@H@CryptoPP@@VConstByteArrayParameter@2@@CryptoPP@@VConstByteArrayParameter@2@@CryptoPP@@UEAAPEAXI@Z 0000000180033210 f i cryptlib64:base64.obj
 0001:00032250       ??_E?$AlgorithmParameters@V?$AlgorithmParameters@V?$AlgorithmParameters@V?$AlgorithmParameters@VNullNameValuePairs@CryptoPP@@PEBE@CryptoPP@@E@CryptoPP@@H@CryptoPP@@VConstByteArrayParameter@2@@CryptoPP@@UEAAPEAXI@Z 0000000180033250 f i * CIL library *:* CIL module *
 0001:00032250       ??_G?$AlgorithmParameters@V?$AlgorithmParameters@V?$AlgorithmParameters@V?$AlgorithmParameters@VNullNameValuePairs@CryptoPP@@PEBE@CryptoPP@@E@CryptoPP@@H@CryptoPP@@VConstByteArrayParameter@2@@CryptoPP@@UEAAPEAXI@Z 0000000180033250 f i cryptlib64:base64.obj
 0001:000322f0       ??_E?$AlgorithmParameters@V?$AlgorithmParameters@V?$AlgorithmParameters@VNullNameValuePairs@CryptoPP@@PEBE@CryptoPP@@E@CryptoPP@@H@CryptoPP@@UEAAPEAXI@Z 00000001800332f0 f i * CIL library *:* CIL module *
 0001:000322f0       ??_G?$AlgorithmParameters@V?$AlgorithmParameters@V?$AlgorithmParameters@VNullNameValuePairs@CryptoPP@@PEBE@CryptoPP@@E@CryptoPP@@H@CryptoPP@@UEAAPEAXI@Z 00000001800332f0 f i cryptlib64:base64.obj
 0001:00032380       ??0?$AlgorithmParameters@V?$AlgorithmParameters@V?$AlgorithmParameters@V?$AlgorithmParameters@V?$AlgorithmParameters@VNullNameValuePairs@CryptoPP@@PEBE@CryptoPP@@E@CryptoPP@@H@CryptoPP@@VConstByteArrayParameter@2@@CryptoPP@@VConstByteArrayParameter@2@@CryptoPP@@QEAA@AEBV01@@Z 0000000180033380 f i cryptlib64:base64.obj
 0001:00032400       ??0?$AlgorithmParameters@V?$AlgorithmParameters@V?$AlgorithmParameters@VNullNameValuePairs@CryptoPP@@PEBE@CryptoPP@@E@CryptoPP@@H@CryptoPP@@QEAA@AEBV01@@Z 0000000180033400 f i cryptlib64:base64.obj
 0001:000324d0       ??0RandomPool@CryptoPP@@QEAA@XZ 00000001800334d0 f   cryptlib64:randpool.obj
 0001:00032590       ??_GRandomPool@CryptoPP@@UEAAPEAXI@Z 0000000180033590 f i cryptlib64:randpool.obj
 0001:00032590       ??_ERandomPool@CryptoPP@@UEAAPEAXI@Z 0000000180033590 f i * CIL library *:* CIL module *
 0001:00032620       ?IncorporateEntropy@RandomPool@CryptoPP@@UEAAXPEBE_K@Z 0000000180033620 f   cryptlib64:randpool.obj
 0001:00032770       ?GenerateIntoBufferedTransformation@RandomPool@CryptoPP@@UEAAXAEAVBufferedTransformation@2@AEBV?$basic_string@DU?$char_traits@D@std@@V?$allocator@D@2@@std@@_K@Z 0000000180033770 f   cryptlib64:randpool.obj
 0001:00032860       ?Clone@?$ClonableImpl@V?$BlockCipherFinal@$0A@VEnc@Rijndael@CryptoPP@@@CryptoPP@@VEnc@Rijndael@2@@CryptoPP@@UEBAPEAVClonable@2@XZ 0000000180033860 f i cryptlib64:randpool.obj
 0001:000328c0       ?AlgorithmName@?$AlgorithmImpl@V?$SimpleKeyingInterfaceImpl@V?$TwoBases@V?$SimpleKeyedTransformation@VBlockTransformation@CryptoPP@@@CryptoPP@@URijndael_Info@2@@CryptoPP@@V12@@CryptoPP@@V12@@CryptoPP@@UEBA?AV?$basic_string@DU?$char_traits@D@std@@V?$allocator@D@2@@std@@XZ 00000001800338c0 f i cryptlib64:randpool.obj
 0001:00032930       ?IVRequirement@?$SimpleKeyingInterfaceImpl@V?$TwoBases@V?$SimpleKeyedTransformation@VBlockTransformation@CryptoPP@@@CryptoPP@@URijndael_Info@2@@CryptoPP@@V12@@CryptoPP@@UEBA?AW4IV_Requirement@SimpleKeyingInterface@2@XZ 0000000180033930 f i cryptlib64:randpool.obj
 0001:00032940       ?GetValidKeyLength@?$SimpleKeyingInterfaceImpl@V?$TwoBases@V?$SimpleKeyedTransformation@VBlockTransformation@CryptoPP@@@CryptoPP@@URijndael_Info@2@@CryptoPP@@V12@@CryptoPP@@UEBA_K_K@Z 0000000180033940 f i cryptlib64:randpool.obj
 0001:00032970       ?BlockSize@?$BlockCipherImpl@URijndael_Info@CryptoPP@@V?$SimpleKeyedTransformation@VBlockTransformation@CryptoPP@@@2@@CryptoPP@@UEBAIXZ 0000000180033970 f i cryptlib64:randpool.obj
 0001:00032970       ?DefaultKeyLength@?$SimpleKeyingInterfaceImpl@V?$TwoBases@V?$SimpleKeyedTransformation@VBlockTransformation@CryptoPP@@@CryptoPP@@URijndael_Info@2@@CryptoPP@@V12@@CryptoPP@@UEBA_KXZ 0000000180033970 f i cryptlib64:randpool.obj
 0001:00032970       ?MinKeyLength@?$SimpleKeyingInterfaceImpl@V?$TwoBases@V?$SimpleKeyedTransformation@VBlockTransformation@CryptoPP@@@CryptoPP@@URijndael_Info@2@@CryptoPP@@V12@@CryptoPP@@UEBA_KXZ 0000000180033970 f i cryptlib64:randpool.obj
 0001:00032980       ??_G?$BlockCipherFinal@$0A@VEnc@Rijndael@CryptoPP@@@CryptoPP@@UEAAPEAXI@Z 0000000180033980 f i cryptlib64:randpool.obj
 0001:00032980       ??_E?$BlockCipherFinal@$0A@VEnc@Rijndael@CryptoPP@@@CryptoPP@@UEAAPEAXI@Z 0000000180033980 f i * CIL library *:* CIL module *
 0001:000329e0       ??1?$ClonableImpl@V?$BlockCipherFinal@$0A@VEnc@Rijndael@CryptoPP@@@CryptoPP@@VEnc@Rijndael@2@@CryptoPP@@UEAA@XZ 00000001800339e0 f i cryptlib64:randpool.obj
 0001:000329e0       ??1Base@Rijndael@CryptoPP@@UEAA@XZ 00000001800339e0 f i cryptlib64:randpool.obj
 0001:000329e0       ??1Enc@Rijndael@CryptoPP@@UEAA@XZ 00000001800339e0 f i cryptlib64:randpool.obj
 0001:00032a10       ??0Base@Rijndael@CryptoPP@@QEAA@AEBV012@@Z 0000000180033a10 f i cryptlib64:randpool.obj
 0001:00032aa0       ??1?$SecBlock@IV?$AllocatorWithCleanup@I$0A@@CryptoPP@@@CryptoPP@@QEAA@XZ 0000000180033aa0 f i cryptlib64:randpool.obj
 0001:00032ad0       ?allocate@?$AllocatorWithCleanup@I$0A@@CryptoPP@@QEAAPEAI_KPEBX@Z 0000000180033ad0 f i cryptlib64:randpool.obj
 0001:00032b50       ?CheckSize@?$AllocatorBase@I@CryptoPP@@KAX_K@Z 0000000180033b50 f i cryptlib64:randpool.obj
 0001:00032c64       ??_E?$BlockCipherFinal@$0A@VEnc@Rijndael@CryptoPP@@@CryptoPP@@W7EAAPEAXI@Z 0000000180033c64 f i cryptlib64:randpool.obj
 0001:00032c70       ?GetAlgorithm@?$SimpleKeyedTransformation@VBlockTransformation@CryptoPP@@@CryptoPP@@MEBAAEBVAlgorithm@2@XZ 0000000180033c70 f i cryptlib64:randpool.obj
 0001:00032c80       ?Resynchronize@SimpleKeyingInterface@CryptoPP@@UEAAXPEBE@Z 0000000180033c80 f i cryptlib64:randpool.obj
 0001:00032d60       ?IsValidKeyLength@SimpleKeyingInterface@CryptoPP@@UEBA_N_K@Z 0000000180033d60 f i cryptlib64:randpool.obj
 0001:00032d80       ?GetVoidValue@CombinedNameValuePairs@CryptoPP@@UEBA_NPEBDAEBVtype_info@@PEAX@Z 0000000180033d80 f   cryptlib64:algparam.obj
 0001:00032e20       ?GetVoidValue@AlgorithmParametersBase@CryptoPP@@UEBA_NPEBDAEBVtype_info@@PEAX@Z 0000000180033e20 f   cryptlib64:algparam.obj
 0001:00032f30       ?xorbuf@CryptoPP@@YAXPEAEPEBE_K@Z 0000000180033f30 f   cryptlib64:misc.obj
 0001:00033170       ?CallNewHandler@CryptoPP@@YAXXZ 0000000180034170 f   cryptlib64:misc.obj
 0001:000331d0       ??0bad_alloc@std@@QEAA@AEBV01@@Z 00000001800341d0 f i cryptlib64:misc.obj
 0001:00033210       ??0bad_alloc@std@@QEAA@XZ  0000000180034210 f i cryptlib64:misc.obj
 0001:00033230       ?FindNextWindow@WindowSlider@CryptoPP@@QEAAXXZ 0000000180034230 f i cryptlib64:dll.obj
 0001:00033350       ??0HashInputTooLong@CryptoPP@@QEAA@AEBV?$basic_string@DU?$char_traits@D@std@@V?$allocator@D@2@@std@@@Z 0000000180034350 f i cryptlib64:dll.obj
 0001:00033450       ?HashBlock@?$IteratedHashBase@IVHashTransformation@CryptoPP@@@CryptoPP@@IEAAXPEBI@Z 0000000180034450 f i cryptlib64:dll.obj
 0001:00033490       ??1?$vector@VInteger@CryptoPP@@V?$allocator@VInteger@CryptoPP@@@std@@@std@@QEAA@XZ 0000000180034490 f i cryptlib64:dll.obj
 0001:000334b0       ?deallocate@?$_Wrap_alloc@V?$allocator@VInteger@CryptoPP@@@std@@@std@@QEAAXPEAVInteger@CryptoPP@@_K@Z 00000001800344b0 f i cryptlib64:dll.obj
 0001:00033520       ?_Tidy@?$vector@VInteger@CryptoPP@@V?$allocator@VInteger@CryptoPP@@@std@@@std@@IEAAXXZ 0000000180034520 f i cryptlib64:dll.obj
 0001:000335a0       ?allocate@?$_Wrap_alloc@V?$allocator@VInteger@CryptoPP@@@std@@@std@@QEAAPEAVInteger@CryptoPP@@_K@Z 00000001800345a0 f i cryptlib64:dll.obj
 0001:00033610       ?ScalarMultiply@?$AbstractGroup@VInteger@CryptoPP@@@CryptoPP@@UEBA?AVInteger@2@AEBV32@0@Z 0000000180034610 f i cryptlib64:dll.obj
 0001:00033690       ?CascadeScalarMultiply@?$AbstractGroup@VInteger@CryptoPP@@@CryptoPP@@UEBA?AVInteger@2@AEBV32@000@Z 0000000180034690 f i cryptlib64:dll.obj
 0001:00034510       ?SimultaneousMultiply@?$AbstractGroup@VInteger@CryptoPP@@@CryptoPP@@UEBAXPEAVInteger@2@AEBV32@PEBV32@I@Z 0000000180035510 f i cryptlib64:dll.obj
 0001:00035260       ?Exponentiate@?$AbstractRing@VInteger@CryptoPP@@@CryptoPP@@UEBA?AVInteger@2@AEBV32@0@Z 0000000180036260 f i cryptlib64:dll.obj
 0001:000352e0       ?CascadeExponentiate@?$AbstractRing@VInteger@CryptoPP@@@CryptoPP@@UEBA?AVInteger@2@AEBV32@000@Z 00000001800362e0 f i cryptlib64:dll.obj
 0001:00035350       ?Gcd@?$AbstractEuclideanDomain@VInteger@CryptoPP@@@CryptoPP@@UEBAAEBVInteger@2@AEBV32@0@Z 0000000180036350 f i cryptlib64:dll.obj
 0001:00035620       ?Update@?$IteratedHashBase@IVHashTransformation@CryptoPP@@@CryptoPP@@UEAAXPEBE_K@Z 0000000180036620 f i cryptlib64:dll.obj
 0001:00035780       ?CreateUpdateSpace@?$IteratedHashBase@IVHashTransformation@CryptoPP@@@CryptoPP@@UEAAPEAEAEA_K@Z 0000000180036780 f i cryptlib64:dll.obj
 0001:000357d0       ?Restart@?$IteratedHashBase@IVHashTransformation@CryptoPP@@@CryptoPP@@UEAAXXZ 00000001800367d0 f i cryptlib64:dll.obj
 0001:000357e0       ?TruncatedFinal@?$IteratedHashBase@IVHashTransformation@CryptoPP@@@CryptoPP@@UEAAXPEAE_K@Z 00000001800367e0 f i cryptlib64:dll.obj
 0001:00035900       ?PadLastBlock@?$IteratedHashBase@IVHashTransformation@CryptoPP@@@CryptoPP@@IEAAXIE@Z 0000000180036900 f i cryptlib64:dll.obj
 0001:000359a0       ?HashMultipleBlocks@?$IteratedHashBase@IVHashTransformation@CryptoPP@@@CryptoPP@@MEAA_KPEBI_K@Z 00000001800369a0 f i cryptlib64:dll.obj
 0001:00035b20       ??$_Destroy_range@V?$allocator@VInteger@CryptoPP@@@std@@PEAVInteger@CryptoPP@@@std@@YAXPEAVInteger@CryptoPP@@0AEAU?$_Wrap_alloc@V?$allocator@VInteger@CryptoPP@@@std@@@0@@Z 0000000180036b20 f i cryptlib64:dll.obj
 0001:00035b60       ??1WindowSlider@CryptoPP@@QEAA@XZ 0000000180036b60 f i cryptlib64:dll.obj
 0001:00035bc0       ??0HashInputTooLong@CryptoPP@@QEAA@AEBV01@@Z 0000000180036bc0 f i cryptlib64:dll.obj
 0001:00035bf0       ??1?$vector@UWindowSlider@CryptoPP@@V?$allocator@UWindowSlider@CryptoPP@@@std@@@std@@QEAA@XZ 0000000180036bf0 f i cryptlib64:dll.obj
 0001:00035c60       ??1?$vector@V?$vector@VInteger@CryptoPP@@V?$allocator@VInteger@CryptoPP@@@std@@@std@@V?$allocator@V?$vector@VInteger@CryptoPP@@V?$allocator@VInteger@CryptoPP@@@std@@@std@@@2@@std@@QEAA@XZ 0000000180036c60 f i cryptlib64:dll.obj
 0001:00035c80       ??0?$vector@V?$vector@VInteger@CryptoPP@@V?$allocator@VInteger@CryptoPP@@@std@@@std@@V?$allocator@V?$vector@VInteger@CryptoPP@@V?$allocator@VInteger@CryptoPP@@@std@@@std@@@2@@std@@QEAA@_K@Z 0000000180036c80 f i cryptlib64:dll.obj
 0001:00035ce0       ?resize@?$vector@VInteger@CryptoPP@@V?$allocator@VInteger@CryptoPP@@@std@@@std@@QEAAX_KAEBVInteger@CryptoPP@@@Z 0000000180036ce0 f i cryptlib64:dll.obj
 0001:00035e40       ??0?$vector@VInteger@CryptoPP@@V?$allocator@VInteger@CryptoPP@@@std@@@std@@QEAA@_K@Z 0000000180036e40 f i cryptlib64:dll.obj
 0001:00035ee0       ?_Reserve@?$vector@UWindowSlider@CryptoPP@@V?$allocator@UWindowSlider@CryptoPP@@@std@@@std@@IEAAX_K@Z 0000000180036ee0 f i cryptlib64:dll.obj
 0001:00035fb0       ?_Reallocate@?$vector@UWindowSlider@CryptoPP@@V?$allocator@UWindowSlider@CryptoPP@@@std@@@std@@IEAAX_K@Z 0000000180036fb0 f i cryptlib64:dll.obj
 0001:000360e0       ?_Tidy@?$vector@V?$vector@VInteger@CryptoPP@@V?$allocator@VInteger@CryptoPP@@@std@@@std@@V?$allocator@V?$vector@VInteger@CryptoPP@@V?$allocator@VInteger@CryptoPP@@@std@@@std@@@2@@std@@IEAAXXZ 00000001800370e0 f i cryptlib64:dll.obj
 0001:000361b0       ?_Buy@?$vector@V?$vector@VInteger@CryptoPP@@V?$allocator@VInteger@CryptoPP@@@std@@@std@@V?$allocator@V?$vector@VInteger@CryptoPP@@V?$allocator@VInteger@CryptoPP@@@std@@@std@@@2@@std@@IEAA_N_K@Z 00000001800371b0 f i cryptlib64:dll.obj
 0001:00036260       ?_Reserve@?$vector@VInteger@CryptoPP@@V?$allocator@VInteger@CryptoPP@@@std@@@std@@IEAAX_K@Z 0000000180037260 f i cryptlib64:dll.obj
 0001:00036330       ?deallocate@?$_Wrap_alloc@V?$allocator@UWindowSlider@CryptoPP@@@std@@@std@@QEAAXPEAUWindowSlider@CryptoPP@@_K@Z 0000000180037330 f i cryptlib64:dll.obj
 0001:000363a0       ?_Reallocate@?$vector@VInteger@CryptoPP@@V?$allocator@VInteger@CryptoPP@@@std@@@std@@IEAAX_K@Z 00000001800373a0 f i cryptlib64:dll.obj
 0001:000364f0       ??$ByteReverse@I@CryptoPP@@YAXPEAIPEBI_K@Z 00000001800374f0 f i cryptlib64:dll.obj
 0001:000365b0       ??$_Destroy_range@V?$allocator@UWindowSlider@CryptoPP@@@std@@PEAUWindowSlider@CryptoPP@@@std@@YAXPEAUWindowSlider@CryptoPP@@0AEAU?$_Wrap_alloc@V?$allocator@UWindowSlider@CryptoPP@@@std@@@0@@Z 00000001800375b0 f i cryptlib64:dll.obj
 0001:00036630       ??$_Uninitialized_default_fill_n1@PEAV?$vector@VInteger@CryptoPP@@V?$allocator@VInteger@CryptoPP@@@std@@@std@@_KV?$allocator@V?$vector@VInteger@CryptoPP@@V?$allocator@VInteger@CryptoPP@@@std@@@std@@@2@@std@@YAXPEAV?$vector@VInteger@CryptoPP@@V?$allocator@VInteger@CryptoPP@@@std@@@0@_KAEAU?$_Wrap_alloc@V?$allocator@V?$vector@VInteger@CryptoPP@@V?$allocator@VInteger@CryptoPP@@@std@@@std@@@std@@@0@U?$integral_constant@_N$0A@@0@@Z 0000000180037630 f i cryptlib64:dll.obj
 0001:00036680       ??$_Uninitialized_default_fill_n1@PEAVInteger@CryptoPP@@_KV?$allocator@VInteger@CryptoPP@@@std@@@std@@YAXPEAVInteger@CryptoPP@@_KAEAU?$_Wrap_alloc@V?$allocator@VInteger@CryptoPP@@@std@@@0@U?$integral_constant@_N$0A@@0@@Z 0000000180037680 f i cryptlib64:dll.obj
 0001:000366e0       ??$_Uninit_alloc_fill_n1@PEAVInteger@CryptoPP@@_KV?$allocator@VInteger@CryptoPP@@@std@@@std@@YAXPEAVInteger@CryptoPP@@_KPEBV12@AEAU?$_Wrap_alloc@V?$allocator@VInteger@CryptoPP@@@std@@@0@U?$integral_constant@_N$0A@@0@@Z 00000001800376e0 f i cryptlib64:dll.obj
 0001:00036740       ??$_Destroy_range1@V?$allocator@V?$vector@VInteger@CryptoPP@@V?$allocator@VInteger@CryptoPP@@@std@@@std@@@std@@PEAV?$vector@VInteger@CryptoPP@@V?$allocator@VInteger@CryptoPP@@@std@@@2@@std@@YAXPEAV?$vector@VInteger@CryptoPP@@V?$allocator@VInteger@CryptoPP@@@std@@@0@0AEAU?$_Wrap_alloc@V?$allocator@V?$vector@VInteger@CryptoPP@@V?$allocator@VInteger@CryptoPP@@@std@@@std@@@std@@@0@U?$integral_constant@_N$0A@@0@@Z 0000000180037740 f i cryptlib64:dll.obj
 0001:00036870       ??$_Uninitialized_move_al_unchecked1@PEAUWindowSlider@CryptoPP@@PEAU12@V?$allocator@UWindowSlider@CryptoPP@@@std@@@std@@YAPEAUWindowSlider@CryptoPP@@PEAU12@00AEAU?$_Wrap_alloc@V?$allocator@UWindowSlider@CryptoPP@@@std@@@0@U_General_ptr_iterator_tag@0@U_Any_tag@0@@Z 0000000180037870 f i cryptlib64:dll.obj
 0001:00036910       ??$_Uninitialized_move_al_unchecked1@PEAVInteger@CryptoPP@@PEAV12@V?$allocator@VInteger@CryptoPP@@@std@@@std@@YAPEAVInteger@CryptoPP@@PEAV12@00AEAU?$_Wrap_alloc@V?$allocator@VInteger@CryptoPP@@@std@@@0@U_General_ptr_iterator_tag@0@U_Any_tag@0@@Z 0000000180037910 f i cryptlib64:dll.obj
 0001:00036980       ?MaxUnpaddedLength@OAEP_Base@CryptoPP@@UEBA_K_K@Z 0000000180037980 f   cryptlib64:oaep.obj
 0001:000369c0       ?Pad@OAEP_Base@CryptoPP@@UEBAXAEAVRandomNumberGenerator@2@PEBE_KPEAE2AEBVNameValuePairs@2@@Z 00000001800379c0 f   cryptlib64:oaep.obj
 0001:00036ba0       ?Unpad@OAEP_Base@CryptoPP@@UEBA?AUDecodingResult@2@PEBE_KPEAEAEBVNameValuePairs@2@@Z 0000000180037ba0 f   cryptlib64:oaep.obj
 0001:00036ec0       ?IsolatedInitialize@MessageQueue@CryptoPP@@UEAAXAEBVNameValuePairs@2@@Z 0000000180037ec0 f i cryptlib64:mqueue.obj
 0001:00036f10       ?Put2@MessageQueue@CryptoPP@@UEAA_KPEBE_KH_N@Z 0000000180037f10 f i cryptlib64:mqueue.obj
 0001:00037010       ?IsolatedMessageSeriesEnd@MessageQueue@CryptoPP@@UEAA_N_N@Z 0000000180038010 f i cryptlib64:mqueue.obj
 0001:00037040       ?MaxRetrievable@MessageQueue@CryptoPP@@UEBA_KXZ 0000000180038040 f i cryptlib64:mqueue.obj
 0001:00037090       ?AnyRetrievable@MessageQueue@CryptoPP@@UEBA_NXZ 0000000180038090 f i cryptlib64:mqueue.obj
 0001:000370e0       ?TotalBytesRetrievable@MessageQueue@CryptoPP@@UEBA_KXZ 00000001800380e0 f i cryptlib64:mqueue.obj
 0001:000370f0       ?NumberOfMessages@MessageQueue@CryptoPP@@UEBAIXZ 00000001800380f0 f i cryptlib64:mqueue.obj
 0001:00037100       ?NumberOfMessagesInThisSeries@MessageQueue@CryptoPP@@UEBAIXZ 0000000180038100 f i cryptlib64:mqueue.obj
 0001:00037160       ?NumberOfMessageSeries@MessageQueue@CryptoPP@@UEBAIXZ 0000000180038160 f i cryptlib64:mqueue.obj
 0001:00037170       ??1MessageQueue@CryptoPP@@UEAA@XZ 0000000180038170 f i cryptlib64:mqueue.obj
 0001:000371e0       ??0MessageQueue@CryptoPP@@QEAA@I@Z 00000001800381e0 f   cryptlib64:mqueue.obj
 0001:000372f0       ??_EMessageQueue@CryptoPP@@UEAAPEAXI@Z 00000001800382f0 f i * CIL library *:* CIL module *
 0001:000372f0       ??_GMessageQueue@CryptoPP@@UEAAPEAXI@Z 00000001800382f0 f i cryptlib64:mqueue.obj
 0001:00037330       ?CopyRangeTo2@MessageQueue@CryptoPP@@UEBA_KAEAVBufferedTransformation@2@AEA_K_KAEBV?$basic_string@DU?$char_traits@D@std@@V?$allocator@D@2@@std@@_N@Z 0000000180038330 f   cryptlib64:mqueue.obj
 0001:000373b0       ?TransferTo2@MessageQueue@CryptoPP@@UEAA_KAEAVBufferedTransformation@2@AEA_KAEBV?$basic_string@DU?$char_traits@D@std@@V?$allocator@D@2@@std@@_N@Z 00000001800383b0 f   cryptlib64:mqueue.obj
 0001:00037470       ?GetNextMessage@MessageQueue@CryptoPP@@UEAA_NXZ 0000000180038470 f   cryptlib64:mqueue.obj
 0001:00037550       ?assign@?$deque@IV?$allocator@I@std@@@std@@QEAAX_KAEBI@Z 0000000180038550 f i cryptlib64:mqueue.obj
 0001:00037640       ??1?$deque@_KV?$allocator@_K@std@@@std@@QEAA@XZ 0000000180038640 f i cryptlib64:mqueue.obj
 0001:00037640       ??1?$deque@IV?$allocator@I@std@@@std@@QEAA@XZ 0000000180038640 f i cryptlib64:mqueue.obj
 0001:00037670       ?push_back@?$deque@IV?$allocator@I@std@@@std@@QEAAX$$QEAI@Z 0000000180038670 f i cryptlib64:mqueue.obj
 0001:00037670       ?push_back@?$deque@IV?$allocator@I@std@@@std@@QEAAXAEBI@Z 0000000180038670 f i cryptlib64:mqueue.obj
 0001:00037740       ?assign@?$deque@_KV?$allocator@_K@std@@@std@@QEAAX_KAEB_K@Z 0000000180038740 f i cryptlib64:mqueue.obj
 0001:00037830       ?begin@?$deque@IV?$allocator@I@std@@@std@@QEAA?AV?$_Deque_iterator@V?$_Deque_val@U?$_Deque_simple_types@I@std@@@std@@@2@XZ 0000000180038830 f i cryptlib64:mqueue.obj
 0001:00037830       ?begin@?$deque@_KV?$allocator@_K@std@@@std@@QEAA?AV?$_Deque_iterator@V?$_Deque_val@U?$_Deque_simple_types@_K@std@@@std@@@2@XZ 0000000180038830 f i cryptlib64:mqueue.obj
 0001:00037830       ?begin@?$deque@IV?$allocator@I@std@@@std@@QEBA?AV?$_Deque_const_iterator@V?$_Deque_val@U?$_Deque_simple_types@I@std@@@std@@@2@XZ 0000000180038830 f i cryptlib64:mqueue.obj
 0001:00037830       ?begin@?$deque@_KV?$allocator@_K@std@@@std@@QEBA?AV?$_Deque_const_iterator@V?$_Deque_val@U?$_Deque_simple_types@_K@std@@@std@@@2@XZ 0000000180038830 f i cryptlib64:mqueue.obj
 0001:00037850       ?push_back@?$deque@_KV?$allocator@_K@std@@@std@@QEAAX$$QEA_K@Z 0000000180038850 f i cryptlib64:mqueue.obj
 0001:00037920       ??H?$_Deque_const_iterator@V?$_Deque_val@U?$_Deque_simple_types@I@std@@@std@@@std@@QEBA?AV01@_J@Z 0000000180038920 f i cryptlib64:mqueue.obj
 0001:00037960       ??G?$_Deque_iterator@V?$_Deque_val@U?$_Deque_simple_types@_K@std@@@std@@@std@@QEBA?AV01@_J@Z 0000000180038960 f i cryptlib64:mqueue.obj
 0001:00037960       ??G?$_Deque_iterator@V?$_Deque_val@U?$_Deque_simple_types@I@std@@@std@@@std@@QEBA?AV01@_J@Z 0000000180038960 f i cryptlib64:mqueue.obj
 0001:000379b0       ??H?$_Deque_iterator@V?$_Deque_val@U?$_Deque_simple_types@_K@std@@@std@@@std@@QEBA?AV01@_J@Z 00000001800389b0 f i cryptlib64:mqueue.obj
 0001:000379b0       ??H?$_Deque_iterator@V?$_Deque_val@U?$_Deque_simple_types@I@std@@@std@@@std@@QEBA?AV01@_J@Z 00000001800389b0 f i cryptlib64:mqueue.obj
 0001:00037a00       ??1?$_Deque_alloc@U?$_Deque_base_types@IV?$allocator@I@std@@@std@@@std@@QEAA@XZ 0000000180038a00 f i cryptlib64:mqueue.obj
 0001:00037a00       ??1?$_Deque_alloc@U?$_Deque_base_types@_KV?$allocator@_K@std@@@std@@@std@@QEAA@XZ 0000000180038a00 f i cryptlib64:mqueue.obj
 0001:00037a30       ?_Tidy@?$deque@_KV?$allocator@_K@std@@@std@@IEAAXXZ 0000000180038a30 f i cryptlib64:mqueue.obj
 0001:00037a30       ?_Tidy@?$deque@IV?$allocator@I@std@@@std@@IEAAXXZ 0000000180038a30 f i cryptlib64:mqueue.obj
 0001:00037b30       ?_Growmap@?$deque@IV?$allocator@I@std@@@std@@IEAAX_K@Z 0000000180038b30 f i cryptlib64:mqueue.obj
 0001:00037d50       ?_Insert_n@?$deque@IV?$allocator@I@std@@@std@@IEAAXV?$_Deque_const_iterator@V?$_Deque_val@U?$_Deque_simple_types@I@std@@@std@@@2@_KAEBI@Z 0000000180038d50 f i cryptlib64:mqueue.obj
 0001:00038380       ?erase@?$deque@IV?$allocator@I@std@@@std@@QEAA?AV?$_Deque_iterator@V?$_Deque_val@U?$_Deque_simple_types@I@std@@@std@@@2@V?$_Deque_const_iterator@V?$_Deque_val@U?$_Deque_simple_types@I@std@@@std@@@2@0@Z 0000000180039380 f i cryptlib64:mqueue.obj
 0001:00038590       ?end@?$deque@IV?$allocator@I@std@@@std@@QEAA?AV?$_Deque_iterator@V?$_Deque_val@U?$_Deque_simple_types@I@std@@@std@@@2@XZ 0000000180039590 f i cryptlib64:mqueue.obj
 0001:00038590       ?end@?$deque@_KV?$allocator@_K@std@@@std@@QEAA?AV?$_Deque_iterator@V?$_Deque_val@U?$_Deque_simple_types@_K@std@@@std@@@2@XZ 0000000180039590 f i cryptlib64:mqueue.obj
 0001:000385b0       ?_Construct_n@?$deque@IV?$allocator@I@std@@@std@@QEAAX_KAEBI@Z 00000001800395b0 f i cryptlib64:mqueue.obj
 0001:00038600       ?_Growmap@?$deque@_KV?$allocator@_K@std@@@std@@IEAAX_K@Z 0000000180039600 f i cryptlib64:mqueue.obj
 0001:00038820       ?_Insert_n@?$deque@_KV?$allocator@_K@std@@@std@@IEAAXV?$_Deque_const_iterator@V?$_Deque_val@U?$_Deque_simple_types@_K@std@@@std@@@2@_KAEB_K@Z 0000000180039820 f i cryptlib64:mqueue.obj
 0001:00038e50       ?erase@?$deque@_KV?$allocator@_K@std@@@std@@QEAA?AV?$_Deque_iterator@V?$_Deque_val@U?$_Deque_simple_types@_K@std@@@std@@@2@V?$_Deque_const_iterator@V?$_Deque_val@U?$_Deque_simple_types@_K@std@@@std@@@2@0@Z 0000000180039e50 f i cryptlib64:mqueue.obj
 0001:00039060       ?_Construct_n@?$deque@_KV?$allocator@_K@std@@@std@@QEAAX_KAEB_K@Z 000000018003a060 f i cryptlib64:mqueue.obj
 0001:000390b0       ?push_front@?$deque@IV?$allocator@I@std@@@std@@QEAAXAEBI@Z 000000018003a0b0 f i cryptlib64:mqueue.obj
 0001:00039190       ?_Make_iter@?$deque@_KV?$allocator@_K@std@@@std@@QEBA?AV?$_Deque_iterator@V?$_Deque_val@U?$_Deque_simple_types@_K@std@@@std@@@2@V?$_Deque_const_iterator@V?$_Deque_val@U?$_Deque_simple_types@_K@std@@@std@@@2@@Z 000000018003a190 f i cryptlib64:mqueue.obj
 0001:00039190       ?_Make_iter@?$deque@IV?$allocator@I@std@@@std@@QEBA?AV?$_Deque_iterator@V?$_Deque_val@U?$_Deque_simple_types@I@std@@@std@@@2@V?$_Deque_const_iterator@V?$_Deque_val@U?$_Deque_simple_types@I@std@@@std@@@2@@Z 000000018003a190 f i cryptlib64:mqueue.obj
 0001:000391b0       ?push_back@?$deque@_KV?$allocator@_K@std@@@std@@QEAAXAEB_K@Z 000000018003a1b0 f i cryptlib64:mqueue.obj
 0001:00039280       ?push_front@?$deque@_KV?$allocator@_K@std@@@std@@QEAAXAEB_K@Z 000000018003a280 f i cryptlib64:mqueue.obj
 0001:00039360       ??$fill@V?$_Deque_iterator@V?$_Deque_val@U?$_Deque_simple_types@I@std@@@std@@@std@@I@std@@YAXV?$_Deque_iterator@V?$_Deque_val@U?$_Deque_simple_types@I@std@@@std@@@0@0AEBI@Z 000000018003a360 f i cryptlib64:mqueue.obj
 0001:00039410       ??$move@V?$_Deque_iterator@V?$_Deque_val@U?$_Deque_simple_types@I@std@@@std@@@std@@V12@@std@@YA?AV?$_Deque_iterator@V?$_Deque_val@U?$_Deque_simple_types@I@std@@@std@@@0@V10@00@Z 000000018003a410 f i cryptlib64:mqueue.obj
 0001:000394b0       ??$move_backward@V?$_Deque_iterator@V?$_Deque_val@U?$_Deque_simple_types@I@std@@@std@@@std@@V12@@std@@YA?AV?$_Deque_iterator@V?$_Deque_val@U?$_Deque_simple_types@I@std@@@std@@@0@V10@00@Z 000000018003a4b0 f i cryptlib64:mqueue.obj
 0001:00039590       ??$fill@V?$_Deque_iterator@V?$_Deque_val@U?$_Deque_simple_types@_K@std@@@std@@@std@@_K@std@@YAXV?$_Deque_iterator@V?$_Deque_val@U?$_Deque_simple_types@_K@std@@@std@@@0@0AEB_K@Z 000000018003a590 f i cryptlib64:mqueue.obj
 0001:00039640       ??$move@V?$_Deque_iterator@V?$_Deque_val@U?$_Deque_simple_types@_K@std@@@std@@@std@@V12@@std@@YA?AV?$_Deque_iterator@V?$_Deque_val@U?$_Deque_simple_types@_K@std@@@std@@@0@V10@00@Z 000000018003a640 f i cryptlib64:mqueue.obj
 0001:000396e0       ??$move_backward@V?$_Deque_iterator@V?$_Deque_val@U?$_Deque_simple_types@_K@std@@@std@@@std@@V12@@std@@YA?AV?$_Deque_iterator@V?$_Deque_val@U?$_Deque_simple_types@_K@std@@@std@@@0@V10@00@Z 000000018003a6e0 f i cryptlib64:mqueue.obj
 0001:000397c0       ??$_Move_no_deprecate@V?$_Deque_iterator@V?$_Deque_val@U?$_Deque_simple_types@I@std@@@std@@@std@@V12@@std@@YA?AV?$_Deque_iterator@V?$_Deque_val@U?$_Deque_simple_types@I@std@@@std@@@0@V10@00@Z 000000018003a7c0 f i cryptlib64:mqueue.obj
 0001:000398a0       ??$_Move_backward1@V?$_Deque_unchecked_iterator@V?$_Deque_val@U?$_Deque_simple_types@I@std@@@std@@@std@@V?$_Deque_iterator@V?$_Deque_val@U?$_Deque_simple_types@I@std@@@std@@@2@@std@@YA?AV?$_Deque_iterator@V?$_Deque_val@U?$_Deque_simple_types@I@std@@@std@@@0@V?$_Deque_unchecked_iterator@V?$_Deque_val@U?$_Deque_simple_types@I@std@@@std@@@0@0V10@Urandom_access_iterator_tag@0@2@Z 000000018003a8a0 f i cryptlib64:mqueue.obj
 0001:000399d0       ??$_Move_no_deprecate@V?$_Deque_iterator@V?$_Deque_val@U?$_Deque_simple_types@_K@std@@@std@@@std@@V12@@std@@YA?AV?$_Deque_iterator@V?$_Deque_val@U?$_Deque_simple_types@_K@std@@@std@@@0@V10@00@Z 000000018003a9d0 f i cryptlib64:mqueue.obj
 0001:00039ab0       ??$_Move_backward1@V?$_Deque_unchecked_iterator@V?$_Deque_val@U?$_Deque_simple_types@_K@std@@@std@@@std@@V?$_Deque_iterator@V?$_Deque_val@U?$_Deque_simple_types@_K@std@@@std@@@2@@std@@YA?AV?$_Deque_iterator@V?$_Deque_val@U?$_Deque_simple_types@_K@std@@@std@@@0@V?$_Deque_unchecked_iterator@V?$_Deque_val@U?$_Deque_simple_types@_K@std@@@std@@@0@0V10@Urandom_access_iterator_tag@0@2@Z 000000018003aab0 f i cryptlib64:mqueue.obj
 0001:00039be0       ??$_Move_no_deprecate1@V?$_Deque_unchecked_iterator@V?$_Deque_val@U?$_Deque_simple_types@I@std@@@std@@@std@@V?$_Deque_iterator@V?$_Deque_val@U?$_Deque_simple_types@I@std@@@std@@@2@@std@@YA?AV?$_Deque_iterator@V?$_Deque_val@U?$_Deque_simple_types@I@std@@@std@@@0@V?$_Deque_unchecked_iterator@V?$_Deque_val@U?$_Deque_simple_types@I@std@@@std@@@0@0V10@Urandom_access_iterator_tag@0@2@Z 000000018003abe0 f i cryptlib64:mqueue.obj
 0001:00039d10       ??$_Move_no_deprecate1@V?$_Deque_unchecked_iterator@V?$_Deque_val@U?$_Deque_simple_types@_K@std@@@std@@@std@@V?$_Deque_iterator@V?$_Deque_val@U?$_Deque_simple_types@_K@std@@@std@@@2@@std@@YA?AV?$_Deque_iterator@V?$_Deque_val@U?$_Deque_simple_types@_K@std@@@std@@@0@V?$_Deque_unchecked_iterator@V?$_Deque_val@U?$_Deque_simple_types@_K@std@@@std@@@0@0V10@Urandom_access_iterator_tag@0@2@Z 000000018003ad10 f i cryptlib64:mqueue.obj
 0001:00039e40       ??_EMessageQueue@CryptoPP@@W7EAAPEAXI@Z 000000018003ae40 f i cryptlib64:mqueue.obj
 0001:00039e50       ??NCryptoPP@@YA_NAEBVInteger@0@0@Z 000000018003ae50 f i cryptlib64:nbtheory.obj
 0001:00039eb0       ?ModularExponentiation@CryptoPP@@YA?AVInteger@1@AEBV21@00@Z 000000018003aeb0 f i cryptlib64:nbtheory.obj
 0001:00039ed0       ??RNewPrimeTable@CryptoPP@@QEBAPEAV?$vector@GV?$allocator@G@std@@@std@@XZ 000000018003aed0 f i cryptlib64:nbtheory.obj
 0001:0003a1a0       ?IsSmallPrime@CryptoPP@@YA_NAEBVInteger@1@@Z 000000018003b1a0 f   cryptlib64:nbtheory.obj
 0001:0003a310       ?TrialDivision@CryptoPP@@YA_NAEBVInteger@1@I@Z 000000018003b310 f   cryptlib64:nbtheory.obj
 0001:0003a3b0       ?IsStrongProbablePrime@CryptoPP@@YA_NAEBVInteger@1@0@Z 000000018003b3b0 f   cryptlib64:nbtheory.obj
 0001:0003ac60       ?RabinMillerTest@CryptoPP@@YA_NAEAVRandomNumberGenerator@1@AEBVInteger@1@I@Z 000000018003bc60 f   cryptlib64:nbtheory.obj
 0001:0003b090       ?IsStrongLucasProbablePrime@CryptoPP@@YA_NAEBVInteger@1@@Z 000000018003c090 f   cryptlib64:nbtheory.obj
 0001:0003b910       ??RNewLastSmallPrimeSquared@CryptoPP@@QEBAPEAVInteger@1@XZ 000000018003c910 f i cryptlib64:nbtheory.obj
 0001:0003b9a0       ?IsPrime@CryptoPP@@YA_NAEBVInteger@1@@Z 000000018003c9a0 f   cryptlib64:nbtheory.obj
 0001:0003bb60       ?VerifyPrime@CryptoPP@@YA_NAEAVRandomNumberGenerator@1@AEBVInteger@1@I@Z 000000018003cb60 f   cryptlib64:nbtheory.obj
 0001:0003bc60       ?MakeParametersForTwoPrimesOfEqualSize@CryptoPP@@YA?AV?$AlgorithmParameters@V?$AlgorithmParameters@V?$AlgorithmParameters@VNullNameValuePairs@CryptoPP@@W4RandomNumberType@Integer@2@@CryptoPP@@VInteger@2@@CryptoPP@@VInteger@2@@1@I@Z 000000018003cc60 f   cryptlib64:nbtheory.obj
 0001:0003c300       ??0PrimeSieve@CryptoPP@@QEAA@AEBVInteger@1@00H@Z 000000018003d300 f   cryptlib64:nbtheory.obj
 0001:0003c3a0       ?NextCandidate@PrimeSieve@CryptoPP@@QEAA_NAEAVInteger@2@@Z 000000018003d3a0 f   cryptlib64:nbtheory.obj
 0001:0003c670       ?SieveSingle@PrimeSieve@CryptoPP@@SAXAEAV?$vector@_NV?$allocator@_N@std@@@std@@GAEBVInteger@2@1G@Z 000000018003d670 f   cryptlib64:nbtheory.obj
 0001:0003c8d0       ?DoSieve@PrimeSieve@CryptoPP@@QEAAXXZ 000000018003d8d0 f   cryptlib64:nbtheory.obj
 0001:0003cc00       ?FirstPrime@CryptoPP@@YA_NAEAVInteger@1@AEBV21@11PEBVPrimeSelector@1@@Z 000000018003dc00 f   cryptlib64:nbtheory.obj
 0001:0003d370       ??1PrimeSieve@CryptoPP@@QEAA@XZ 000000018003e370 f i cryptlib64:nbtheory.obj
 0001:0003d430       ?CRT@CryptoPP@@YA?AVInteger@1@AEBV21@0000@Z 000000018003e430 f   cryptlib64:nbtheory.obj
 0001:0003d580       ?ModularRoot@CryptoPP@@YA?AVInteger@1@AEBV21@00000@Z 000000018003e580 f   cryptlib64:nbtheory.obj
 0001:0003d840       ?Jacobi@CryptoPP@@YAHAEBVInteger@1@0@Z 000000018003e840 f   cryptlib64:nbtheory.obj
 0001:0003dcd0       ?Lucas@CryptoPP@@YA?AVInteger@1@AEBV21@00@Z 000000018003ecd0 f   cryptlib64:nbtheory.obj
 0001:0003e7d0       ?clear@?$vector@_NV?$allocator@_N@std@@@std@@QEAAXXZ 000000018003f7d0 f i cryptlib64:nbtheory.obj
 0001:0003e880       ?resize@?$vector@_NV?$allocator@_N@std@@@std@@QEAAX_K_N@Z 000000018003f880 f i cryptlib64:nbtheory.obj
 0001:0003ea10       ??1?$auto_ptr@V?$vector@GV?$allocator@G@std@@@std@@@std@@QEAA@XZ 000000018003fa10 f i cryptlib64:nbtheory.obj
 0001:0003ea70       ??0?$vector@GV?$allocator@G@std@@@std@@QEAA@XZ 000000018003fa70 f i cryptlib64:nbtheory.obj
 0001:0003ea90       ?_Insert_n@?$vector@_NV?$allocator@_N@std@@@std@@QEAA?AV?$_Vb_iterator@U?$_Wrap_alloc@V?$allocator@I@std@@@std@@@2@V?$_Vb_const_iterator@U?$_Wrap_alloc@V?$allocator@I@std@@@std@@@2@_KAEB_N@Z 000000018003fa90 f i cryptlib64:nbtheory.obj
 0001:0003ec50       ?erase@?$vector@_NV?$allocator@_N@std@@@std@@QEAA?AV?$_Vb_iterator@U?$_Wrap_alloc@V?$allocator@I@std@@@std@@@2@V?$_Vb_const_iterator@U?$_Wrap_alloc@V?$allocator@I@std@@@std@@@2@0@Z 000000018003fc50 f i cryptlib64:nbtheory.obj
 0001:0003eeb0       ?_Reserve@?$vector@GV?$allocator@G@std@@@std@@IEAAX_K@Z 000000018003feb0 f i cryptlib64:nbtheory.obj
 0001:0003ef30       ?_Reallocate@?$vector@GV?$allocator@G@std@@@std@@IEAAX_K@Z 000000018003ff30 f i cryptlib64:nbtheory.obj
 0001:0003f010       ??1?$vector@GV?$allocator@G@std@@@std@@QEAA@XZ 0000000180040010 f i cryptlib64:nbtheory.obj
 0001:0003f050       ?_Trim@?$vector@_NV?$allocator@_N@std@@@std@@QEAAX_K@Z 0000000180040050 f i cryptlib64:nbtheory.obj
 0001:0003f130       ?_Insert_x@?$vector@_NV?$allocator@_N@std@@@std@@QEAA_KV?$_Vb_const_iterator@U?$_Wrap_alloc@V?$allocator@I@std@@@std@@@2@_K@Z 0000000180040130 f i cryptlib64:nbtheory.obj
 0001:0003f360       ?deallocate@?$_Wrap_alloc@V?$allocator@G@std@@@std@@QEAAXPEAG_K@Z 0000000180040360 f i cryptlib64:nbtheory.obj
 0001:0003f3d0       ?resize@?$vector@IV?$allocator@_N@std@@@std@@QEAAX_KAEBI@Z 00000001800403d0 f i cryptlib64:nbtheory.obj
 0001:0003f560       ?_Construct_n@?$vector@IV?$allocator@_N@std@@@std@@QEAAX_KPEBI@Z 0000000180040560 f i cryptlib64:nbtheory.obj
 0001:0003f600       ?Ref@?$Singleton@V?$vector@GV?$allocator@G@std@@@std@@UNewPrimeTable@CryptoPP@@$0A@@CryptoPP@@QEBAAEBV?$vector@GV?$allocator@G@std@@@std@@XZ 0000000180040600 f i cryptlib64:nbtheory.obj
 0001:0003f6b0       ?Ref@?$Singleton@VInteger@CryptoPP@@UNewLastSmallPrimeSquared@2@$0A@@CryptoPP@@QEBAAEBVInteger@2@XZ 00000001800406b0 f i cryptlib64:nbtheory.obj
 0001:0003f760       ??$MakeParameters@W4RandomNumberType@Integer@CryptoPP@@@CryptoPP@@YA?AV?$AlgorithmParameters@VNullNameValuePairs@CryptoPP@@W4RandomNumberType@Integer@2@@0@PEBDAEBW4RandomNumberType@Integer@0@_N@Z 0000000180040760 f i cryptlib64:nbtheory.obj
 0001:0003f7a0       ??$?RVInteger@CryptoPP@@@?$AlgorithmParameters@VNullNameValuePairs@CryptoPP@@W4RandomNumberType@Integer@2@@CryptoPP@@QEBA?AV?$AlgorithmParameters@V?$AlgorithmParameters@VNullNameValuePairs@CryptoPP@@W4RandomNumberType@Integer@2@@CryptoPP@@VInteger@2@@1@PEBDAEBVInteger@1@@Z 00000001800407a0 f i cryptlib64:nbtheory.obj
 0001:0003f7d0       ??$?RVInteger@CryptoPP@@@?$AlgorithmParameters@V?$AlgorithmParameters@VNullNameValuePairs@CryptoPP@@W4RandomNumberType@Integer@2@@CryptoPP@@VInteger@2@@CryptoPP@@QEBA?AV?$AlgorithmParameters@V?$AlgorithmParameters@V?$AlgorithmParameters@VNullNameValuePairs@CryptoPP@@W4RandomNumberType@Integer@2@@CryptoPP@@VInteger@2@@CryptoPP@@VInteger@2@@1@PEBDAEBVInteger@1@@Z 00000001800407d0 f i cryptlib64:nbtheory.obj
 0001:0003f850       ??0?$AlgorithmParameters@V?$AlgorithmParameters@VNullNameValuePairs@CryptoPP@@W4RandomNumberType@Integer@2@@CryptoPP@@VInteger@2@@CryptoPP@@QEAA@AEBV?$AlgorithmParameters@VNullNameValuePairs@CryptoPP@@W4RandomNumberType@Integer@2@@1@PEBDAEBVInteger@1@_N@Z 0000000180040850 f i cryptlib64:nbtheory.obj
 0001:0003f900       ?GetCurrentTimerValue@Timer@CryptoPP@@UEAA_KXZ 0000000180040900 f   cryptlib64:hrtimer.obj
 0001:0003fa10       ??$IntToString@K@CryptoPP@@YA?AV?$basic_string@DU?$char_traits@D@std@@V?$allocator@D@2@@std@@KI@Z 0000000180040a10 f i cryptlib64:hrtimer.obj
 0001:0003fcf0       ?UncheckedSetKey@Base@Rijndael@CryptoPP@@UEAAXPEBEIAEBVNameValuePairs@3@@Z 0000000180040cf0 f   cryptlib64:rijndael.obj
 0001:00040310       ?ProcessAndXorBlock@Enc@Rijndael@CryptoPP@@UEBAXPEBE0PEAE@Z 0000000180041310 f   cryptlib64:rijndael.obj
 0001:00040350       ?New@?$SecBlock@IV?$AllocatorWithCleanup@I$0A@@CryptoPP@@@CryptoPP@@QEAAX_K@Z 0000000180041350 f i cryptlib64:rijndael.obj
 0001:000403e0       ??$RoundUpToMultipleOf@_K_K@CryptoPP@@YA_KAEB_K0@Z 00000001800413e0 f i cryptlib64:rijndael.obj
 0001:00040520       ??$?0AEAIAEAW4LogicType@@X$0A@@?$pair@IW4LogicType@@@std@@QEAA@AEAIAEAW4LogicType@@@Z 0000000180041520 f i ManagerLib:LogicManager.obj
 0001:000405a0       ??$?0AEBI$$Z$$V@?$pair@$$CBIW4LogicType@@@std@@QEAA@Upiecewise_construct_t@1@V?$tuple@AEBI@1@V?$tuple@$$V@1@@Z 00000001800415a0 f i ManagerLib:LogicManager.obj
 0001:00040620       ??$?0AEBI$0A@@?$tuple@AEBI@std@@QEAA@AEBI@Z 0000000180041620 f i ManagerLib:LogicManager.obj
 0001:000406a0       ??$?0AEBI@?$_Tuple_val@AEBI@std@@QEAA@AEBI@Z 00000001800416a0 f i ManagerLib:LogicManager.obj
 0001:00040700       ??$?0IW4LogicType@@X$0A@@?$pair@$$CBIW4LogicType@@@std@@QEAA@$$QEAU?$pair@IW4LogicType@@@1@@Z 0000000180041700 f i ManagerLib:LogicManager.obj
 0001:00040780       ??$?0U_Exact_args_t@std@@$0A@@?$tuple@$$V@std@@QEAA@U_Exact_args_t@1@@Z 0000000180041780 f i ManagerLib:LogicManager.obj
 0001:000407c0       ??$?0V?$tuple@AEBI@std@@V?$tuple@$$V@1@$0A@$$Z$S@?$pair@$$CBIW4LogicType@@@std@@QEAA@AEAV?$tuple@AEBI@1@AEAV?$tuple@$$V@1@U?$integer_sequence@_K$0A@@1@U?$integer_sequence@_K$S@1@@Z 00000001800417c0 f i ManagerLib:LogicManager.obj
 0001:00040840       ??$_Buynode@AEBUpiecewise_construct_t@std@@V?$tuple@AEBI@2@V?$tuple@$$V@2@@?$_Tree_comp_alloc@V?$_Tmap_traits@IW4LogicType@@U?$less@I@std@@V?$allocator@U?$pair@$$CBIW4LogicType@@@std@@@3@$0A@@std@@@std@@QEAAPEAU?$_Tree_node@U?$pair@$$CBIW4LogicType@@@std@@PEAX@1@AEBUpiecewise_construct_t@1@$$QEAV?$tuple@AEBI@1@$$QEAV?$tuple@$$V@1@@Z 0000000180041840 f i ManagerLib:LogicManager.obj
 0001:00040960       ??$_Buynode@U?$pair@IW4LogicType@@@std@@@?$_Tree_comp_alloc@V?$_Tmap_traits@IW4LogicType@@U?$less@I@std@@V?$allocator@U?$pair@$$CBIW4LogicType@@@std@@@3@$0A@@std@@@std@@QEAAPEAU?$_Tree_node@U?$pair@$$CBIW4LogicType@@@std@@PEAX@1@$$QEAU?$pair@IW4LogicType@@@1@@Z 0000000180041960 f i ManagerLib:LogicManager.obj
 0001:00040a40       ??$_Insert_at@AEAU?$pair@$$CBIW4LogicType@@@std@@PEAU?$_Tree_node@U?$pair@$$CBIW4LogicType@@@std@@PEAX@2@@?$_Tree@V?$_Tmap_traits@IW4LogicType@@U?$less@I@std@@V?$allocator@U?$pair@$$CBIW4LogicType@@@std@@@3@$0A@@std@@@std@@IEAA?AV?$_Tree_iterator@V?$_Tree_val@U?$_Tree_simple_types@U?$pair@$$CBIW4LogicType@@@std@@@std@@@std@@@1@_NPEAU?$_Tree_node@U?$pair@$$CBIW4LogicType@@@std@@PEAX@1@AEAU?$pair@$$CBIW4LogicType@@@1@1@Z 0000000180041a40 f i ManagerLib:LogicManager.obj
 0001:00040ef0       ??$_Insert_hint@AEAU?$pair@$$CBIW4LogicType@@@std@@PEAU?$_Tree_node@U?$pair@$$CBIW4LogicType@@@std@@PEAX@2@@?$_Tree@V?$_Tmap_traits@IW4LogicType@@U?$less@I@std@@V?$allocator@U?$pair@$$CBIW4LogicType@@@std@@@3@$0A@@std@@@std@@IEAA?AV?$_Tree_iterator@V?$_Tree_val@U?$_Tree_simple_types@U?$pair@$$CBIW4LogicType@@@std@@@std@@@std@@@1@V?$_Tree_const_iterator@V?$_Tree_val@U?$_Tree_simple_types@U?$pair@$$CBIW4LogicType@@@std@@@std@@@std@@@1@AEAU?$pair@$$CBIW4LogicType@@@1@PEAU?$_Tree_node@U?$pair@$$CBIW4LogicType@@@std@@PEAX@1@@Z 0000000180041ef0 f i ManagerLib:LogicManager.obj
 0001:00041d60       ??$_Insert_nohint@AEAU?$pair@$$CBIW4LogicType@@@std@@PEAU?$_Tree_node@U?$pair@$$CBIW4LogicType@@@std@@PEAX@2@@?$_Tree@V?$_Tmap_traits@IW4LogicType@@U?$less@I@std@@V?$allocator@U?$pair@$$CBIW4LogicType@@@std@@@3@$0A@@std@@@std@@IEAA?AU?$pair@V?$_Tree_iterator@V?$_Tree_val@U?$_Tree_simple_types@U?$pair@$$CBIW4LogicType@@@std@@@std@@@std@@@std@@_N@1@_NAEAU?$pair@$$CBIW4LogicType@@@1@PEAU?$_Tree_node@U?$pair@$$CBIW4LogicType@@@std@@PEAX@1@@Z 0000000180042d60 f i ManagerLib:LogicManager.obj
 0001:00042210       ?_Left@?$_Tree_val@U?$_Tree_simple_types@U?$pair@$$CBIPEAUtagOSIMG@@@std@@@std@@@std@@SAAEAPEAU?$_Tree_node@U?$pair@$$CBIPEAUtagOSIMG@@@std@@PEAX@2@PEAU32@@Z 0000000180043210 f i ManagerLib:OsImgLogic.obj
 0001:00042210       ?_Get_first@?$_Compressed_pair@U?$_Wrap_alloc@V?$allocator@U?$_Tree_node@U?$pair@$$CBIW4LogicType@@@std@@PEAX@std@@@std@@@std@@V?$_Tree_val@U?$_Tree_simple_types@U?$pair@$$CBIW4LogicType@@@std@@@std@@@2@$00@std@@QEBAAEBU?$_Wrap_alloc@V?$allocator@U?$_Tree_node@U?$pair@$$CBIW4LogicType@@@std@@PEAX@std@@@std@@@2@XZ 0000000180043210 f i ManagerLib:LogicManager.obj
 0001:00042210       ??$forward@U?$pair@IW4LogicType@@@std@@@std@@YA$$QEAU?$pair@IW4LogicType@@@0@AEAU10@@Z 0000000180043210 f i ManagerLib:LogicManager.obj
 0001:00042210       ?_Get_second@?$_Compressed_pair@U?$_Wrap_alloc@V?$allocator@U?$_Tree_node@U?$pair@$$CBIPEAUtagREQUEST_EX@@@std@@PEAX@std@@@std@@@std@@V?$_Tree_val@U?$_Tree_simple_types@U?$pair@$$CBIPEAUtagREQUEST_EX@@@std@@@std@@@2@$00@std@@QEAAAEAV?$_Tree_val@U?$_Tree_simple_types@U?$pair@$$CBIPEAUtagREQUEST_EX@@@std@@@std@@@2@XZ 0000000180043210 f i ManagerLib:SessionBuildPartImgCnt.obj
 0001:00042210       ?_Get_second@?$_Compressed_pair@U?$_Wrap_alloc@V?$allocator@U?$_Tree_node@U?$pair@$$CBIUtagUSERLIST_ITEM@@@std@@PEAX@std@@@std@@@std@@V?$_Tree_val@U?$_Tree_simple_types@U?$pair@$$CBIUtagUSERLIST_ITEM@@@std@@@std@@@2@$00@std@@QEBAAEBV?$_Tree_val@U?$_Tree_simple_types@U?$pair@$$CBIUtagUSERLIST_ITEM@@@std@@@std@@@2@XZ 0000000180043210 f i ManagerLib:UserLogic.obj
 0001:00042210       ??$_Kfn@$$CBGPEAUtagPARTIMG@@@?$_Tmap_traits@GPEAUtagPARTIMG@@U?$less@G@std@@V?$allocator@U?$pair@$$CBGPEAUtagPARTIMG@@@std@@@3@$0A@@std@@SAAEBGAEBU?$pair@$$CBGPEAUtagPARTIMG@@@1@@Z 0000000180043210 f i ManagerLib:PartImgLogic.obj
 0001:00042210       ??$_Kfn@$$CBIW4LogicType@@@?$_Tmap_traits@IW4LogicType@@U?$less@I@std@@V?$allocator@U?$pair@$$CBIW4LogicType@@@std@@@3@$0A@@std@@SAAEBIAEBU?$pair@$$CBIW4LogicType@@@1@@Z 0000000180043210 f i ManagerLib:LogicManager.obj
 0001:00042210       ?_Get_second@?$_Compressed_pair@U?$_Wrap_alloc@V?$allocator@U?$_Tree_node@U?$pair@$$CBGPEAUtagPARTIMG@@@std@@PEAX@std@@@std@@@std@@V?$_Tree_val@U?$_Tree_simple_types@U?$pair@$$CBGPEAUtagPARTIMG@@@std@@@std@@@2@$00@std@@QEAAAEAV?$_Tree_val@U?$_Tree_simple_types@U?$pair@$$CBGPEAUtagPARTIMG@@@std@@@std@@@2@XZ 0000000180043210 f i ManagerLib:PartImgLogic.obj
 0001:00042210       ?_Get_second@?$_Compressed_pair@U?$_Wrap_alloc@V?$allocator@U?$_Tree_node@U?$pair@$$CBIW4LogicType@@@std@@PEAX@std@@@std@@@std@@V?$_Tree_val@U?$_Tree_simple_types@U?$pair@$$CBIW4LogicType@@@std@@@std@@@2@$00@std@@QEBAAEBV?$_Tree_val@U?$_Tree_simple_types@U?$pair@$$CBIW4LogicType@@@std@@@std@@@2@XZ 0000000180043210 f i ManagerLib:LogicManager.obj
 0001:00042210       ??$addressof@PEAU?$_Tree_node@U?$pair@$$CBIW4LogicType@@@std@@PEAX@std@@@std@@YAPEAPEAU?$_Tree_node@U?$pair@$$CBIW4LogicType@@@std@@PEAX@0@AEAPEAU10@@Z 0000000180043210 f i ManagerLib:LogicManager.obj
 0001:00042210       ?_Get_second@?$_Compressed_pair@U?$_Wrap_alloc@V?$allocator@U?$_Tree_node@U?$pair@$$CBIW4LogicType@@@std@@PEAX@std@@@std@@@std@@V?$_Tree_val@U?$_Tree_simple_types@U?$pair@$$CBIW4LogicType@@@std@@@std@@@2@$00@std@@QEAAAEAV?$_Tree_val@U?$_Tree_simple_types@U?$pair@$$CBIW4LogicType@@@std@@@std@@@2@XZ 0000000180043210 f i ManagerLib:LogicManager.obj
 0001:00042210       ??$forward@AEAPEAU?$_Tree_node@U?$pair@$$CBIPEAUtagDISKIMG@@@std@@PEAX@std@@@std@@YAAEAPEAU?$_Tree_node@U?$pair@$$CBIPEAUtagDISKIMG@@@std@@PEAX@0@AEAPEAU10@@Z 0000000180043210 f i ManagerLib:DiskLogic.obj
 0001:00042210       ??$forward@U?$pair@$$CBIUtagUSERLIST_ITEM@@@std@@@std@@YA$$QEAU?$pair@$$CBIUtagUSERLIST_ITEM@@@0@AEAU10@@Z 0000000180043210 f i ManagerLib:UserLogic.obj
 0001:00042210       ?_Get_first@?$_Compressed_pair@U?$less@I@std@@V?$_Compressed_pair@U?$_Wrap_alloc@V?$allocator@U?$_Tree_node@U?$pair@$$CBIPEAUtagOSIMG@@@std@@PEAX@std@@@std@@@std@@V?$_Tree_val@U?$_Tree_simple_types@U?$pair@$$CBIPEAUtagOSIMG@@@std@@@std@@@2@$00@2@$00@std@@QEAAAEAU?$less@I@2@XZ 0000000180043210 f i ManagerLib:OsImgLogic.obj
 0001:00042210       ?_Get_second@?$_Compressed_pair@U?$_Wrap_alloc@V?$allocator@U?$_Tree_node@U?$pair@$$CBIPEAUtagGROUPINFO@@@std@@PEAX@std@@@std@@@std@@V?$_Tree_val@U?$_Tree_simple_types@U?$pair@$$CBIPEAUtagGROUPINFO@@@std@@@std@@@2@$00@std@@QEBAAEBV?$_Tree_val@U?$_Tree_simple_types@U?$pair@$$CBIPEAUtagGROUPINFO@@@std@@@std@@@2@XZ 0000000180043210 f i ManagerLib:GroupLogic.obj
 0001:00042210       ??$move@AEAV?$tuple@AEBI@std@@@std@@YA$$QEAV?$tuple@AEBI@0@AEAV10@@Z 0000000180043210 f i ManagerLib:LogicManager.obj
 0001:00042210       ??$forward@V?$_Tree_iterator@V?$_Tree_val@U?$_Tree_simple_types@U?$pair@$$CBIUtagUSERLIST_ITEM@@@std@@@std@@@std@@@std@@@std@@YA$$QEAV?$_Tree_iterator@V?$_Tree_val@U?$_Tree_simple_types@U?$pair@$$CBIUtagUSERLIST_ITEM@@@std@@@std@@@std@@@0@AEAV10@@Z 0000000180043210 f i ManagerLib:UserLogic.obj
 0001:00042210       ?_Get_first@?$_Compressed_pair@U?$_Wrap_alloc@V?$allocator@U?$_Tree_node@U?$pair@$$CBIPEAUtagDISKIMG@@@std@@PEAX@std@@@std@@@std@@V?$_Tree_val@U?$_Tree_simple_types@U?$pair@$$CBIPEAUtagDISKIMG@@@std@@@std@@@2@$00@std@@QEBAAEBU?$_Wrap_alloc@V?$allocator@U?$_Tree_node@U?$pair@$$CBIPEAUtagDISKIMG@@@std@@PEAX@std@@@std@@@2@XZ 0000000180043210 f i ManagerLib:DiskLogic.obj
 0001:00042210       ??$forward@AEAPEAUtagOSIMG@@@std@@YAAEAPEAUtagOSIMG@@AEAPEAU1@@Z 0000000180043210 f i ManagerLib:OsImgLogic.obj
 0001:00042210       ?_Get_first@?$_Compressed_pair@U?$_Wrap_alloc@V?$allocator@U?$_Tree_node@U?$pair@$$CBIPEAUtagDISKIMG@@@std@@PEAX@std@@@std@@@std@@V?$_Tree_val@U?$_Tree_simple_types@U?$pair@$$CBIPEAUtagDISKIMG@@@std@@@std@@@2@$00@std@@QEAAAEAU?$_Wrap_alloc@V?$allocator@U?$_Tree_node@U?$pair@$$CBIPEAUtagDISKIMG@@@std@@PEAX@std@@@std@@@2@XZ 0000000180043210 f i ManagerLib:DiskLogic.obj
 0001:00042210       ??$forward@AEAU?$pair@$$CBIW4LogicType@@@std@@@std@@YAAEAU?$pair@$$CBIW4LogicType@@@0@AEAU10@@Z 0000000180043210 f i ManagerLib:LogicManager.obj
 0001:00042210       ??$addressof@U?$pair@$$CBIPEAUtagOSIMG@@@std@@@std@@YAPEAU?$pair@$$CBIPEAUtagOSIMG@@@0@AEAU10@@Z 0000000180043210 f i ManagerLib:OsImgLogic.obj
 0001:00042210       ??$forward@U?$pair@$$CBIPEAUtagGROUPINFO@@@std@@@std@@YA$$QEAU?$pair@$$CBIPEAUtagGROUPINFO@@@0@AEAU10@@Z 0000000180043210 f i ManagerLib:GroupLogic.obj
 0001:00042210       ??0?$allocator@U?$_Tree_node@U?$pair@$$CBIW4LogicType@@@std@@PEAX@std@@@std@@QEAA@XZ 0000000180043210 f i ManagerLib:LogicManager.obj
 0001:00042210       ??0CDiskRWDrv@@QEAA@XZ     0000000180043210 f i ManagerLib:WDiskDrv.obj
 0001:00042210       ?_Get_second@?$_Compressed_pair@U?$_Wrap_alloc@V?$allocator@U?$_Tree_node@U?$pair@$$CBIPEAUtagDISKIMG@@@std@@PEAX@std@@@std@@@std@@V?$_Tree_val@U?$_Tree_simple_types@U?$pair@$$CBIPEAUtagDISKIMG@@@std@@@std@@@2@$00@std@@QEBAAEBV?$_Tree_val@U?$_Tree_simple_types@U?$pair@$$CBIPEAUtagDISKIMG@@@std@@@std@@@2@XZ 0000000180043210 f i ManagerLib:DiskLogic.obj
 0001:00042210       ?_Get_first@?$_Compressed_pair@U?$_Wrap_alloc@V?$allocator@U?$_Tree_node@U?$pair@$$CBIPEAUtagOSIMG@@@std@@PEAX@std@@@std@@@std@@V?$_Tree_val@U?$_Tree_simple_types@U?$pair@$$CBIPEAUtagOSIMG@@@std@@@std@@@2@$00@std@@QEBAAEBU?$_Wrap_alloc@V?$allocator@U?$_Tree_node@U?$pair@$$CBIPEAUtagOSIMG@@@std@@PEAX@std@@@std@@@2@XZ 0000000180043210 f i ManagerLib:OsImgLogic.obj
 0001:00042210       ??$addressof@PEAU?$_Tree_node@U?$pair@$$CBIPEAUtagOSIMG@@@std@@PEAX@std@@@std@@YAPEAPEAU?$_Tree_node@U?$pair@$$CBIPEAUtagOSIMG@@@std@@PEAX@0@AEAPEAU10@@Z 0000000180043210 f i ManagerLib:OsImgLogic.obj
 0001:00042210       ?_Get_second@?$_Compressed_pair@U?$_Wrap_alloc@V?$allocator@U?$_Tree_node@U?$pair@$$CBIPEAUtagOSIMG@@@std@@PEAX@std@@@std@@@std@@V?$_Tree_val@U?$_Tree_simple_types@U?$pair@$$CBIPEAUtagOSIMG@@@std@@@std@@@2@$00@std@@QEBAAEBV?$_Tree_val@U?$_Tree_simple_types@U?$pair@$$CBIPEAUtagOSIMG@@@std@@@std@@@2@XZ 0000000180043210 f i ManagerLib:OsImgLogic.obj
 0001:00042210       ??$forward@AEAPEAU?$_Tree_node@U?$pair@$$CBIPEAUtagGROUPINFO@@@std@@PEAX@std@@@std@@YAAEAPEAU?$_Tree_node@U?$pair@$$CBIPEAUtagGROUPINFO@@@std@@PEAX@0@AEAPEAU10@@Z 0000000180043210 f i ManagerLib:GroupLogic.obj
 0001:00042210       ?_Get_second@?$_Compressed_pair@U?$less@I@std@@V?$_Compressed_pair@U?$_Wrap_alloc@V?$allocator@U?$_Tree_node@U?$pair@$$CBIPEAUtagDISKIMG@@@std@@PEAX@std@@@std@@@std@@V?$_Tree_val@U?$_Tree_simple_types@U?$pair@$$CBIPEAUtagDISKIMG@@@std@@@std@@@2@$00@2@$00@std@@QEAAAEAV?$_Compressed_pair@U?$_Wrap_alloc@V?$allocator@U?$_Tree_node@U?$pair@$$CBIPEAUtagDISKIMG@@@std@@PEAX@std@@@std@@@std@@V?$_Tree_val@U?$_Tree_simple_types@U?$pair@$$CBIPEAUtagDISKIMG@@@std@@@std@@@2@$00@2@XZ 0000000180043210 f i ManagerLib:DiskLogic.obj
 0001:00042210       ?_Get_first@?$_Compressed_pair@U?$_Wrap_alloc@V?$allocator@U?$_Tree_node@U?$pair@$$CBGPEAUtagPARTIMG@@@std@@PEAX@std@@@std@@@std@@V?$_Tree_val@U?$_Tree_simple_types@U?$pair@$$CBGPEAUtagPARTIMG@@@std@@@std@@@2@$00@std@@QEAAAEAU?$_Wrap_alloc@V?$allocator@U?$_Tree_node@U?$pair@$$CBGPEAUtagPARTIMG@@@std@@PEAX@std@@@std@@@2@XZ 0000000180043210 f i ManagerLib:PartImgLogic.obj
 0001:00042210       ?_Get_first@?$_Compressed_pair@U?$less@G@std@@V?$_Compressed_pair@U?$_Wrap_alloc@V?$allocator@U?$_Tree_node@U?$pair@$$CBGPEAUtagPARTIMG@@@std@@PEAX@std@@@std@@@std@@V?$_Tree_val@U?$_Tree_simple_types@U?$pair@$$CBGPEAUtagPARTIMG@@@std@@@std@@@2@$00@2@$00@std@@QEAAAEAU?$less@G@2@XZ 0000000180043210 f i ManagerLib:PartImgLogic.obj
 0001:00042210       ?_Left@?$_Tree_val@U?$_Tree_simple_types@U?$pair@$$CBIPEAUtagGROUPINFO@@@std@@@std@@@std@@SAAEAPEAU?$_Tree_node@U?$pair@$$CBIPEAUtagGROUPINFO@@@std@@PEAX@2@PEAU32@@Z 0000000180043210 f i ManagerLib:GroupLogic.obj
 0001:00042210       ??$forward@AEAPEAU?$_Tree_node@U?$pair@$$CBHPEAVPacketHandler@@@std@@PEAX@std@@@std@@YAAEAPEAU?$_Tree_node@U?$pair@$$CBHPEAVPacketHandler@@@std@@PEAX@0@AEAPEAU10@@Z 0000000180043210 f i ManagerLib:PacketHandlers.obj
 0001:00042210       ??$_Kfn@$$CBHPEAVPacketHandler@@@?$_Tmap_traits@HPEAVPacketHandler@@U?$less@H@std@@V?$allocator@U?$pair@$$CBHPEAVPacketHandler@@@std@@@3@$0A@@std@@SAAEBHAEBU?$pair@$$CBHPEAVPacketHandler@@@1@@Z 0000000180043210 f i ManagerLib:PacketHandlers.obj
 0001:00042210       ??$forward@U?$pair@$$CBGPEAUtagPARTIMG@@@std@@@std@@YA$$QEAU?$pair@$$CBGPEAUtagPARTIMG@@@0@AEAU10@@Z 0000000180043210 f i ManagerLib:PartImgLogic.obj
 0001:00042210       ??$forward@AEAV?$_Tree_iterator@V?$_Tree_val@U?$_Tree_simple_types@U?$pair@$$CBIPEAUtagOSIMG@@@std@@@std@@@std@@@std@@@std@@YAAEAV?$_Tree_iterator@V?$_Tree_val@U?$_Tree_simple_types@U?$pair@$$CBIPEAUtagOSIMG@@@std@@@std@@@std@@@0@AEAV10@@Z 0000000180043210 f i ManagerLib:OsImgLogic.obj
 0001:00042210       ??$addressof@PEAU?$_Tree_node@U?$pair@$$CBIPEAUtagGROUPINFO@@@std@@PEAX@std@@@std@@YAPEAPEAU?$_Tree_node@U?$pair@$$CBIPEAUtagGROUPINFO@@@std@@PEAX@0@AEAPEAU10@@Z 0000000180043210 f i ManagerLib:GroupLogic.obj
 0001:00042210       ??$forward@AEAPEAUtagMACHINEINFO@@@std@@YAAEAPEAUtagMACHINEINFO@@AEAPEAU1@@Z 0000000180043210 f i ManagerLib:GroupLogic.obj
 0001:00042210       ?_Get_second@?$_Compressed_pair@U?$less@I@std@@V?$_Compressed_pair@U?$_Wrap_alloc@V?$allocator@U?$_Tree_node@U?$pair@$$CBIUtagUSERLIST_ITEM@@@std@@PEAX@std@@@std@@@std@@V?$_Tree_val@U?$_Tree_simple_types@U?$pair@$$CBIUtagUSERLIST_ITEM@@@std@@@std@@@2@$00@2@$00@std@@QEBAAEBV?$_Compressed_pair@U?$_Wrap_alloc@V?$allocator@U?$_Tree_node@U?$pair@$$CBIUtagUSERLIST_ITEM@@@std@@PEAX@std@@@std@@@std@@V?$_Tree_val@U?$_Tree_simple_types@U?$pair@$$CBIUtagUSERLIST_ITEM@@@std@@@std@@@2@$00@2@XZ 0000000180043210 f i ManagerLib:UserLogic.obj
 0001:00042210       ??$addressof@U?$pair@$$CBHPEAVPacketHandler@@@std@@@std@@YAPEAU?$pair@$$CBHPEAVPacketHandler@@@0@AEAU10@@Z 0000000180043210 f i ManagerLib:PacketHandlers.obj
 0001:00042210       ?_Get_first@?$_Compressed_pair@U?$less@I@std@@V?$_Compressed_pair@U?$_Wrap_alloc@V?$allocator@U?$_Tree_node@U?$pair@$$CBIPEAUtagMACHINEINFO@@@std@@PEAX@std@@@std@@@std@@V?$_Tree_val@U?$_Tree_simple_types@U?$pair@$$CBIPEAUtagMACHINEINFO@@@std@@@std@@@2@$00@2@$00@std@@QEBAAEBU?$less@I@2@XZ 0000000180043210 f i ManagerLib:GroupLogic.obj
 0001:00042210       ?_Get_first@?$_Compressed_pair@U?$_Wrap_alloc@V?$allocator@U?$_Tree_node@U?$pair@$$CBIPEAUtagGROUPINFO@@@std@@PEAX@std@@@std@@@std@@V?$_Tree_val@U?$_Tree_simple_types@U?$pair@$$CBIPEAUtagGROUPINFO@@@std@@@std@@@2@$00@std@@QEAAAEAU?$_Wrap_alloc@V?$allocator@U?$_Tree_node@U?$pair@$$CBIPEAUtagGROUPINFO@@@std@@PEAX@std@@@std@@@2@XZ 0000000180043210 f i ManagerLib:GroupLogic.obj
 0001:00042210       ??$addressof@PEAU?$_Tree_node@U?$pair@$$CBGPEAUtagPARTIMG@@@std@@PEAX@std@@@std@@YAPEAPEAU?$_Tree_node@U?$pair@$$CBGPEAUtagPARTIMG@@@std@@PEAX@0@AEAPEAU10@@Z 0000000180043210 f i ManagerLib:PartImgLogic.obj
 0001:00042210       ?_Get_first@?$_Compressed_pair@U?$_Wrap_alloc@V?$allocator@U?$_Tree_node@U?$pair@$$CBGPEAUtagPARTIMG@@@std@@PEAX@std@@@std@@@std@@V?$_Tree_val@U?$_Tree_simple_types@U?$pair@$$CBGPEAUtagPARTIMG@@@std@@@std@@@2@$00@std@@QEBAAEBU?$_Wrap_alloc@V?$allocator@U?$_Tree_node@U?$pair@$$CBGPEAUtagPARTIMG@@@std@@PEAX@std@@@std@@@2@XZ 0000000180043210 f i ManagerLib:PartImgLogic.obj
 0001:00042210       ?_Get_first@?$_Compressed_pair@U?$less@I@std@@V?$_Compressed_pair@U?$_Wrap_alloc@V?$allocator@U?$_Tree_node@U?$pair@$$CBIPEAUtagGROUPINFO@@@std@@PEAX@std@@@std@@@std@@V?$_Tree_val@U?$_Tree_simple_types@U?$pair@$$CBIPEAUtagGROUPINFO@@@std@@@std@@@2@$00@2@$00@std@@QEBAAEBU?$less@I@2@XZ 0000000180043210 f i ManagerLib:GroupLogic.obj
 0001:00042210       ??$forward@AEAV?$_Tree_iterator@V?$_Tree_val@U?$_Tree_simple_types@U?$pair@$$CBHPEAVPacketHandler@@@std@@@std@@@std@@@std@@@std@@YAAEAV?$_Tree_iterator@V?$_Tree_val@U?$_Tree_simple_types@U?$pair@$$CBHPEAVPacketHandler@@@std@@@std@@@std@@@0@AEAV10@@Z 0000000180043210 f i ManagerLib:PacketHandlers.obj
 0001:00042210       ??$forward@V?$_Tree_iterator@V?$_Tree_val@U?$_Tree_simple_types@U?$pair@$$CBIPEAUtagGROUPINFO@@@std@@@std@@@std@@@std@@@std@@YA$$QEAV?$_Tree_iterator@V?$_Tree_val@U?$_Tree_simple_types@U?$pair@$$CBIPEAUtagGROUPINFO@@@std@@@std@@@std@@@0@AEAV10@@Z 0000000180043210 f i ManagerLib:GroupLogic.obj
 0001:00042210       ?_Get_second@?$_Compressed_pair@U?$_Wrap_alloc@V?$allocator@U?$_Tree_node@U?$pair@$$CBIPEAUtagDISKIMG@@@std@@PEAX@std@@@std@@@std@@V?$_Tree_val@U?$_Tree_simple_types@U?$pair@$$CBIPEAUtagDISKIMG@@@std@@@std@@@2@$00@std@@QEAAAEAV?$_Tree_val@U?$_Tree_simple_types@U?$pair@$$CBIPEAUtagDISKIMG@@@std@@@std@@@2@XZ 0000000180043210 f i ManagerLib:DiskLogic.obj
 0001:00042210       ??0?$allocator@U?$_Tree_node@U?$pair@$$CBIPEAUtagDISKIMG@@@std@@PEAX@std@@@std@@QEAA@XZ 0000000180043210 f i ManagerLib:DiskLogic.obj
 0001:00042210       ??$forward@AEAPEAUtagPARTIMG@@@std@@YAAEAPEAUtagPARTIMG@@AEAPEAU1@@Z 0000000180043210 f i ManagerLib:PartImgLogic.obj
 0001:00042210       ??$forward@V?$tuple@$$V@std@@@std@@YA$$QEAV?$tuple@$$V@0@AEAV10@@Z 0000000180043210 f i ManagerLib:LogicManager.obj
 0001:00042210       ??$addressof@PEAU?$_Tree_node@U?$pair@$$CBIPEAUtagREQUEST_EX@@@std@@PEAX@std@@@std@@YAPEAPEAU?$_Tree_node@U?$pair@$$CBIPEAUtagREQUEST_EX@@@std@@PEAX@0@AEAPEAU10@@Z 0000000180043210 f i ManagerLib:SessionBuildPartImgCnt.obj
 0001:00042210       ??0?$tuple@$$V@std@@QEAA@XZ 0000000180043210 f i ManagerLib:LogicManager.obj
 0001:00042210       ?_Get_second@?$_Compressed_pair@U?$less@I@std@@V?$_Compressed_pair@U?$_Wrap_alloc@V?$allocator@U?$_Tree_node@U?$pair@$$CBIPEAUtagREQUEST_EX@@@std@@PEAX@std@@@std@@@std@@V?$_Tree_val@U?$_Tree_simple_types@U?$pair@$$CBIPEAUtagREQUEST_EX@@@std@@@std@@@2@$00@2@$00@std@@QEBAAEBV?$_Compressed_pair@U?$_Wrap_alloc@V?$allocator@U?$_Tree_node@U?$pair@$$CBIPEAUtagREQUEST_EX@@@std@@PEAX@std@@@std@@@std@@V?$_Tree_val@U?$_Tree_simple_types@U?$pair@$$CBIPEAUtagREQUEST_EX@@@std@@@std@@@2@$00@2@XZ 0000000180043210 f i ManagerLib:SessionBuildPartImgCnt.obj
 0001:00042210       ??$addressof@U?$pair@$$CBIW4LogicType@@@std@@@std@@YAPEAU?$pair@$$CBIW4LogicType@@@0@AEAU10@@Z 0000000180043210 f i ManagerLib:LogicManager.obj
 0001:00042210       ?_Get_second@?$_Compressed_pair@U?$_Wrap_alloc@V?$allocator@U?$_Tree_node@U?$pair@$$CBIPEAUtagGROUPINFO@@@std@@PEAX@std@@@std@@@std@@V?$_Tree_val@U?$_Tree_simple_types@U?$pair@$$CBIPEAUtagGROUPINFO@@@std@@@std@@@2@$00@std@@QEAAAEAV?$_Tree_val@U?$_Tree_simple_types@U?$pair@$$CBIPEAUtagGROUPINFO@@@std@@@std@@@2@XZ 0000000180043210 f i ManagerLib:GroupLogic.obj
 0001:00042210       ??$forward@V?$_Tree_iterator@V?$_Tree_val@U?$_Tree_simple_types@U?$pair@$$CBIPEAUtagDISKIMG@@@std@@@std@@@std@@@std@@@std@@YA$$QEAV?$_Tree_iterator@V?$_Tree_val@U?$_Tree_simple_types@U?$pair@$$CBIPEAUtagDISKIMG@@@std@@@std@@@std@@@0@AEAV10@@Z 0000000180043210 f i ManagerLib:DiskLogic.obj
 0001:00042210       ??$_Kfn@$$CBIPEAUtagMACHINEINFO@@@?$_Tmap_traits@IPEAUtagMACHINEINFO@@U?$less@I@std@@V?$allocator@U?$pair@$$CBIPEAUtagMACHINEINFO@@@std@@@3@$0A@@std@@SAAEBIAEBU?$pair@$$CBIPEAUtagMACHINEINFO@@@1@@Z 0000000180043210 f i ManagerLib:GroupLogic.obj
 0001:00042210       ?_Get_second@?$_Compressed_pair@U?$less@H@std@@V?$_Compressed_pair@U?$_Wrap_alloc@V?$allocator@U?$_Tree_node@U?$pair@$$CBHPEAVPacketHandler@@@std@@PEAX@std@@@std@@@std@@V?$_Tree_val@U?$_Tree_simple_types@U?$pair@$$CBHPEAVPacketHandler@@@std@@@std@@@2@$00@2@$00@std@@QEBAAEBV?$_Compressed_pair@U?$_Wrap_alloc@V?$allocator@U?$_Tree_node@U?$pair@$$CBHPEAVPacketHandler@@@std@@PEAX@std@@@std@@@std@@V?$_Tree_val@U?$_Tree_simple_types@U?$pair@$$CBHPEAVPacketHandler@@@std@@@std@@@2@$00@2@XZ 0000000180043210 f i ManagerLib:PacketHandlers.obj
 0001:00042210       ?_Get_first@?$_Compressed_pair@U?$less@I@std@@V?$_Compressed_pair@U?$_Wrap_alloc@V?$allocator@U?$_Tree_node@U?$pair@$$CBIUtagUSERLIST_ITEM@@@std@@PEAX@std@@@std@@@std@@V?$_Tree_val@U?$_Tree_simple_types@U?$pair@$$CBIUtagUSERLIST_ITEM@@@std@@@std@@@2@$00@2@$00@std@@QEAAAEAU?$less@I@2@XZ 0000000180043210 f i ManagerLib:UserLogic.obj
 0001:00042210       ??$forward@AEAPEAUtagREQUEST_EX@@@std@@YAAEAPEAUtagREQUEST_EX@@AEAPEAU1@@Z 0000000180043210 f i ManagerLib:SessionBuildPartImgCnt.obj
 0001:00042210       ??$forward@AEAPEAUtagGROUPINFO@@@std@@YAAEAPEAUtagGROUPINFO@@AEAPEAU1@@Z 0000000180043210 f i ManagerLib:GroupLogic.obj
 0001:00042210       ?_Left@?$_Tree_val@U?$_Tree_simple_types@U?$pair@$$CBIUtagUSERLIST_ITEM@@@std@@@std@@@std@@SAAEAPEAU?$_Tree_node@U?$pair@$$CBIUtagUSERLIST_ITEM@@@std@@PEAX@2@PEAU32@@Z 0000000180043210 f i ManagerLib:UserLogic.obj
 0001:00042210       ??0?$allocator@U?$_Tree_node@U?$pair@$$CBIPEAUtagREQUEST_EX@@@std@@PEAX@std@@@std@@QEAA@XZ 0000000180043210 f i ManagerLib:SessionBuildPartImgCnt.obj
 0001:00042210       ??$forward@U?$pair@$$CBIPEAUtagREQUEST_EX@@@std@@@std@@YA$$QEAU?$pair@$$CBIPEAUtagREQUEST_EX@@@0@AEAU10@@Z 0000000180043210 f i ManagerLib:SessionBuildPartImgCnt.obj
 0001:00042210       ??$forward@AEAV?$_Tree_iterator@V?$_Tree_val@U?$_Tree_simple_types@U?$pair@$$CBIPEAUtagREQUEST_EX@@@std@@@std@@@std@@@std@@@std@@YAAEAV?$_Tree_iterator@V?$_Tree_val@U?$_Tree_simple_types@U?$pair@$$CBIPEAUtagREQUEST_EX@@@std@@@std@@@std@@@0@AEAV10@@Z 0000000180043210 f i ManagerLib:SessionBuildPartImgCnt.obj
 0001:00042210       ??$forward@H@std@@YA$$QEAHAEAH@Z 0000000180043210 f i ManagerLib:PacketHandlers.obj
 0001:00042210       ??$forward@PEAVPacketHandler@@@std@@YA$$QEAPEAVPacketHandler@@AEAPEAV1@@Z 0000000180043210 f i ManagerLib:PacketHandlers.obj
 0001:00042210       ??$forward@AEAW4LogicType@@@std@@YAAEAW4LogicType@@AEAW41@@Z 0000000180043210 f i ManagerLib:LogicManager.obj
 0001:00042210       ??$addressof@U?$pair@$$CBGPEAUtagPARTIMG@@@std@@@std@@YAPEAU?$pair@$$CBGPEAUtagPARTIMG@@@0@AEAU10@@Z 0000000180043210 f i ManagerLib:PartImgLogic.obj
 0001:00042210       ??$_Kfn@$$CBIPEAUtagDISKIMG@@@?$_Tmap_traits@IPEAUtagDISKIMG@@U?$less@I@std@@V?$allocator@U?$pair@$$CBIPEAUtagDISKIMG@@@std@@@3@$0A@@std@@SAAEBIAEBU?$pair@$$CBIPEAUtagDISKIMG@@@1@@Z 0000000180043210 f i ManagerLib:DiskLogic.obj
 0001:00042210       ??$addressof@PEAU?$_Tree_node@U?$pair@$$CBIPEAUtagMACHINEINFO@@@std@@PEAX@std@@@std@@YAPEAPEAU?$_Tree_node@U?$pair@$$CBIPEAUtagMACHINEINFO@@@std@@PEAX@0@AEAPEAU10@@Z 0000000180043210 f i ManagerLib:GroupLogic.obj
 0001:00042210       ?_Get_first@?$_Compressed_pair@U?$_Wrap_alloc@V?$allocator@U?$_Tree_node@U?$pair@$$CBIUtagUSERLIST_ITEM@@@std@@PEAX@std@@@std@@@std@@V?$_Tree_val@U?$_Tree_simple_types@U?$pair@$$CBIUtagUSERLIST_ITEM@@@std@@@std@@@2@$00@std@@QEAAAEAU?$_Wrap_alloc@V?$allocator@U?$_Tree_node@U?$pair@$$CBIUtagUSERLIST_ITEM@@@std@@PEAX@std@@@std@@@2@XZ 0000000180043210 f i ManagerLib:UserLogic.obj
 0001:00042210       ??$forward@AEAPEAVPacketHandler@@@std@@YAAEAPEAVPacketHandler@@AEAPEAV1@@Z 0000000180043210 f i ManagerLib:PacketHandlers.obj
 0001:00042210       ?_Get_second@?$_Compressed_pair@U?$less@I@std@@V?$_Compressed_pair@U?$_Wrap_alloc@V?$allocator@U?$_Tree_node@U?$pair@$$CBIW4LogicType@@@std@@PEAX@std@@@std@@@std@@V?$_Tree_val@U?$_Tree_simple_types@U?$pair@$$CBIW4LogicType@@@std@@@std@@@2@$00@2@$00@std@@QEBAAEBV?$_Compressed_pair@U?$_Wrap_alloc@V?$allocator@U?$_Tree_node@U?$pair@$$CBIW4LogicType@@@std@@PEAX@std@@@std@@@std@@V?$_Tree_val@U?$_Tree_simple_types@U?$pair@$$CBIW4LogicType@@@std@@@std@@@2@$00@2@XZ 0000000180043210 f i ManagerLib:LogicManager.obj
 0001:00042210       ?_Get_first@?$_Compressed_pair@U?$less@I@std@@V?$_Compressed_pair@U?$_Wrap_alloc@V?$allocator@U?$_Tree_node@U?$pair@$$CBIPEAUtagREQUEST_EX@@@std@@PEAX@std@@@std@@@std@@V?$_Tree_val@U?$_Tree_simple_types@U?$pair@$$CBIPEAUtagREQUEST_EX@@@std@@@std@@@2@$00@2@$00@std@@QEAAAEAU?$less@I@2@XZ 0000000180043210 f i ManagerLib:SessionBuildPartImgCnt.obj
 0001:00042210       ??0?$allocator@U?$_Tree_node@U?$pair@$$CBIPEAUtagOSIMG@@@std@@PEAX@std@@@std@@QEAA@XZ 0000000180043210 f i ManagerLib:OsImgLogic.obj
 0001:00042210       ??$forward@U?$pair@$$CBIPEAUtagOSIMG@@@std@@@std@@YA$$QEAU?$pair@$$CBIPEAUtagOSIMG@@@0@AEAU10@@Z 0000000180043210 f i ManagerLib:OsImgLogic.obj
 0001:00042210       ??$forward@AEAPEAU?$_Tree_node@U?$pair@$$CBIW4LogicType@@@std@@PEAX@std@@@std@@YAAEAPEAU?$_Tree_node@U?$pair@$$CBIW4LogicType@@@std@@PEAX@0@AEAPEAU10@@Z 0000000180043210 f i ManagerLib:LogicManager.obj
 0001:00042210       ??$addressof@U?$pair@$$CBIPEAUtagGROUPINFO@@@std@@@std@@YAPEAU?$pair@$$CBIPEAUtagGROUPINFO@@@0@AEAU10@@Z 0000000180043210 f i ManagerLib:GroupLogic.obj
 0001:00042210       ??$_Kfn@$$CBIPEAUtagREQUEST_EX@@@?$_Tmap_traits@IPEAUtagREQUEST_EX@@U?$less@I@std@@V?$allocator@U?$pair@$$CBIPEAUtagREQUEST_EX@@@std@@@3@$0A@@std@@SAAEBIAEBU?$pair@$$CBIPEAUtagREQUEST_EX@@@1@@Z 0000000180043210 f i ManagerLib:SessionBuildPartImgCnt.obj
 0001:00042210       ?_Get_second@?$_Compressed_pair@U?$less@I@std@@V?$_Compressed_pair@U?$_Wrap_alloc@V?$allocator@U?$_Tree_node@U?$pair@$$CBIPEAUtagGROUPINFO@@@std@@PEAX@std@@@std@@@std@@V?$_Tree_val@U?$_Tree_simple_types@U?$pair@$$CBIPEAUtagGROUPINFO@@@std@@@std@@@2@$00@2@$00@std@@QEAAAEAV?$_Compressed_pair@U?$_Wrap_alloc@V?$allocator@U?$_Tree_node@U?$pair@$$CBIPEAUtagGROUPINFO@@@std@@PEAX@std@@@std@@@std@@V?$_Tree_val@U?$_Tree_simple_types@U?$pair@$$CBIPEAUtagGROUPINFO@@@std@@@std@@@2@$00@2@XZ 0000000180043210 f i ManagerLib:GroupLogic.obj
 0001:00042210       ??$forward@V?$_Tree_iterator@V?$_Tree_val@U?$_Tree_simple_types@U?$pair@$$CBIW4LogicType@@@std@@@std@@@std@@@std@@@std@@YA$$QEAV?$_Tree_iterator@V?$_Tree_val@U?$_Tree_simple_types@U?$pair@$$CBIW4LogicType@@@std@@@std@@@std@@@0@AEAV10@@Z 0000000180043210 f i ManagerLib:LogicManager.obj
 0001:00042210       ?_Get_second@?$_Compressed_pair@U?$_Wrap_alloc@V?$allocator@U?$_Tree_node@U?$pair@$$CBIPEAUtagOSIMG@@@std@@PEAX@std@@@std@@@std@@V?$_Tree_val@U?$_Tree_simple_types@U?$pair@$$CBIPEAUtagOSIMG@@@std@@@std@@@2@$00@std@@QEAAAEAV?$_Tree_val@U?$_Tree_simple_types@U?$pair@$$CBIPEAUtagOSIMG@@@std@@@std@@@2@XZ 0000000180043210 f i ManagerLib:OsImgLogic.obj
 0001:00042210       ?_Left@?$_Tree_val@U?$_Tree_simple_types@U?$pair@$$CBHPEAVPacketHandler@@@std@@@std@@@std@@SAAEAPEAU?$_Tree_node@U?$pair@$$CBHPEAVPacketHandler@@@std@@PEAX@2@PEAU32@@Z 0000000180043210 f i ManagerLib:PacketHandlers.obj
 0001:00042210       ?_Get_first@?$_Compressed_pair@U?$less@I@std@@V?$_Compressed_pair@U?$_Wrap_alloc@V?$allocator@U?$_Tree_node@U?$pair@$$CBIPEAUtagDISKIMG@@@std@@PEAX@std@@@std@@@std@@V?$_Tree_val@U?$_Tree_simple_types@U?$pair@$$CBIPEAUtagDISKIMG@@@std@@@std@@@2@$00@2@$00@std@@QEBAAEBU?$less@I@2@XZ 0000000180043210 f i ManagerLib:DiskLogic.obj
 0001:00042210       ??$forward@AEAPEAU?$_Tree_node@U?$pair@$$CBIUtagUSERLIST_ITEM@@@std@@PEAX@std@@@std@@YAAEAPEAU?$_Tree_node@U?$pair@$$CBIUtagUSERLIST_ITEM@@@std@@PEAX@0@AEAPEAU10@@Z 0000000180043210 f i ManagerLib:UserLogic.obj
 0001:00042210       ??$forward@AEAH@std@@YAAEAHAEAH@Z 0000000180043210 f i ManagerLib:PacketHandlers.obj
 0001:00042210       ?_Get_second@?$_Compressed_pair@U?$less@I@std@@V?$_Compressed_pair@U?$_Wrap_alloc@V?$allocator@U?$_Tree_node@U?$pair@$$CBIPEAUtagDISKIMG@@@std@@PEAX@std@@@std@@@std@@V?$_Tree_val@U?$_Tree_simple_types@U?$pair@$$CBIPEAUtagDISKIMG@@@std@@@std@@@2@$00@2@$00@std@@QEBAAEBV?$_Compressed_pair@U?$_Wrap_alloc@V?$allocator@U?$_Tree_node@U?$pair@$$CBIPEAUtagDISKIMG@@@std@@PEAX@std@@@std@@@std@@V?$_Tree_val@U?$_Tree_simple_types@U?$pair@$$CBIPEAUtagDISKIMG@@@std@@@std@@@2@$00@2@XZ 0000000180043210 f i ManagerLib:DiskLogic.obj
 0001:00042210       ?_Get_second@?$_Compressed_pair@U?$_Wrap_alloc@V?$allocator@U?$_Tree_node@U?$pair@$$CBGPEAUtagPARTIMG@@@std@@PEAX@std@@@std@@@std@@V?$_Tree_val@U?$_Tree_simple_types@U?$pair@$$CBGPEAUtagPARTIMG@@@std@@@std@@@2@$00@std@@QEBAAEBV?$_Tree_val@U?$_Tree_simple_types@U?$pair@$$CBGPEAUtagPARTIMG@@@std@@@std@@@2@XZ 0000000180043210 f i ManagerLib:PartImgLogic.obj
 0001:00042210       ??$forward@V?$_Tree_iterator@V?$_Tree_val@U?$_Tree_simple_types@U?$pair@$$CBIPEAUtagREQUEST_EX@@@std@@@std@@@std@@@std@@@std@@YA$$QEAV?$_Tree_iterator@V?$_Tree_val@U?$_Tree_simple_types@U?$pair@$$CBIPEAUtagREQUEST_EX@@@std@@@std@@@std@@@0@AEAV10@@Z 0000000180043210 f i ManagerLib:SessionBuildPartImgCnt.obj
 0001:00042210       ?_Get_second@?$_Compressed_pair@U?$_Wrap_alloc@V?$allocator@U?$_Tree_node@U?$pair@$$CBHPEAVPacketHandler@@@std@@PEAX@std@@@std@@@std@@V?$_Tree_val@U?$_Tree_simple_types@U?$pair@$$CBHPEAVPacketHandler@@@std@@@std@@@2@$00@std@@QEBAAEBV?$_Tree_val@U?$_Tree_simple_types@U?$pair@$$CBHPEAVPacketHandler@@@std@@@std@@@2@XZ 0000000180043210 f i ManagerLib:PacketHandlers.obj
 0001:00042210       ??0?$allocator@U?$_Tree_node@U?$pair@$$CBIPEAUtagMACHINEINFO@@@std@@PEAX@std@@@std@@QEAA@XZ 0000000180043210 f i ManagerLib:GroupLogic.obj
 0001:00042210       ?_Get_first@?$_Compressed_pair@U?$less@I@std@@V?$_Compressed_pair@U?$_Wrap_alloc@V?$allocator@U?$_Tree_node@U?$pair@$$CBIPEAUtagDISKIMG@@@std@@PEAX@std@@@std@@@std@@V?$_Tree_val@U?$_Tree_simple_types@U?$pair@$$CBIPEAUtagDISKIMG@@@std@@@std@@@2@$00@2@$00@std@@QEAAAEAU?$less@I@2@XZ 0000000180043210 f i ManagerLib:DiskLogic.obj
 0001:00042210       ??$forward@AEAV?$_Tree_iterator@V?$_Tree_val@U?$_Tree_simple_types@U?$pair@$$CBIPEAUtagGROUPINFO@@@std@@@std@@@std@@@std@@@std@@YAAEAV?$_Tree_iterator@V?$_Tree_val@U?$_Tree_simple_types@U?$pair@$$CBIPEAUtagGROUPINFO@@@std@@@std@@@std@@@0@AEAV10@@Z 0000000180043210 f i ManagerLib:GroupLogic.obj
 0001:00042210       ??$forward@AEBUpiecewise_construct_t@std@@@std@@YAAEBUpiecewise_construct_t@0@AEBU10@@Z 0000000180043210 f i ManagerLib:LogicManager.obj
 0001:00042210       ?_Get_second@?$_Compressed_pair@U?$less@I@std@@V?$_Compressed_pair@U?$_Wrap_alloc@V?$allocator@U?$_Tree_node@U?$pair@$$CBIW4LogicType@@@std@@PEAX@std@@@std@@@std@@V?$_Tree_val@U?$_Tree_simple_types@U?$pair@$$CBIW4LogicType@@@std@@@std@@@2@$00@2@$00@std@@QEAAAEAV?$_Compressed_pair@U?$_Wrap_alloc@V?$allocator@U?$_Tree_node@U?$pair@$$CBIW4LogicType@@@std@@PEAX@std@@@std@@@std@@V?$_Tree_val@U?$_Tree_simple_types@U?$pair@$$CBIW4LogicType@@@std@@@std@@@2@$00@2@XZ 0000000180043210 f i ManagerLib:LogicManager.obj
 0001:00042210       ?_Get_first@?$_Compressed_pair@U?$less@I@std@@V?$_Compressed_pair@U?$_Wrap_alloc@V?$allocator@U?$_Tree_node@U?$pair@$$CBIPEAUtagOSIMG@@@std@@PEAX@std@@@std@@@std@@V?$_Tree_val@U?$_Tree_simple_types@U?$pair@$$CBIPEAUtagOSIMG@@@std@@@std@@@2@$00@2@$00@std@@QEBAAEBU?$less@I@2@XZ 0000000180043210 f i ManagerLib:OsImgLogic.obj
 0001:00042210       ??$forward@AEAU?$pair@$$CBHPEAVPacketHandler@@@std@@@std@@YAAEAU?$pair@$$CBHPEAVPacketHandler@@@0@AEAU10@@Z 0000000180043210 f i ManagerLib:PacketHandlers.obj
 0001:00042210       ??0?$allocator@U?$_Tree_node@U?$pair@$$CBGPEAUtagPARTIMG@@@std@@PEAX@std@@@std@@QEAA@XZ 0000000180043210 f i ManagerLib:PartImgLogic.obj
 0001:00042210       ??$forward@AEBU?$less@G@std@@@std@@YAAEBU?$less@G@0@AEBU10@@Z 0000000180043210 f i ManagerLib:PartImgLogic.obj
 0001:00042210       ??$_Kfn@$$CBIUtagUSERLIST_ITEM@@@?$_Tmap_traits@IUtagUSERLIST_ITEM@@U?$less@I@std@@V?$allocator@U?$pair@$$CBIUtagUSERLIST_ITEM@@@std@@@3@$0A@@std@@SAAEBIAEBU?$pair@$$CBIUtagUSERLIST_ITEM@@@1@@Z 0000000180043210 f i ManagerLib:UserLogic.obj
 0001:00042210       ??$forward@V?$_Tree_iterator@V?$_Tree_val@U?$_Tree_simple_types@U?$pair@$$CBIPEAUtagOSIMG@@@std@@@std@@@std@@@std@@@std@@YA$$QEAV?$_Tree_iterator@V?$_Tree_val@U?$_Tree_simple_types@U?$pair@$$CBIPEAUtagOSIMG@@@std@@@std@@@std@@@0@AEAV10@@Z 0000000180043210 f i ManagerLib:OsImgLogic.obj
 0001:00042210       ?_Get_first@?$_Compressed_pair@U?$less@H@std@@V?$_Compressed_pair@U?$_Wrap_alloc@V?$allocator@U?$_Tree_node@U?$pair@$$CBHPEAVPacketHandler@@@std@@PEAX@std@@@std@@@std@@V?$_Tree_val@U?$_Tree_simple_types@U?$pair@$$CBHPEAVPacketHandler@@@std@@@std@@@2@$00@2@$00@std@@QEBAAEBU?$less@H@2@XZ 0000000180043210 f i ManagerLib:PacketHandlers.obj
 0001:00042210       ??0?$allocator@U?$_Tree_node@U?$pair@$$CBIUtagUSERLIST_ITEM@@@std@@PEAX@std@@@std@@QEAA@XZ 0000000180043210 f i ManagerLib:UserLogic.obj
 0001:00042210       ?_Get_first@?$_Compressed_pair@U?$less@I@std@@V?$_Compressed_pair@U?$_Wrap_alloc@V?$allocator@U?$_Tree_node@U?$pair@$$CBIPEAUtagMACHINEINFO@@@std@@PEAX@std@@@std@@@std@@V?$_Tree_val@U?$_Tree_simple_types@U?$pair@$$CBIPEAUtagMACHINEINFO@@@std@@@std@@@2@$00@2@$00@std@@QEAAAEAU?$less@I@2@XZ 0000000180043210 f i ManagerLib:GroupLogic.obj
 0001:00042210       ?_Left@?$_Tree_val@U?$_Tree_simple_types@U?$pair@$$CBGPEAUtagPARTIMG@@@std@@@std@@@std@@SAAEAPEAU?$_Tree_node@U?$pair@$$CBGPEAUtagPARTIMG@@@std@@PEAX@2@PEAU32@@Z 0000000180043210 f i ManagerLib:PartImgLogic.obj
 0001:00042210       ?_Get_first@?$_Compressed_pair@U?$_Wrap_alloc@V?$allocator@U?$_Tree_node@U?$pair@$$CBIPEAUtagMACHINEINFO@@@std@@PEAX@std@@@std@@@std@@V?$_Tree_val@U?$_Tree_simple_types@U?$pair@$$CBIPEAUtagMACHINEINFO@@@std@@@std@@@2@$00@std@@QEBAAEBU?$_Wrap_alloc@V?$allocator@U?$_Tree_node@U?$pair@$$CBIPEAUtagMACHINEINFO@@@std@@PEAX@std@@@std@@@2@XZ 0000000180043210 f i ManagerLib:GroupLogic.obj
 0001:00042210       ??$forward@AEAUtagUSERLIST_ITEM@@@std@@YAAEAUtagUSERLIST_ITEM@@AEAU1@@Z 0000000180043210 f i ManagerLib:UserLogic.obj
 0001:00042210       ?_Get_second@?$_Compressed_pair@U?$less@I@std@@V?$_Compressed_pair@U?$_Wrap_alloc@V?$allocator@U?$_Tree_node@U?$pair@$$CBIPEAUtagMACHINEINFO@@@std@@PEAX@std@@@std@@@std@@V?$_Tree_val@U?$_Tree_simple_types@U?$pair@$$CBIPEAUtagMACHINEINFO@@@std@@@std@@@2@$00@2@$00@std@@QEBAAEBV?$_Compressed_pair@U?$_Wrap_alloc@V?$allocator@U?$_Tree_node@U?$pair@$$CBIPEAUtagMACHINEINFO@@@std@@PEAX@std@@@std@@@std@@V?$_Tree_val@U?$_Tree_simple_types@U?$pair@$$CBIPEAUtagMACHINEINFO@@@std@@@std@@@2@$00@2@XZ 0000000180043210 f i ManagerLib:GroupLogic.obj
 0001:00042210       ?_Get_second@?$_Compressed_pair@U?$less@I@std@@V?$_Compressed_pair@U?$_Wrap_alloc@V?$allocator@U?$_Tree_node@U?$pair@$$CBIPEAUtagOSIMG@@@std@@PEAX@std@@@std@@@std@@V?$_Tree_val@U?$_Tree_simple_types@U?$pair@$$CBIPEAUtagOSIMG@@@std@@@std@@@2@$00@2@$00@std@@QEBAAEBV?$_Compressed_pair@U?$_Wrap_alloc@V?$allocator@U?$_Tree_node@U?$pair@$$CBIPEAUtagOSIMG@@@std@@PEAX@std@@@std@@@std@@V?$_Tree_val@U?$_Tree_simple_types@U?$pair@$$CBIPEAUtagOSIMG@@@std@@@std@@@2@$00@2@XZ 0000000180043210 f i ManagerLib:OsImgLogic.obj
 0001:00042210       ??0?$allocator@U?$_Tree_node@U?$pair@$$CBIPEAUtagGROUPINFO@@@std@@PEAX@std@@@std@@QEAA@XZ 0000000180043210 f i ManagerLib:GroupLogic.obj
 0001:00042210       ??$addressof@U?$pair@$$CBIPEAUtagDISKIMG@@@std@@@std@@YAPEAU?$pair@$$CBIPEAUtagDISKIMG@@@0@AEAU10@@Z 0000000180043210 f i ManagerLib:DiskLogic.obj
 0001:00042210       ?_Get_second@?$_Compressed_pair@U?$less@I@std@@V?$_Compressed_pair@U?$_Wrap_alloc@V?$allocator@U?$_Tree_node@U?$pair@$$CBIUtagUSERLIST_ITEM@@@std@@PEAX@std@@@std@@@std@@V?$_Tree_val@U?$_Tree_simple_types@U?$pair@$$CBIUtagUSERLIST_ITEM@@@std@@@std@@@2@$00@2@$00@std@@QEAAAEAV?$_Compressed_pair@U?$_Wrap_alloc@V?$allocator@U?$_Tree_node@U?$pair@$$CBIUtagUSERLIST_ITEM@@@std@@PEAX@std@@@std@@@std@@V?$_Tree_val@U?$_Tree_simple_types@U?$pair@$$CBIUtagUSERLIST_ITEM@@@std@@@std@@@2@$00@2@XZ 0000000180043210 f i ManagerLib:UserLogic.obj
 0001:00042210       ??$addressof@PEAU?$_Tree_node@U?$pair@$$CBIPEAUtagDISKIMG@@@std@@PEAX@std@@@std@@YAPEAPEAU?$_Tree_node@U?$pair@$$CBIPEAUtagDISKIMG@@@std@@PEAX@0@AEAPEAU10@@Z 0000000180043210 f i ManagerLib:DiskLogic.obj
 0001:00042210       ?_Get_second@?$_Compressed_pair@U?$less@I@std@@V?$_Compressed_pair@U?$_Wrap_alloc@V?$allocator@U?$_Tree_node@U?$pair@$$CBIPEAUtagREQUEST_EX@@@std@@PEAX@std@@@std@@@std@@V?$_Tree_val@U?$_Tree_simple_types@U?$pair@$$CBIPEAUtagREQUEST_EX@@@std@@@std@@@2@$00@2@$00@std@@QEAAAEAV?$_Compressed_pair@U?$_Wrap_alloc@V?$allocator@U?$_Tree_node@U?$pair@$$CBIPEAUtagREQUEST_EX@@@std@@PEAX@std@@@std@@@std@@V?$_Tree_val@U?$_Tree_simple_types@U?$pair@$$CBIPEAUtagREQUEST_EX@@@std@@@std@@@2@$00@2@XZ 0000000180043210 f i ManagerLib:SessionBuildPartImgCnt.obj
 0001:00042210       ?_Get_first@?$_Compressed_pair@U?$_Wrap_alloc@V?$allocator@U?$_Tree_node@U?$pair@$$CBIPEAUtagREQUEST_EX@@@std@@PEAX@std@@@std@@@std@@V?$_Tree_val@U?$_Tree_simple_types@U?$pair@$$CBIPEAUtagREQUEST_EX@@@std@@@std@@@2@$00@std@@QEAAAEAU?$_Wrap_alloc@V?$allocator@U?$_Tree_node@U?$pair@$$CBIPEAUtagREQUEST_EX@@@std@@PEAX@std@@@std@@@2@XZ 0000000180043210 f i ManagerLib:SessionBuildPartImgCnt.obj
 0001:00042210       ?_Get_second@?$_Compressed_pair@U?$_Wrap_alloc@V?$allocator@U?$_Tree_node@U?$pair@$$CBIPEAUtagMACHINEINFO@@@std@@PEAX@std@@@std@@@std@@V?$_Tree_val@U?$_Tree_simple_types@U?$pair@$$CBIPEAUtagMACHINEINFO@@@std@@@std@@@2@$00@std@@QEBAAEBV?$_Tree_val@U?$_Tree_simple_types@U?$pair@$$CBIPEAUtagMACHINEINFO@@@std@@@std@@@2@XZ 0000000180043210 f i ManagerLib:GroupLogic.obj
 0001:00042210       ??$forward@V?$_Tree_iterator@V?$_Tree_val@U?$_Tree_simple_types@U?$pair@$$CBHPEAVPacketHandler@@@std@@@std@@@std@@@std@@@std@@YA$$QEAV?$_Tree_iterator@V?$_Tree_val@U?$_Tree_simple_types@U?$pair@$$CBHPEAVPacketHandler@@@std@@@std@@@std@@@0@AEAV10@@Z 0000000180043210 f i ManagerLib:PacketHandlers.obj
 0001:00042210       ??$forward@U?$pair@$$CBIPEAUtagDISKIMG@@@std@@@std@@YA$$QEAU?$pair@$$CBIPEAUtagDISKIMG@@@0@AEAU10@@Z 0000000180043210 f i ManagerLib:DiskLogic.obj
 0001:00042210       ?_Get_first@?$_Compressed_pair@U?$_Wrap_alloc@V?$allocator@U?$_Tree_node@U?$pair@$$CBIPEAUtagOSIMG@@@std@@PEAX@std@@@std@@@std@@V?$_Tree_val@U?$_Tree_simple_types@U?$pair@$$CBIPEAUtagOSIMG@@@std@@@std@@@2@$00@std@@QEAAAEAU?$_Wrap_alloc@V?$allocator@U?$_Tree_node@U?$pair@$$CBIPEAUtagOSIMG@@@std@@PEAX@std@@@std@@@2@XZ 0000000180043210 f i ManagerLib:OsImgLogic.obj
 0001:00042210       ??$forward@AEAPEAU?$_Tree_node@U?$pair@$$CBIPEAUtagOSIMG@@@std@@PEAX@std@@@std@@YAAEAPEAU?$_Tree_node@U?$pair@$$CBIPEAUtagOSIMG@@@std@@PEAX@0@AEAPEAU10@@Z 0000000180043210 f i ManagerLib:OsImgLogic.obj
 0001:00042210       ??$_Kfn@$$CBIPEAUtagOSIMG@@@?$_Tmap_traits@IPEAUtagOSIMG@@U?$less@I@std@@V?$allocator@U?$pair@$$CBIPEAUtagOSIMG@@@std@@@3@$0A@@std@@SAAEBIAEBU?$pair@$$CBIPEAUtagOSIMG@@@1@@Z 0000000180043210 f i ManagerLib:OsImgLogic.obj
 0001:00042210       ??$addressof@U?$pair@$$CBIUtagUSERLIST_ITEM@@@std@@@std@@YAPEAU?$pair@$$CBIUtagUSERLIST_ITEM@@@0@AEAU10@@Z 0000000180043210 f i ManagerLib:UserLogic.obj
 0001:00042210       ??$addressof@PEAU?$_Tree_node@U?$pair@$$CBIUtagUSERLIST_ITEM@@@std@@PEAX@std@@@std@@YAPEAPEAU?$_Tree_node@U?$pair@$$CBIUtagUSERLIST_ITEM@@@std@@PEAX@0@AEAPEAU10@@Z 0000000180043210 f i ManagerLib:UserLogic.obj
 0001:00042210       ?_Get_second@?$_Compressed_pair@U?$_Wrap_alloc@V?$allocator@U?$_Tree_node@U?$pair@$$CBHPEAVPacketHandler@@@std@@PEAX@std@@@std@@@std@@V?$_Tree_val@U?$_Tree_simple_types@U?$pair@$$CBHPEAVPacketHandler@@@std@@@std@@@2@$00@std@@QEAAAEAV?$_Tree_val@U?$_Tree_simple_types@U?$pair@$$CBHPEAVPacketHandler@@@std@@@std@@@2@XZ 0000000180043210 f i ManagerLib:PacketHandlers.obj
 0001:00042210       ??$forward@AEAV?$_Tree_iterator@V?$_Tree_val@U?$_Tree_simple_types@U?$pair@$$CBIW4LogicType@@@std@@@std@@@std@@@std@@@std@@YAAEAV?$_Tree_iterator@V?$_Tree_val@U?$_Tree_simple_types@U?$pair@$$CBIW4LogicType@@@std@@@std@@@std@@@0@AEAV10@@Z 0000000180043210 f i ManagerLib:LogicManager.obj
 0001:00042210       ?_Left@?$_Tree_val@U?$_Tree_simple_types@U?$pair@$$CBIW4LogicType@@@std@@@std@@@std@@SAAEAPEAU?$_Tree_node@U?$pair@$$CBIW4LogicType@@@std@@PEAX@2@PEAU32@@Z 0000000180043210 f i ManagerLib:LogicManager.obj
 0001:00042210       ?_Left@?$_Tree_val@U?$_Tree_simple_types@U?$pair@$$CBIPEAUtagREQUEST_EX@@@std@@@std@@@std@@SAAEAPEAU?$_Tree_node@U?$pair@$$CBIPEAUtagREQUEST_EX@@@std@@PEAX@2@PEAU32@@Z 0000000180043210 f i ManagerLib:SessionBuildPartImgCnt.obj
 0001:00042210       ?_Get_first@?$_Compressed_pair@U?$less@I@std@@V?$_Compressed_pair@U?$_Wrap_alloc@V?$allocator@U?$_Tree_node@U?$pair@$$CBIUtagUSERLIST_ITEM@@@std@@PEAX@std@@@std@@@std@@V?$_Tree_val@U?$_Tree_simple_types@U?$pair@$$CBIUtagUSERLIST_ITEM@@@std@@@std@@@2@$00@2@$00@std@@QEBAAEBU?$less@I@2@XZ 0000000180043210 f i ManagerLib:UserLogic.obj
 0001:00042210       ?_Get_first@?$_Compressed_pair@U?$_Wrap_alloc@V?$allocator@U?$_Tree_node@U?$pair@$$CBHPEAVPacketHandler@@@std@@PEAX@std@@@std@@@std@@V?$_Tree_val@U?$_Tree_simple_types@U?$pair@$$CBHPEAVPacketHandler@@@std@@@std@@@2@$00@std@@QEBAAEBU?$_Wrap_alloc@V?$allocator@U?$_Tree_node@U?$pair@$$CBHPEAVPacketHandler@@@std@@PEAX@std@@@std@@@2@XZ 0000000180043210 f i ManagerLib:PacketHandlers.obj
 0001:00042210       ??$forward@AEAPEAUtagDISKIMG@@@std@@YAAEAPEAUtagDISKIMG@@AEAPEAU1@@Z 0000000180043210 f i ManagerLib:DiskLogic.obj
 0001:00042210       ?_Get_second@?$_Compressed_pair@U?$_Wrap_alloc@V?$allocator@U?$_Tree_node@U?$pair@$$CBIUtagUSERLIST_ITEM@@@std@@PEAX@std@@@std@@@std@@V?$_Tree_val@U?$_Tree_simple_types@U?$pair@$$CBIUtagUSERLIST_ITEM@@@std@@@std@@@2@$00@std@@QEAAAEAV?$_Tree_val@U?$_Tree_simple_types@U?$pair@$$CBIUtagUSERLIST_ITEM@@@std@@@std@@@2@XZ 0000000180043210 f i ManagerLib:UserLogic.obj
 0001:00042210       ??$forward@U?$pair@$$CBIPEAUtagMACHINEINFO@@@std@@@std@@YA$$QEAU?$pair@$$CBIPEAUtagMACHINEINFO@@@0@AEAU10@@Z 0000000180043210 f i ManagerLib:GroupLogic.obj
 0001:00042210       ??0?$allocator@U?$_Tree_node@U?$pair@$$CBHPEAVPacketHandler@@@std@@PEAX@std@@@std@@QEAA@XZ 0000000180043210 f i ManagerLib:PacketHandlers.obj
 0001:00042210       ??$forward@AEAPEAU?$_Tree_node@U?$pair@$$CBIPEAUtagMACHINEINFO@@@std@@PEAX@std@@@std@@YAAEAPEAU?$_Tree_node@U?$pair@$$CBIPEAUtagMACHINEINFO@@@std@@PEAX@0@AEAPEAU10@@Z 0000000180043210 f i ManagerLib:GroupLogic.obj
 0001:00042210       ?_Get_second@?$_Compressed_pair@U?$less@G@std@@V?$_Compressed_pair@U?$_Wrap_alloc@V?$allocator@U?$_Tree_node@U?$pair@$$CBGPEAUtagPARTIMG@@@std@@PEAX@std@@@std@@@std@@V?$_Tree_val@U?$_Tree_simple_types@U?$pair@$$CBGPEAUtagPARTIMG@@@std@@@std@@@2@$00@2@$00@std@@QEAAAEAV?$_Compressed_pair@U?$_Wrap_alloc@V?$allocator@U?$_Tree_node@U?$pair@$$CBGPEAUtagPARTIMG@@@std@@PEAX@std@@@std@@@std@@V?$_Tree_val@U?$_Tree_simple_types@U?$pair@$$CBGPEAUtagPARTIMG@@@std@@@std@@@2@$00@2@XZ 0000000180043210 f i ManagerLib:PartImgLogic.obj
 0001:00042210       ??$forward@AEAV?$_Tree_iterator@V?$_Tree_val@U?$_Tree_simple_types@U?$pair@$$CBIUtagUSERLIST_ITEM@@@std@@@std@@@std@@@std@@@std@@YAAEAV?$_Tree_iterator@V?$_Tree_val@U?$_Tree_simple_types@U?$pair@$$CBIUtagUSERLIST_ITEM@@@std@@@std@@@std@@@0@AEAV10@@Z 0000000180043210 f i ManagerLib:UserLogic.obj
 0001:00042210       ??$forward@W4LogicType@@@std@@YA$$QEAW4LogicType@@AEAW41@@Z 0000000180043210 f i ManagerLib:LogicManager.obj
 0001:00042210       ?_Left@?$_Tree_val@U?$_Tree_simple_types@U?$pair@$$CBIPEAUtagMACHINEINFO@@@std@@@std@@@std@@SAAEAPEAU?$_Tree_node@U?$pair@$$CBIPEAUtagMACHINEINFO@@@std@@PEAX@2@PEAU32@@Z 0000000180043210 f i ManagerLib:GroupLogic.obj
 0001:00042210       ??$forward@AEAPEAU?$_Tree_node@U?$pair@$$CBGPEAUtagPARTIMG@@@std@@PEAX@std@@@std@@YAAEAPEAU?$_Tree_node@U?$pair@$$CBGPEAUtagPARTIMG@@@std@@PEAX@0@AEAPEAU10@@Z 0000000180043210 f i ManagerLib:PartImgLogic.obj
 0001:00042210       ?_Get_first@?$_Compressed_pair@U?$_Wrap_alloc@V?$allocator@U?$_Tree_node@U?$pair@$$CBIW4LogicType@@@std@@PEAX@std@@@std@@@std@@V?$_Tree_val@U?$_Tree_simple_types@U?$pair@$$CBIW4LogicType@@@std@@@std@@@2@$00@std@@QEAAAEAU?$_Wrap_alloc@V?$allocator@U?$_Tree_node@U?$pair@$$CBIW4LogicType@@@std@@PEAX@std@@@std@@@2@XZ 0000000180043210 f i ManagerLib:LogicManager.obj
 0001:00042210       ?_Get_first@?$_Compressed_pair@U?$less@I@std@@V?$_Compressed_pair@U?$_Wrap_alloc@V?$allocator@U?$_Tree_node@U?$pair@$$CBIW4LogicType@@@std@@PEAX@std@@@std@@@std@@V?$_Tree_val@U?$_Tree_simple_types@U?$pair@$$CBIW4LogicType@@@std@@@std@@@2@$00@2@$00@std@@QEBAAEBU?$less@I@2@XZ 0000000180043210 f i ManagerLib:LogicManager.obj
 0001:00042210       ?_Get_first@?$_Compressed_pair@U?$less@G@std@@V?$_Compressed_pair@U?$_Wrap_alloc@V?$allocator@U?$_Tree_node@U?$pair@$$CBGPEAUtagPARTIMG@@@std@@PEAX@std@@@std@@@std@@V?$_Tree_val@U?$_Tree_simple_types@U?$pair@$$CBGPEAUtagPARTIMG@@@std@@@std@@@2@$00@2@$00@std@@QEBAAEBU?$less@G@2@XZ 0000000180043210 f i ManagerLib:PartImgLogic.obj
 0001:00042210       ??$forward@U?$pair@HPEAVPacketHandler@@@std@@@std@@YA$$QEAU?$pair@HPEAVPacketHandler@@@0@AEAU10@@Z 0000000180043210 f i ManagerLib:PacketHandlers.obj
 0001:00042210       ??$forward@AEAPEAU?$_Tree_node@U?$pair@$$CBIPEAUtagREQUEST_EX@@@std@@PEAX@std@@@std@@YAAEAPEAU?$_Tree_node@U?$pair@$$CBIPEAUtagREQUEST_EX@@@std@@PEAX@0@AEAPEAU10@@Z 0000000180043210 f i ManagerLib:SessionBuildPartImgCnt.obj
 0001:00042210       ??$forward@AEAV?$_Tree_iterator@V?$_Tree_val@U?$_Tree_simple_types@U?$pair@$$CBGPEAUtagPARTIMG@@@std@@@std@@@std@@@std@@@std@@YAAEAV?$_Tree_iterator@V?$_Tree_val@U?$_Tree_simple_types@U?$pair@$$CBGPEAUtagPARTIMG@@@std@@@std@@@std@@@0@AEAV10@@Z 0000000180043210 f i ManagerLib:PartImgLogic.obj
 0001:00042210       ?_Get_second@?$_Compressed_pair@U?$less@I@std@@V?$_Compressed_pair@U?$_Wrap_alloc@V?$allocator@U?$_Tree_node@U?$pair@$$CBIPEAUtagMACHINEINFO@@@std@@PEAX@std@@@std@@@std@@V?$_Tree_val@U?$_Tree_simple_types@U?$pair@$$CBIPEAUtagMACHINEINFO@@@std@@@std@@@2@$00@2@$00@std@@QEAAAEAV?$_Compressed_pair@U?$_Wrap_alloc@V?$allocator@U?$_Tree_node@U?$pair@$$CBIPEAUtagMACHINEINFO@@@std@@PEAX@std@@@std@@@std@@V?$_Tree_val@U?$_Tree_simple_types@U?$pair@$$CBIPEAUtagMACHINEINFO@@@std@@@std@@@2@$00@2@XZ 0000000180043210 f i ManagerLib:GroupLogic.obj
 0001:00042210       ??$forward@V?$tuple@AEBI@std@@@std@@YA$$QEAV?$tuple@AEBI@0@AEAV10@@Z 0000000180043210 f i ManagerLib:LogicManager.obj
 0001:00042210       ?_Get_first@?$_Compressed_pair@U?$_Wrap_alloc@V?$allocator@U?$_Tree_node@U?$pair@$$CBIUtagUSERLIST_ITEM@@@std@@PEAX@std@@@std@@@std@@V?$_Tree_val@U?$_Tree_simple_types@U?$pair@$$CBIUtagUSERLIST_ITEM@@@std@@@std@@@2@$00@std@@QEBAAEBU?$_Wrap_alloc@V?$allocator@U?$_Tree_node@U?$pair@$$CBIUtagUSERLIST_ITEM@@@std@@PEAX@std@@@std@@@2@XZ 0000000180043210 f i ManagerLib:UserLogic.obj
 0001:00042210       ?_Get_second@?$_Compressed_pair@U?$less@I@std@@V?$_Compressed_pair@U?$_Wrap_alloc@V?$allocator@U?$_Tree_node@U?$pair@$$CBIPEAUtagGROUPINFO@@@std@@PEAX@std@@@std@@@std@@V?$_Tree_val@U?$_Tree_simple_types@U?$pair@$$CBIPEAUtagGROUPINFO@@@std@@@std@@@2@$00@2@$00@std@@QEBAAEBV?$_Compressed_pair@U?$_Wrap_alloc@V?$allocator@U?$_Tree_node@U?$pair@$$CBIPEAUtagGROUPINFO@@@std@@PEAX@std@@@std@@@std@@V?$_Tree_val@U?$_Tree_simple_types@U?$pair@$$CBIPEAUtagGROUPINFO@@@std@@@std@@@2@$00@2@XZ 0000000180043210 f i ManagerLib:GroupLogic.obj
 0001:00042210       ??$forward@AEAV?$_Tree_iterator@V?$_Tree_val@U?$_Tree_simple_types@U?$pair@$$CBIPEAUtagDISKIMG@@@std@@@std@@@std@@@std@@@std@@YAAEAV?$_Tree_iterator@V?$_Tree_val@U?$_Tree_simple_types@U?$pair@$$CBIPEAUtagDISKIMG@@@std@@@std@@@std@@@0@AEAV10@@Z 0000000180043210 f i ManagerLib:DiskLogic.obj
 0001:00042210       ?_Left@?$_Tree_val@U?$_Tree_simple_types@U?$pair@$$CBIPEAUtagDISKIMG@@@std@@@std@@@std@@SAAEAPEAU?$_Tree_node@U?$pair@$$CBIPEAUtagDISKIMG@@@std@@PEAX@2@PEAU32@@Z 0000000180043210 f i ManagerLib:DiskLogic.obj
 0001:00042210       ?_Get_first@?$_Compressed_pair@U?$less@I@std@@V?$_Compressed_pair@U?$_Wrap_alloc@V?$allocator@U?$_Tree_node@U?$pair@$$CBIW4LogicType@@@std@@PEAX@std@@@std@@@std@@V?$_Tree_val@U?$_Tree_simple_types@U?$pair@$$CBIW4LogicType@@@std@@@std@@@2@$00@2@$00@std@@QEAAAEAU?$less@I@2@XZ 0000000180043210 f i ManagerLib:LogicManager.obj
 0001:00042210       ?_Get_second@?$_Compressed_pair@U?$less@H@std@@V?$_Compressed_pair@U?$_Wrap_alloc@V?$allocator@U?$_Tree_node@U?$pair@$$CBHPEAVPacketHandler@@@std@@PEAX@std@@@std@@@std@@V?$_Tree_val@U?$_Tree_simple_types@U?$pair@$$CBHPEAVPacketHandler@@@std@@@std@@@2@$00@2@$00@std@@QEAAAEAV?$_Compressed_pair@U?$_Wrap_alloc@V?$allocator@U?$_Tree_node@U?$pair@$$CBHPEAVPacketHandler@@@std@@PEAX@std@@@std@@@std@@V?$_Tree_val@U?$_Tree_simple_types@U?$pair@$$CBHPEAVPacketHandler@@@std@@@std@@@2@$00@2@XZ 0000000180043210 f i ManagerLib:PacketHandlers.obj
 0001:00042210       ??$addressof@PEAU?$_Tree_node@U?$pair@$$CBHPEAVPacketHandler@@@std@@PEAX@std@@@std@@YAPEAPEAU?$_Tree_node@U?$pair@$$CBHPEAVPacketHandler@@@std@@PEAX@0@AEAPEAU10@@Z 0000000180043210 f i ManagerLib:PacketHandlers.obj
 0001:00042210       ??$forward@V?$_Tree_iterator@V?$_Tree_val@U?$_Tree_simple_types@U?$pair@$$CBGPEAUtagPARTIMG@@@std@@@std@@@std@@@std@@@std@@YA$$QEAV?$_Tree_iterator@V?$_Tree_val@U?$_Tree_simple_types@U?$pair@$$CBGPEAUtagPARTIMG@@@std@@@std@@@std@@@0@AEAV10@@Z 0000000180043210 f i ManagerLib:PartImgLogic.obj
 0001:00042210       ?_Get_first@?$_Compressed_pair@U?$_Wrap_alloc@V?$allocator@U?$_Tree_node@U?$pair@$$CBHPEAVPacketHandler@@@std@@PEAX@std@@@std@@@std@@V?$_Tree_val@U?$_Tree_simple_types@U?$pair@$$CBHPEAVPacketHandler@@@std@@@std@@@2@$00@std@@QEAAAEAU?$_Wrap_alloc@V?$allocator@U?$_Tree_node@U?$pair@$$CBHPEAVPacketHandler@@@std@@PEAX@std@@@std@@@2@XZ 0000000180043210 f i ManagerLib:PacketHandlers.obj
 0001:00042210       ?_Get_second@?$_Compressed_pair@U?$less@I@std@@V?$_Compressed_pair@U?$_Wrap_alloc@V?$allocator@U?$_Tree_node@U?$pair@$$CBIPEAUtagOSIMG@@@std@@PEAX@std@@@std@@@std@@V?$_Tree_val@U?$_Tree_simple_types@U?$pair@$$CBIPEAUtagOSIMG@@@std@@@std@@@2@$00@2@$00@std@@QEAAAEAV?$_Compressed_pair@U?$_Wrap_alloc@V?$allocator@U?$_Tree_node@U?$pair@$$CBIPEAUtagOSIMG@@@std@@PEAX@std@@@std@@@std@@V?$_Tree_val@U?$_Tree_simple_types@U?$pair@$$CBIPEAUtagOSIMG@@@std@@@std@@@2@$00@2@XZ 0000000180043210 f i ManagerLib:OsImgLogic.obj
 0001:00042210       ??$forward@AEBU?$less@H@std@@@std@@YAAEBU?$less@H@0@AEBU10@@Z 0000000180043210 f i ManagerLib:PacketHandlers.obj
 0001:00042210       ?_Get_first@?$_Compressed_pair@U?$less@H@std@@V?$_Compressed_pair@U?$_Wrap_alloc@V?$allocator@U?$_Tree_node@U?$pair@$$CBHPEAVPacketHandler@@@std@@PEAX@std@@@std@@@std@@V?$_Tree_val@U?$_Tree_simple_types@U?$pair@$$CBHPEAVPacketHandler@@@std@@@std@@@2@$00@2@$00@std@@QEAAAEAU?$less@H@2@XZ 0000000180043210 f i ManagerLib:PacketHandlers.obj
 0001:00042210       ?_Get_second@?$_Compressed_pair@U?$_Wrap_alloc@V?$allocator@U?$_Tree_node@U?$pair@$$CBIPEAUtagMACHINEINFO@@@std@@PEAX@std@@@std@@@std@@V?$_Tree_val@U?$_Tree_simple_types@U?$pair@$$CBIPEAUtagMACHINEINFO@@@std@@@std@@@2@$00@std@@QEAAAEAV?$_Tree_val@U?$_Tree_simple_types@U?$pair@$$CBIPEAUtagMACHINEINFO@@@std@@@std@@@2@XZ 0000000180043210 f i ManagerLib:GroupLogic.obj
 0001:00042210       ??$forward@V?$_Tree_iterator@V?$_Tree_val@U?$_Tree_simple_types@U?$pair@$$CBIPEAUtagMACHINEINFO@@@std@@@std@@@std@@@std@@@std@@YA$$QEAV?$_Tree_iterator@V?$_Tree_val@U?$_Tree_simple_types@U?$pair@$$CBIPEAUtagMACHINEINFO@@@std@@@std@@@std@@@0@AEAV10@@Z 0000000180043210 f i ManagerLib:GroupLogic.obj
 0001:00042210       ??$_Kfn@$$CBIPEAUtagGROUPINFO@@@?$_Tmap_traits@IPEAUtagGROUPINFO@@U?$less@I@std@@V?$allocator@U?$pair@$$CBIPEAUtagGROUPINFO@@@std@@@3@$0A@@std@@SAAEBIAEBU?$pair@$$CBIPEAUtagGROUPINFO@@@1@@Z 0000000180043210 f i ManagerLib:GroupLogic.obj
 0001:00042210       ?_Get_first@?$_Compressed_pair@U?$_Wrap_alloc@V?$allocator@U?$_Tree_node@U?$pair@$$CBIPEAUtagREQUEST_EX@@@std@@PEAX@std@@@std@@@std@@V?$_Tree_val@U?$_Tree_simple_types@U?$pair@$$CBIPEAUtagREQUEST_EX@@@std@@@std@@@2@$00@std@@QEBAAEBU?$_Wrap_alloc@V?$allocator@U?$_Tree_node@U?$pair@$$CBIPEAUtagREQUEST_EX@@@std@@PEAX@std@@@std@@@2@XZ 0000000180043210 f i ManagerLib:SessionBuildPartImgCnt.obj
 0001:00042210       ?_Get_first@?$_Compressed_pair@U?$_Wrap_alloc@V?$allocator@U?$_Tree_node@U?$pair@$$CBIPEAUtagGROUPINFO@@@std@@PEAX@std@@@std@@@std@@V?$_Tree_val@U?$_Tree_simple_types@U?$pair@$$CBIPEAUtagGROUPINFO@@@std@@@std@@@2@$00@std@@QEBAAEBU?$_Wrap_alloc@V?$allocator@U?$_Tree_node@U?$pair@$$CBIPEAUtagGROUPINFO@@@std@@PEAX@std@@@std@@@2@XZ 0000000180043210 f i ManagerLib:GroupLogic.obj
 0001:00042210       ?_Get_second@?$_Compressed_pair@U?$less@G@std@@V?$_Compressed_pair@U?$_Wrap_alloc@V?$allocator@U?$_Tree_node@U?$pair@$$CBGPEAUtagPARTIMG@@@std@@PEAX@std@@@std@@@std@@V?$_Tree_val@U?$_Tree_simple_types@U?$pair@$$CBGPEAUtagPARTIMG@@@std@@@std@@@2@$00@2@$00@std@@QEBAAEBV?$_Compressed_pair@U?$_Wrap_alloc@V?$allocator@U?$_Tree_node@U?$pair@$$CBGPEAUtagPARTIMG@@@std@@PEAX@std@@@std@@@std@@V?$_Tree_val@U?$_Tree_simple_types@U?$pair@$$CBGPEAUtagPARTIMG@@@std@@@std@@@2@$00@2@XZ 0000000180043210 f i ManagerLib:PartImgLogic.obj
 0001:00042210       ?_Get_first@?$_Compressed_pair@U?$_Wrap_alloc@V?$allocator@U?$_Tree_node@U?$pair@$$CBIPEAUtagMACHINEINFO@@@std@@PEAX@std@@@std@@@std@@V?$_Tree_val@U?$_Tree_simple_types@U?$pair@$$CBIPEAUtagMACHINEINFO@@@std@@@std@@@2@$00@std@@QEAAAEAU?$_Wrap_alloc@V?$allocator@U?$_Tree_node@U?$pair@$$CBIPEAUtagMACHINEINFO@@@std@@PEAX@std@@@std@@@2@XZ 0000000180043210 f i ManagerLib:GroupLogic.obj
 0001:00042210       ??$addressof@U?$pair@$$CBIPEAUtagREQUEST_EX@@@std@@@std@@YAPEAU?$pair@$$CBIPEAUtagREQUEST_EX@@@0@AEAU10@@Z 0000000180043210 f i ManagerLib:SessionBuildPartImgCnt.obj
 0001:00042210       ?_Get_first@?$_Compressed_pair@U?$less@I@std@@V?$_Compressed_pair@U?$_Wrap_alloc@V?$allocator@U?$_Tree_node@U?$pair@$$CBIPEAUtagGROUPINFO@@@std@@PEAX@std@@@std@@@std@@V?$_Tree_val@U?$_Tree_simple_types@U?$pair@$$CBIPEAUtagGROUPINFO@@@std@@@std@@@2@$00@2@$00@std@@QEAAAEAU?$less@I@2@XZ 0000000180043210 f i ManagerLib:GroupLogic.obj
 0001:00042210       ??$forward@AEAV?$_Tree_iterator@V?$_Tree_val@U?$_Tree_simple_types@U?$pair@$$CBIPEAUtagMACHINEINFO@@@std@@@std@@@std@@@std@@@std@@YAAEAV?$_Tree_iterator@V?$_Tree_val@U?$_Tree_simple_types@U?$pair@$$CBIPEAUtagMACHINEINFO@@@std@@@std@@@std@@@0@AEAV10@@Z 0000000180043210 f i ManagerLib:GroupLogic.obj
 0001:00042210       ?_Get_second@?$_Compressed_pair@U?$_Wrap_alloc@V?$allocator@U?$_Tree_node@U?$pair@$$CBIPEAUtagREQUEST_EX@@@std@@PEAX@std@@@std@@@std@@V?$_Tree_val@U?$_Tree_simple_types@U?$pair@$$CBIPEAUtagREQUEST_EX@@@std@@@std@@@2@$00@std@@QEBAAEBV?$_Tree_val@U?$_Tree_simple_types@U?$pair@$$CBIPEAUtagREQUEST_EX@@@std@@@std@@@2@XZ 0000000180043210 f i ManagerLib:SessionBuildPartImgCnt.obj
 0001:00042210       ??$addressof@U?$pair@$$CBIPEAUtagMACHINEINFO@@@std@@@std@@YAPEAU?$pair@$$CBIPEAUtagMACHINEINFO@@@0@AEAU10@@Z 0000000180043210 f i ManagerLib:GroupLogic.obj
 0001:00042210       ??BCSockAddr@@QEAAPEAUsockaddr@@XZ 0000000180043210 f i ManagerLib:SessionEndMag.obj
 0001:00042250       ??$_Lbound@I@?$_Tree@V?$_Tmap_traits@IW4LogicType@@U?$less@I@std@@V?$allocator@U?$pair@$$CBIW4LogicType@@@std@@@3@$0A@@std@@@std@@IEBAPEAU?$_Tree_node@U?$pair@$$CBIW4LogicType@@@std@@PEAX@1@AEBI@Z 0000000180043250 f i ManagerLib:LogicManager.obj
 0001:00042250       ??$_Lbound@I@?$_Tree@V?$_Tmap_traits@IUtagUSERLIST_ITEM@@U?$less@I@std@@V?$allocator@U?$pair@$$CBIUtagUSERLIST_ITEM@@@std@@@3@$0A@@std@@@std@@IEBAPEAU?$_Tree_node@U?$pair@$$CBIUtagUSERLIST_ITEM@@@std@@PEAX@1@AEBI@Z 0000000180043250 f i ManagerLib:UserLogic.obj
 0001:00042320       ??$_Try_emplace@AEBI$$V@?$map@IW4LogicType@@U?$less@I@std@@V?$allocator@U?$pair@$$CBIW4LogicType@@@std@@@3@@std@@QEAA?AU?$pair@V?$_Tree_iterator@V?$_Tree_val@U?$_Tree_simple_types@U?$pair@$$CBIW4LogicType@@@std@@@std@@@std@@@std@@_N@1@AEBI@Z 0000000180043320 f i ManagerLib:LogicManager.obj
 0001:000424f0       ??$__vcrt_va_start_verify_argument_type@QEBD@@YAXXZ 00000001800434f0 f i ManagerLib:LogicManager.obj
 0001:00042520       ??$construct@U?$pair@$$CBIW4LogicType@@@std@@AEBUpiecewise_construct_t@2@V?$tuple@AEBI@2@V?$tuple@$$V@2@@?$_Wrap_alloc@V?$allocator@U?$_Tree_node@U?$pair@$$CBIW4LogicType@@@std@@PEAX@std@@@std@@@std@@QEAAXPEAU?$pair@$$CBIW4LogicType@@@1@AEBUpiecewise_construct_t@1@$$QEAV?$tuple@AEBI@1@$$QEAV?$tuple@$$V@1@@Z 0000000180043520 f i ManagerLib:LogicManager.obj
 0001:000425d0       ??$construct@U?$pair@$$CBIW4LogicType@@@std@@AEBUpiecewise_construct_t@2@V?$tuple@AEBI@2@V?$tuple@$$V@2@@?$allocator@U?$_Tree_node@U?$pair@$$CBIW4LogicType@@@std@@PEAX@std@@@std@@QEAAXPEAU?$pair@$$CBIW4LogicType@@@1@AEBUpiecewise_construct_t@1@$$QEAV?$tuple@AEBI@1@$$QEAV?$tuple@$$V@1@@Z 00000001800435d0 f i ManagerLib:LogicManager.obj
 0001:00042700       ??$construct@U?$pair@$$CBIW4LogicType@@@std@@AEBUpiecewise_construct_t@2@V?$tuple@AEBI@2@V?$tuple@$$V@2@@?$allocator_traits@V?$allocator@U?$_Tree_node@U?$pair@$$CBIW4LogicType@@@std@@PEAX@std@@@std@@@std@@SAXAEAV?$allocator@U?$_Tree_node@U?$pair@$$CBIW4LogicType@@@std@@PEAX@std@@@1@PEAU?$pair@$$CBIW4LogicType@@@1@AEBUpiecewise_construct_t@1@$$QEAV?$tuple@AEBI@1@$$QEAV?$tuple@$$V@1@@Z 0000000180043700 f i ManagerLib:LogicManager.obj
 0001:000427b0       ??$construct@U?$pair@$$CBIW4LogicType@@@std@@U?$pair@IW4LogicType@@@2@@?$_Wrap_alloc@V?$allocator@U?$_Tree_node@U?$pair@$$CBIW4LogicType@@@std@@PEAX@std@@@std@@@std@@QEAAXPEAU?$pair@$$CBIW4LogicType@@@1@$$QEAU?$pair@IW4LogicType@@@1@@Z 00000001800437b0 f i ManagerLib:LogicManager.obj
 0001:00042810       ??$construct@U?$pair@$$CBIW4LogicType@@@std@@U?$pair@IW4LogicType@@@2@@?$allocator@U?$_Tree_node@U?$pair@$$CBIW4LogicType@@@std@@PEAX@std@@@std@@QEAAXPEAU?$pair@$$CBIW4LogicType@@@1@$$QEAU?$pair@IW4LogicType@@@1@@Z 0000000180043810 f i ManagerLib:LogicManager.obj
 0001:000428a0       ??$construct@U?$pair@$$CBIW4LogicType@@@std@@U?$pair@IW4LogicType@@@2@@?$allocator_traits@V?$allocator@U?$_Tree_node@U?$pair@$$CBIW4LogicType@@@std@@PEAX@std@@@std@@@std@@SAXAEAV?$allocator@U?$_Tree_node@U?$pair@$$CBIW4LogicType@@@std@@PEAX@std@@@1@PEAU?$pair@$$CBIW4LogicType@@@1@$$QEAU?$pair@IW4LogicType@@@1@@Z 00000001800438a0 f i ManagerLib:LogicManager.obj
 0001:00042900       ??$destroy@PEAU?$_Tree_node@U?$pair@$$CBIPEAUtagREQUEST_EX@@@std@@PEAX@std@@@?$_Wrap_alloc@V?$allocator@U?$_Tree_node@U?$pair@$$CBIPEAUtagREQUEST_EX@@@std@@PEAX@std@@@std@@@std@@QEAAXPEAPEAU?$_Tree_node@U?$pair@$$CBIPEAUtagREQUEST_EX@@@std@@PEAX@1@@Z 0000000180043900 f i ManagerLib:SessionBuildPartImgCnt.obj
 0001:00042900       ??$destroy@U?$pair@$$CBIPEAUtagOSIMG@@@std@@@?$_Wrap_alloc@V?$allocator@U?$_Tree_node@U?$pair@$$CBIPEAUtagOSIMG@@@std@@PEAX@std@@@std@@@std@@QEAAXPEAU?$pair@$$CBIPEAUtagOSIMG@@@1@@Z 0000000180043900 f i ManagerLib:OsImgLogic.obj
 0001:00042900       ??$destroy@PEAU?$_Tree_node@U?$pair@$$CBIPEAUtagDISKIMG@@@std@@PEAX@std@@@?$_Wrap_alloc@V?$allocator@U?$_Tree_node@U?$pair@$$CBIPEAUtagDISKIMG@@@std@@PEAX@std@@@std@@@std@@QEAAXPEAPEAU?$_Tree_node@U?$pair@$$CBIPEAUtagDISKIMG@@@std@@PEAX@1@@Z 0000000180043900 f i ManagerLib:DiskLogic.obj
 0001:00042900       ??$destroy@U?$pair@$$CBIPEAUtagGROUPINFO@@@std@@@?$_Wrap_alloc@V?$allocator@U?$_Tree_node@U?$pair@$$CBIPEAUtagGROUPINFO@@@std@@PEAX@std@@@std@@@std@@QEAAXPEAU?$pair@$$CBIPEAUtagGROUPINFO@@@1@@Z 0000000180043900 f i ManagerLib:GroupLogic.obj
 0001:00042900       ??$destroy@U?$pair@$$CBIPEAUtagREQUEST_EX@@@std@@@?$_Wrap_alloc@V?$allocator@U?$_Tree_node@U?$pair@$$CBIPEAUtagREQUEST_EX@@@std@@PEAX@std@@@std@@@std@@QEAAXPEAU?$pair@$$CBIPEAUtagREQUEST_EX@@@1@@Z 0000000180043900 f i ManagerLib:SessionBuildPartImgCnt.obj
 0001:00042900       ??$destroy@PEAU?$_Tree_node@U?$pair@$$CBGPEAUtagPARTIMG@@@std@@PEAX@std@@@?$_Wrap_alloc@V?$allocator@U?$_Tree_node@U?$pair@$$CBGPEAUtagPARTIMG@@@std@@PEAX@std@@@std@@@std@@QEAAXPEAPEAU?$_Tree_node@U?$pair@$$CBGPEAUtagPARTIMG@@@std@@PEAX@1@@Z 0000000180043900 f i ManagerLib:PartImgLogic.obj
 0001:00042900       ??$destroy@U?$pair@$$CBIW4LogicType@@@std@@@?$_Wrap_alloc@V?$allocator@U?$_Tree_node@U?$pair@$$CBIW4LogicType@@@std@@PEAX@std@@@std@@@std@@QEAAXPEAU?$pair@$$CBIW4LogicType@@@1@@Z 0000000180043900 f i ManagerLib:LogicManager.obj
 0001:00042900       ??$destroy@PEAU?$_Tree_node@U?$pair@$$CBIPEAUtagMACHINEINFO@@@std@@PEAX@std@@@?$_Wrap_alloc@V?$allocator@U?$_Tree_node@U?$pair@$$CBIPEAUtagMACHINEINFO@@@std@@PEAX@std@@@std@@@std@@QEAAXPEAPEAU?$_Tree_node@U?$pair@$$CBIPEAUtagMACHINEINFO@@@std@@PEAX@1@@Z 0000000180043900 f i ManagerLib:GroupLogic.obj
 0001:00042900       ??$destroy@U?$pair@$$CBHPEAVPacketHandler@@@std@@@?$_Wrap_alloc@V?$allocator@U?$_Tree_node@U?$pair@$$CBHPEAVPacketHandler@@@std@@PEAX@std@@@std@@@std@@QEAAXPEAU?$pair@$$CBHPEAVPacketHandler@@@1@@Z 0000000180043900 f i ManagerLib:PacketHandlers.obj
 0001:00042900       ??$destroy@U?$pair@$$CBIPEAUtagDISKIMG@@@std@@@?$_Wrap_alloc@V?$allocator@U?$_Tree_node@U?$pair@$$CBIPEAUtagDISKIMG@@@std@@PEAX@std@@@std@@@std@@QEAAXPEAU?$pair@$$CBIPEAUtagDISKIMG@@@1@@Z 0000000180043900 f i ManagerLib:DiskLogic.obj
 0001:00042900       ??$destroy@PEAU?$_Tree_node@U?$pair@$$CBIPEAUtagGROUPINFO@@@std@@PEAX@std@@@?$_Wrap_alloc@V?$allocator@U?$_Tree_node@U?$pair@$$CBIPEAUtagGROUPINFO@@@std@@PEAX@std@@@std@@@std@@QEAAXPEAPEAU?$_Tree_node@U?$pair@$$CBIPEAUtagGROUPINFO@@@std@@PEAX@1@@Z 0000000180043900 f i ManagerLib:GroupLogic.obj
 0001:00042900       ??$destroy@PEAU?$_Tree_node@U?$pair@$$CBIW4LogicType@@@std@@PEAX@std@@@?$_Wrap_alloc@V?$allocator@U?$_Tree_node@U?$pair@$$CBIW4LogicType@@@std@@PEAX@std@@@std@@@std@@QEAAXPEAPEAU?$_Tree_node@U?$pair@$$CBIW4LogicType@@@std@@PEAX@1@@Z 0000000180043900 f i ManagerLib:LogicManager.obj
 0001:00042900       ??$destroy@PEAU?$_Tree_node@U?$pair@$$CBIPEAUtagOSIMG@@@std@@PEAX@std@@@?$_Wrap_alloc@V?$allocator@U?$_Tree_node@U?$pair@$$CBIPEAUtagOSIMG@@@std@@PEAX@std@@@std@@@std@@QEAAXPEAPEAU?$_Tree_node@U?$pair@$$CBIPEAUtagOSIMG@@@std@@PEAX@1@@Z 0000000180043900 f i ManagerLib:OsImgLogic.obj
 0001:00042900       ??$destroy@U?$pair@$$CBGPEAUtagPARTIMG@@@std@@@?$_Wrap_alloc@V?$allocator@U?$_Tree_node@U?$pair@$$CBGPEAUtagPARTIMG@@@std@@PEAX@std@@@std@@@std@@QEAAXPEAU?$pair@$$CBGPEAUtagPARTIMG@@@1@@Z 0000000180043900 f i ManagerLib:PartImgLogic.obj
 0001:00042900       ??$destroy@PEAU?$_Tree_node@U?$pair@$$CBIUtagUSERLIST_ITEM@@@std@@PEAX@std@@@?$_Wrap_alloc@V?$allocator@U?$_Tree_node@U?$pair@$$CBIUtagUSERLIST_ITEM@@@std@@PEAX@std@@@std@@@std@@QEAAXPEAPEAU?$_Tree_node@U?$pair@$$CBIUtagUSERLIST_ITEM@@@std@@PEAX@1@@Z 0000000180043900 f i ManagerLib:UserLogic.obj
 0001:00042900       ??$destroy@U?$pair@$$CBIUtagUSERLIST_ITEM@@@std@@@?$_Wrap_alloc@V?$allocator@U?$_Tree_node@U?$pair@$$CBIUtagUSERLIST_ITEM@@@std@@PEAX@std@@@std@@@std@@QEAAXPEAU?$pair@$$CBIUtagUSERLIST_ITEM@@@1@@Z 0000000180043900 f i ManagerLib:UserLogic.obj
 0001:00042900       ??$destroy@PEAU?$_Tree_node@U?$pair@$$CBHPEAVPacketHandler@@@std@@PEAX@std@@@?$_Wrap_alloc@V?$allocator@U?$_Tree_node@U?$pair@$$CBHPEAVPacketHandler@@@std@@PEAX@std@@@std@@@std@@QEAAXPEAPEAU?$_Tree_node@U?$pair@$$CBHPEAVPacketHandler@@@std@@PEAX@1@@Z 0000000180043900 f i ManagerLib:PacketHandlers.obj
 0001:00042900       ??$destroy@U?$pair@$$CBIPEAUtagMACHINEINFO@@@std@@@?$_Wrap_alloc@V?$allocator@U?$_Tree_node@U?$pair@$$CBIPEAUtagMACHINEINFO@@@std@@PEAX@std@@@std@@@std@@QEAAXPEAU?$pair@$$CBIPEAUtagMACHINEINFO@@@1@@Z 0000000180043900 f i ManagerLib:GroupLogic.obj
 0001:00042950       ??$emplace@U?$pair@IW4LogicType@@@std@@@?$_Tree@V?$_Tmap_traits@IW4LogicType@@U?$less@I@std@@V?$allocator@U?$pair@$$CBIW4LogicType@@@std@@@3@$0A@@std@@@std@@QEAA?AU?$pair@V?$_Tree_iterator@V?$_Tree_val@U?$_Tree_simple_types@U?$pair@$$CBIW4LogicType@@@std@@@std@@@std@@@std@@_N@1@$$QEAU?$pair@IW4LogicType@@@1@@Z 0000000180043950 f i ManagerLib:LogicManager.obj
 0001:000429e0       ??$emplace_hint@AEBUpiecewise_construct_t@std@@V?$tuple@AEBI@2@V?$tuple@$$V@2@@?$_Tree@V?$_Tmap_traits@IW4LogicType@@U?$less@I@std@@V?$allocator@U?$pair@$$CBIW4LogicType@@@std@@@3@$0A@@std@@@std@@QEAA?AV?$_Tree_iterator@V?$_Tree_val@U?$_Tree_simple_types@U?$pair@$$CBIW4LogicType@@@std@@@std@@@std@@@1@V?$_Tree_const_iterator@V?$_Tree_val@U?$_Tree_simple_types@U?$pair@$$CBIW4LogicType@@@std@@@std@@@std@@@1@AEBUpiecewise_construct_t@1@$$QEAV?$tuple@AEBI@1@$$QEAV?$tuple@$$V@1@@Z 00000001800439e0 f i ManagerLib:LogicManager.obj
 0001:00042ac0       ??$forward_as_tuple@AEBI@std@@YA?AV?$tuple@AEBI@0@AEBI@Z 0000000180043ac0 f i ManagerLib:LogicManager.obj
 0001:00042b30       ??$get@$0A@AEBI@std@@YAAEBI$$QEAV?$tuple@AEBI@0@@Z 0000000180043b30 f i ManagerLib:LogicManager.obj
 0001:00042b80       ??$insert@U?$pair@IW4LogicType@@@std@@X@?$map@IW4LogicType@@U?$less@I@std@@V?$allocator@U?$pair@$$CBIW4LogicType@@@std@@@3@@std@@QEAA?AU?$pair@V?$_Tree_iterator@V?$_Tree_val@U?$_Tree_simple_types@U?$pair@$$CBIW4LogicType@@@std@@@std@@@std@@@std@@_N@1@$$QEAU?$pair@IW4LogicType@@@1@@Z 0000000180043b80 f i ManagerLib:LogicManager.obj
 0001:00042bf0       ??$try_emplace@$$V@?$map@IW4LogicType@@U?$less@I@std@@V?$allocator@U?$pair@$$CBIW4LogicType@@@std@@@3@@std@@QEAA?AU?$pair@V?$_Tree_iterator@V?$_Tree_val@U?$_Tree_simple_types@U?$pair@$$CBIW4LogicType@@@std@@@std@@@std@@@std@@_N@1@AEBI@Z 0000000180043bf0 f i ManagerLib:LogicManager.obj
 0001:00042c50       ??0?$KSingleton@VCLogicManager@@@Patterns@System@@IEAA@XZ 0000000180043c50 f i ManagerLib:LogicManager.obj
 0001:00042ca0       ??0?$_Tree@V?$_Tmap_traits@IW4LogicType@@U?$less@I@std@@V?$allocator@U?$pair@$$CBIW4LogicType@@@std@@@3@$0A@@std@@@std@@QEAA@AEBU?$less@I@1@@Z 0000000180043ca0 f i ManagerLib:LogicManager.obj
 0001:00042d00       ??0?$_Tree_comp_alloc@V?$_Tmap_traits@IW4LogicType@@U?$less@I@std@@V?$allocator@U?$pair@$$CBIW4LogicType@@@std@@@3@$0A@@std@@@std@@QEAA@AEBU?$less@I@1@@Z 0000000180043d00 f i ManagerLib:LogicManager.obj
 0001:00042d70       ??0?$map@IW4LogicType@@U?$less@I@std@@V?$allocator@U?$pair@$$CBIW4LogicType@@@std@@@3@@std@@QEAA@XZ 0000000180043d70 f i ManagerLib:LogicManager.obj
 0001:00042dc0       ??0?$tuple@$$V@std@@QEAA@AEBV01@@Z 0000000180043dc0 f i ManagerLib:LogicManager.obj
 0001:00042e00       ??0?$tuple@AEBI@std@@QEAA@$$QEAV01@@Z 0000000180043e00 f i ManagerLib:LogicManager.obj
 0001:00042e70       ??0CLogicManager@@QEAA@XZ  0000000180043e70 f   ManagerLib:LogicManager.obj
 0001:00042ee0       ??1?$KSingleton@VCLogicManager@@@Patterns@System@@IEAA@XZ 0000000180043ee0 f i ManagerLib:LogicManager.obj
 0001:00042f20       ??A?$map@IW4LogicType@@U?$less@I@std@@V?$allocator@U?$pair@$$CBIW4LogicType@@@std@@@3@@std@@QEAAAEAW4LogicType@@AEBI@Z 0000000180043f20 f i ManagerLib:LogicManager.obj
 0001:00042f80       ??D?$_Tree_const_iterator@V?$_Tree_val@U?$_Tree_simple_types@U?$pair@$$CBIW4LogicType@@@std@@@std@@@std@@@std@@QEBAAEBU?$pair@$$CBIW4LogicType@@@1@XZ 0000000180043f80 f i ManagerLib:LogicManager.obj
 0001:00042f80       ??D?$_Tree_const_iterator@V?$_Tree_val@U?$_Tree_simple_types@U?$pair@$$CBIUtagUSERLIST_ITEM@@@std@@@std@@@std@@@std@@QEBAAEBU?$pair@$$CBIUtagUSERLIST_ITEM@@@1@XZ 0000000180043f80 f i ManagerLib:UserLogic.obj
 0001:00042fd0       ??D?$_Tree_iterator@V?$_Tree_val@U?$_Tree_simple_types@U?$pair@$$CBIW4LogicType@@@std@@@std@@@std@@@std@@QEBAAEAU?$pair@$$CBIW4LogicType@@@1@XZ 0000000180043fd0 f i ManagerLib:LogicManager.obj
 0001:00042fd0       ??D?$_Tree_iterator@V?$_Tree_val@U?$_Tree_simple_types@U?$pair@$$CBIUtagUSERLIST_ITEM@@@std@@@std@@@std@@@std@@QEBAAEAU?$pair@$$CBIUtagUSERLIST_ITEM@@@1@XZ 0000000180043fd0 f i ManagerLib:UserLogic.obj
 0001:00043010       ??R?$Delegate@$$A6AHPEAUtagREQUEST_EX@@@Z@@QEBAHPEAUtagREQUEST_EX@@@Z 0000000180044010 f i ManagerLib:LogicManager.obj
 0001:000430b0       ?AddCmdLogic@CLogicManager@@QEAAHIW4LogicType@@@Z 00000001800440b0 f   ManagerLib:LogicManager.obj
 0001:00043130       ?CallBackHandler@CLogicManager@@QEAAHPEAUtagREQUEST_EX@@@Z 0000000180044130 f   ManagerLib:LogicManager.obj
 0001:000431c0       ?Initialize@CLogicManager@@QEAAHPEADG0G@Z 00000001800441c0 f   ManagerLib:LogicManager.obj
 0001:00043590       ?Instance@?$KSingleton@VCGroupLogic@@@Patterns@System@@SAPEAVCGroupLogic@@XZ 0000000180044590 f i ManagerLib:LogicManager.obj
 0001:00043650       ?Instance@?$KSingleton@VCLoginLogic@@@Patterns@System@@SAPEAVCLoginLogic@@XZ 0000000180044650 f i ManagerLib:LogicManager.obj
 0001:00043700       ?Instance@?$KSingleton@VCOsImgLogic@@@Patterns@System@@SAPEAVCOsImgLogic@@XZ 0000000180044700 f i ManagerLib:LogicManager.obj
 0001:000437c0       ?Instance@?$KSingleton@VCPartImgLogic@@@Patterns@System@@SAPEAVCPartImgLogic@@XZ 00000001800447c0 f i ManagerLib:LogicManager.obj
 0001:00043880       ?Instance@?$KSingleton@VCUserLogic@@@Patterns@System@@SAPEAVCUserLogic@@XZ 0000000180044880 f i ManagerLib:LogicManager.obj
 0001:00043940       ?InvokeDelegateList@?$Delegate@$$A6AHPEAUtagREQUEST_EX@@@Z@@CAXPEAVDelegateImplBase@1@PEAUtagREQUEST_EX@@@Z 0000000180044940 f i ManagerLib:LogicManager.obj
 0001:000439d0       ?OpenManagerSession@CLogicManager@@AEAAHPEADG0G@Z 00000001800449d0 f   ManagerLib:LogicManager.obj
 0001:00043ac0       ?Process@CLogicManager@@QEAAHHPEAUtagREQUEST_EX@@@Z 0000000180044ac0 f   ManagerLib:LogicManager.obj
 0001:00043ed0       ?_Buyheadnode@?$_Tree_comp_alloc@V?$_Tmap_traits@IW4LogicType@@U?$less@I@std@@V?$allocator@U?$pair@$$CBIW4LogicType@@@std@@@3@$0A@@std@@@std@@QEAAPEAU?$_Tree_node@U?$pair@$$CBIW4LogicType@@@std@@PEAX@2@XZ 0000000180044ed0 f i ManagerLib:LogicManager.obj
 0001:00044050       ?_Buynode0@?$_Tree_comp_alloc@V?$_Tmap_traits@IW4LogicType@@U?$less@I@std@@V?$allocator@U?$pair@$$CBIW4LogicType@@@std@@@3@$0A@@std@@@std@@QEAAPEAU?$_Tree_node@U?$pair@$$CBIW4LogicType@@@std@@PEAX@2@XZ 0000000180045050 f i ManagerLib:LogicManager.obj
 0001:000441d0       ?_Color@?$_Tree_val@U?$_Tree_simple_types@U?$pair@$$CBGPEAUtagPARTIMG@@@std@@@std@@@std@@SAAEADPEAU?$_Tree_node@U?$pair@$$CBGPEAUtagPARTIMG@@@std@@PEAX@2@@Z 00000001800451d0 f i ManagerLib:PartImgLogic.obj
 0001:000441d0       ?_Color@?$_Tree_val@U?$_Tree_simple_types@U?$pair@$$CBIPEAUtagREQUEST_EX@@@std@@@std@@@std@@SAAEADPEAU?$_Tree_node@U?$pair@$$CBIPEAUtagREQUEST_EX@@@std@@PEAX@2@@Z 00000001800451d0 f i ManagerLib:SessionBuildPartImgCnt.obj
 0001:000441d0       ?_Color@?$_Tree_val@U?$_Tree_simple_types@U?$pair@$$CBIPEAUtagDISKIMG@@@std@@@std@@@std@@SAAEADPEAU?$_Tree_node@U?$pair@$$CBIPEAUtagDISKIMG@@@std@@PEAX@2@@Z 00000001800451d0 f i ManagerLib:DiskLogic.obj
 0001:000441d0       ?_Color@?$_Tree_val@U?$_Tree_simple_types@U?$pair@$$CBIUtagUSERLIST_ITEM@@@std@@@std@@@std@@SAAEADPEAU?$_Tree_node@U?$pair@$$CBIUtagUSERLIST_ITEM@@@std@@PEAX@2@@Z 00000001800451d0 f i ManagerLib:UserLogic.obj
 0001:000441d0       ?_Color@?$_Tree_val@U?$_Tree_simple_types@U?$pair@$$CBIW4LogicType@@@std@@@std@@@std@@SAAEADPEAU?$_Tree_node@U?$pair@$$CBIW4LogicType@@@std@@PEAX@2@@Z 00000001800451d0 f i ManagerLib:LogicManager.obj
 0001:000441d0       ?_Color@?$_Tree_val@U?$_Tree_simple_types@U?$pair@$$CBHPEAVPacketHandler@@@std@@@std@@@std@@SAAEADPEAU?$_Tree_node@U?$pair@$$CBHPEAVPacketHandler@@@std@@PEAX@2@@Z 00000001800451d0 f i ManagerLib:PacketHandlers.obj
 0001:000441d0       ?_Color@?$_Tree_val@U?$_Tree_simple_types@U?$pair@$$CBIPEAUtagOSIMG@@@std@@@std@@@std@@SAAEADPEAU?$_Tree_node@U?$pair@$$CBIPEAUtagOSIMG@@@std@@PEAX@2@@Z 00000001800451d0 f i ManagerLib:OsImgLogic.obj
 0001:000441d0       ?_Color@?$_Tree_val@U?$_Tree_simple_types@U?$pair@$$CBIPEAUtagGROUPINFO@@@std@@@std@@@std@@SAAEADPEAU?$_Tree_node@U?$pair@$$CBIPEAUtagGROUPINFO@@@std@@PEAX@2@@Z 00000001800451d0 f i ManagerLib:GroupLogic.obj
 0001:000441d0       ?_Color@?$_Tree_val@U?$_Tree_simple_types@U?$pair@$$CBIPEAUtagMACHINEINFO@@@std@@@std@@@std@@SAAEADPEAU?$_Tree_node@U?$pair@$$CBIPEAUtagMACHINEINFO@@@std@@PEAX@2@@Z 00000001800451d0 f i ManagerLib:GroupLogic.obj
 0001:00044210       ?_Construct@?$_Tree_comp_alloc@V?$_Tmap_traits@IW4LogicType@@U?$less@I@std@@V?$allocator@U?$pair@$$CBIW4LogicType@@@std@@@3@$0A@@std@@@std@@QEAAXXZ 0000000180045210 f i ManagerLib:LogicManager.obj
 0001:00044270       ?_Destroy_if_not_nil@?$_Tree@V?$_Tmap_traits@IW4LogicType@@U?$less@I@std@@V?$allocator@U?$pair@$$CBIW4LogicType@@@std@@@3@$0A@@std@@@std@@IEAAXPEAU?$_Tree_node@U?$pair@$$CBIW4LogicType@@@std@@PEAX@2@@Z 0000000180045270 f i ManagerLib:LogicManager.obj
 0001:00044310       ?_Freenode0@?$_Tree_comp_alloc@V?$_Tmap_traits@IW4LogicType@@U?$less@I@std@@V?$allocator@U?$pair@$$CBIW4LogicType@@@std@@@3@$0A@@std@@@std@@QEAAXPEAU?$_Tree_node@U?$pair@$$CBIW4LogicType@@@std@@PEAX@2@@Z 0000000180045310 f i ManagerLib:LogicManager.obj
 0001:00044420       ?_Getal@?$_Tree_comp_alloc@V?$_Tmap_traits@IPEAUtagREQUEST_EX@@U?$less@I@std@@V?$allocator@U?$pair@$$CBIPEAUtagREQUEST_EX@@@std@@@3@$0A@@std@@@std@@QEBAAEBU?$_Wrap_alloc@V?$allocator@U?$_Tree_node@U?$pair@$$CBIPEAUtagREQUEST_EX@@@std@@PEAX@std@@@std@@@2@XZ 0000000180045420 f i ManagerLib:SessionBuildPartImgCnt.obj
 0001:00044420       ?_Getal@?$_Tree_comp_alloc@V?$_Tmap_traits@IPEAUtagOSIMG@@U?$less@I@std@@V?$allocator@U?$pair@$$CBIPEAUtagOSIMG@@@std@@@3@$0A@@std@@@std@@QEBAAEBU?$_Wrap_alloc@V?$allocator@U?$_Tree_node@U?$pair@$$CBIPEAUtagOSIMG@@@std@@PEAX@std@@@std@@@2@XZ 0000000180045420 f i ManagerLib:OsImgLogic.obj
 0001:00044420       ?_Get_data@?$_Tree_comp_alloc@V?$_Tmap_traits@IPEAUtagGROUPINFO@@U?$less@I@std@@V?$allocator@U?$pair@$$CBIPEAUtagGROUPINFO@@@std@@@3@$0A@@std@@@std@@QEAAAEAV?$_Tree_val@U?$_Tree_simple_types@U?$pair@$$CBIPEAUtagGROUPINFO@@@std@@@std@@@2@XZ 0000000180045420 f i ManagerLib:GroupLogic.obj
 0001:00044420       ?_Getal@?$_Tree_comp_alloc@V?$_Tmap_traits@IW4LogicType@@U?$less@I@std@@V?$allocator@U?$pair@$$CBIW4LogicType@@@std@@@3@$0A@@std@@@std@@QEBAAEBU?$_Wrap_alloc@V?$allocator@U?$_Tree_node@U?$pair@$$CBIW4LogicType@@@std@@PEAX@std@@@std@@@2@XZ 0000000180045420 f i ManagerLib:LogicManager.obj
 0001:00044420       ?_Get_data@?$_Tree_comp_alloc@V?$_Tmap_traits@GPEAUtagPARTIMG@@U?$less@G@std@@V?$allocator@U?$pair@$$CBGPEAUtagPARTIMG@@@std@@@3@$0A@@std@@@std@@QEAAAEAV?$_Tree_val@U?$_Tree_simple_types@U?$pair@$$CBGPEAUtagPARTIMG@@@std@@@std@@@2@XZ 0000000180045420 f i ManagerLib:PartImgLogic.obj
 0001:00044420       ?_Get_data@?$_Tree_comp_alloc@V?$_Tmap_traits@IPEAUtagDISKIMG@@U?$less@I@std@@V?$allocator@U?$pair@$$CBIPEAUtagDISKIMG@@@std@@@3@$0A@@std@@@std@@QEBAAEBV?$_Tree_val@U?$_Tree_simple_types@U?$pair@$$CBIPEAUtagDISKIMG@@@std@@@std@@@2@XZ 0000000180045420 f i ManagerLib:DiskLogic.obj
 0001:00044420       ?_Get_data@?$_Tree_comp_alloc@V?$_Tmap_traits@IPEAUtagOSIMG@@U?$less@I@std@@V?$allocator@U?$pair@$$CBIPEAUtagOSIMG@@@std@@@3@$0A@@std@@@std@@QEAAAEAV?$_Tree_val@U?$_Tree_simple_types@U?$pair@$$CBIPEAUtagOSIMG@@@std@@@std@@@2@XZ 0000000180045420 f i ManagerLib:OsImgLogic.obj
 0001:00044420       ?_Get_data@?$_Tree_comp_alloc@V?$_Tmap_traits@IPEAUtagGROUPINFO@@U?$less@I@std@@V?$allocator@U?$pair@$$CBIPEAUtagGROUPINFO@@@std@@@3@$0A@@std@@@std@@QEBAAEBV?$_Tree_val@U?$_Tree_simple_types@U?$pair@$$CBIPEAUtagGROUPINFO@@@std@@@std@@@2@XZ 0000000180045420 f i ManagerLib:GroupLogic.obj
 0001:00044420       ?_Getal@?$_Tree_comp_alloc@V?$_Tmap_traits@GPEAUtagPARTIMG@@U?$less@G@std@@V?$allocator@U?$pair@$$CBGPEAUtagPARTIMG@@@std@@@3@$0A@@std@@@std@@QEAAAEAU?$_Wrap_alloc@V?$allocator@U?$_Tree_node@U?$pair@$$CBGPEAUtagPARTIMG@@@std@@PEAX@std@@@std@@@2@XZ 0000000180045420 f i ManagerLib:PartImgLogic.obj
 0001:00044420       ?_Get_data@?$_Tree_comp_alloc@V?$_Tmap_traits@IPEAUtagREQUEST_EX@@U?$less@I@std@@V?$allocator@U?$pair@$$CBIPEAUtagREQUEST_EX@@@std@@@3@$0A@@std@@@std@@QEAAAEAV?$_Tree_val@U?$_Tree_simple_types@U?$pair@$$CBIPEAUtagREQUEST_EX@@@std@@@std@@@2@XZ 0000000180045420 f i ManagerLib:SessionBuildPartImgCnt.obj
 0001:00044420       ?_Get_data@?$_Tree_comp_alloc@V?$_Tmap_traits@IPEAUtagMACHINEINFO@@U?$less@I@std@@V?$allocator@U?$pair@$$CBIPEAUtagMACHINEINFO@@@std@@@3@$0A@@std@@@std@@QEAAAEAV?$_Tree_val@U?$_Tree_simple_types@U?$pair@$$CBIPEAUtagMACHINEINFO@@@std@@@std@@@2@XZ 0000000180045420 f i ManagerLib:GroupLogic.obj
 0001:00044420       ?_Getal@?$_Tree_comp_alloc@V?$_Tmap_traits@IPEAUtagGROUPINFO@@U?$less@I@std@@V?$allocator@U?$pair@$$CBIPEAUtagGROUPINFO@@@std@@@3@$0A@@std@@@std@@QEBAAEBU?$_Wrap_alloc@V?$allocator@U?$_Tree_node@U?$pair@$$CBIPEAUtagGROUPINFO@@@std@@PEAX@std@@@std@@@2@XZ 0000000180045420 f i ManagerLib:GroupLogic.obj
 0001:00044420       ?_Getal@?$_Tree_comp_alloc@V?$_Tmap_traits@IPEAUtagGROUPINFO@@U?$less@I@std@@V?$allocator@U?$pair@$$CBIPEAUtagGROUPINFO@@@std@@@3@$0A@@std@@@std@@QEAAAEAU?$_Wrap_alloc@V?$allocator@U?$_Tree_node@U?$pair@$$CBIPEAUtagGROUPINFO@@@std@@PEAX@std@@@std@@@2@XZ 0000000180045420 f i ManagerLib:GroupLogic.obj
 0001:00044420       ?_Getal@?$_Tree_comp_alloc@V?$_Tmap_traits@IPEAUtagDISKIMG@@U?$less@I@std@@V?$allocator@U?$pair@$$CBIPEAUtagDISKIMG@@@std@@@3@$0A@@std@@@std@@QEBAAEBU?$_Wrap_alloc@V?$allocator@U?$_Tree_node@U?$pair@$$CBIPEAUtagDISKIMG@@@std@@PEAX@std@@@std@@@2@XZ 0000000180045420 f i ManagerLib:DiskLogic.obj
 0001:00044420       ?_Getal@?$_Tree_comp_alloc@V?$_Tmap_traits@GPEAUtagPARTIMG@@U?$less@G@std@@V?$allocator@U?$pair@$$CBGPEAUtagPARTIMG@@@std@@@3@$0A@@std@@@std@@QEBAAEBU?$_Wrap_alloc@V?$allocator@U?$_Tree_node@U?$pair@$$CBGPEAUtagPARTIMG@@@std@@PEAX@std@@@std@@@2@XZ 0000000180045420 f i ManagerLib:PartImgLogic.obj
 0001:00044420       ?_Getal@?$_Tree_comp_alloc@V?$_Tmap_traits@IPEAUtagREQUEST_EX@@U?$less@I@std@@V?$allocator@U?$pair@$$CBIPEAUtagREQUEST_EX@@@std@@@3@$0A@@std@@@std@@QEAAAEAU?$_Wrap_alloc@V?$allocator@U?$_Tree_node@U?$pair@$$CBIPEAUtagREQUEST_EX@@@std@@PEAX@std@@@std@@@2@XZ 0000000180045420 f i ManagerLib:SessionBuildPartImgCnt.obj
 0001:00044420       ?_Get_data@?$_Tree_comp_alloc@V?$_Tmap_traits@IW4LogicType@@U?$less@I@std@@V?$allocator@U?$pair@$$CBIW4LogicType@@@std@@@3@$0A@@std@@@std@@QEBAAEBV?$_Tree_val@U?$_Tree_simple_types@U?$pair@$$CBIW4LogicType@@@std@@@std@@@2@XZ 0000000180045420 f i ManagerLib:LogicManager.obj
 0001:00044420       ?_Get_data@?$_Tree_comp_alloc@V?$_Tmap_traits@IUtagUSERLIST_ITEM@@U?$less@I@std@@V?$allocator@U?$pair@$$CBIUtagUSERLIST_ITEM@@@std@@@3@$0A@@std@@@std@@QEBAAEBV?$_Tree_val@U?$_Tree_simple_types@U?$pair@$$CBIUtagUSERLIST_ITEM@@@std@@@std@@@2@XZ 0000000180045420 f i ManagerLib:UserLogic.obj
 0001:00044420       ?_Get_data@?$_Tree_comp_alloc@V?$_Tmap_traits@IPEAUtagREQUEST_EX@@U?$less@I@std@@V?$allocator@U?$pair@$$CBIPEAUtagREQUEST_EX@@@std@@@3@$0A@@std@@@std@@QEBAAEBV?$_Tree_val@U?$_Tree_simple_types@U?$pair@$$CBIPEAUtagREQUEST_EX@@@std@@@std@@@2@XZ 0000000180045420 f i ManagerLib:SessionBuildPartImgCnt.obj
 0001:00044420       ?_Getal@?$_Tree_comp_alloc@V?$_Tmap_traits@IPEAUtagMACHINEINFO@@U?$less@I@std@@V?$allocator@U?$pair@$$CBIPEAUtagMACHINEINFO@@@std@@@3@$0A@@std@@@std@@QEAAAEAU?$_Wrap_alloc@V?$allocator@U?$_Tree_node@U?$pair@$$CBIPEAUtagMACHINEINFO@@@std@@PEAX@std@@@std@@@2@XZ 0000000180045420 f i ManagerLib:GroupLogic.obj
 0001:00044420       ?_Get_data@?$_Tree_comp_alloc@V?$_Tmap_traits@IPEAUtagDISKIMG@@U?$less@I@std@@V?$allocator@U?$pair@$$CBIPEAUtagDISKIMG@@@std@@@3@$0A@@std@@@std@@QEAAAEAV?$_Tree_val@U?$_Tree_simple_types@U?$pair@$$CBIPEAUtagDISKIMG@@@std@@@std@@@2@XZ 0000000180045420 f i ManagerLib:DiskLogic.obj
 0001:00044420       ?_Get_data@?$_Tree_comp_alloc@V?$_Tmap_traits@GPEAUtagPARTIMG@@U?$less@G@std@@V?$allocator@U?$pair@$$CBGPEAUtagPARTIMG@@@std@@@3@$0A@@std@@@std@@QEBAAEBV?$_Tree_val@U?$_Tree_simple_types@U?$pair@$$CBGPEAUtagPARTIMG@@@std@@@std@@@2@XZ 0000000180045420 f i ManagerLib:PartImgLogic.obj
 0001:00044420       ?_Get_data@?$_Tree_comp_alloc@V?$_Tmap_traits@IUtagUSERLIST_ITEM@@U?$less@I@std@@V?$allocator@U?$pair@$$CBIUtagUSERLIST_ITEM@@@std@@@3@$0A@@std@@@std@@QEAAAEAV?$_Tree_val@U?$_Tree_simple_types@U?$pair@$$CBIUtagUSERLIST_ITEM@@@std@@@std@@@2@XZ 0000000180045420 f i ManagerLib:UserLogic.obj
 0001:00044420       ?_Get_data@?$_Tree_comp_alloc@V?$_Tmap_traits@HPEAVPacketHandler@@U?$less@H@std@@V?$allocator@U?$pair@$$CBHPEAVPacketHandler@@@std@@@3@$0A@@std@@@std@@QEBAAEBV?$_Tree_val@U?$_Tree_simple_types@U?$pair@$$CBHPEAVPacketHandler@@@std@@@std@@@2@XZ 0000000180045420 f i ManagerLib:PacketHandlers.obj
 0001:00044420       ?_Get_data@?$_Tree_comp_alloc@V?$_Tmap_traits@IPEAUtagOSIMG@@U?$less@I@std@@V?$allocator@U?$pair@$$CBIPEAUtagOSIMG@@@std@@@3@$0A@@std@@@std@@QEBAAEBV?$_Tree_val@U?$_Tree_simple_types@U?$pair@$$CBIPEAUtagOSIMG@@@std@@@std@@@2@XZ 0000000180045420 f i ManagerLib:OsImgLogic.obj
 0001:00044420       ?_Getal@?$_Tree_comp_alloc@V?$_Tmap_traits@HPEAVPacketHandler@@U?$less@H@std@@V?$allocator@U?$pair@$$CBHPEAVPacketHandler@@@std@@@3@$0A@@std@@@std@@QEAAAEAU?$_Wrap_alloc@V?$allocator@U?$_Tree_node@U?$pair@$$CBHPEAVPacketHandler@@@std@@PEAX@std@@@std@@@2@XZ 0000000180045420 f i ManagerLib:PacketHandlers.obj
 0001:00044420       ?_Getal@?$_Tree_comp_alloc@V?$_Tmap_traits@IPEAUtagDISKIMG@@U?$less@I@std@@V?$allocator@U?$pair@$$CBIPEAUtagDISKIMG@@@std@@@3@$0A@@std@@@std@@QEAAAEAU?$_Wrap_alloc@V?$allocator@U?$_Tree_node@U?$pair@$$CBIPEAUtagDISKIMG@@@std@@PEAX@std@@@std@@@2@XZ 0000000180045420 f i ManagerLib:DiskLogic.obj
 0001:00044420       ?_Getal@?$_Tree_comp_alloc@V?$_Tmap_traits@IPEAUtagMACHINEINFO@@U?$less@I@std@@V?$allocator@U?$pair@$$CBIPEAUtagMACHINEINFO@@@std@@@3@$0A@@std@@@std@@QEBAAEBU?$_Wrap_alloc@V?$allocator@U?$_Tree_node@U?$pair@$$CBIPEAUtagMACHINEINFO@@@std@@PEAX@std@@@std@@@2@XZ 0000000180045420 f i ManagerLib:GroupLogic.obj
 0001:00044420       ?_Getal@?$_Tree_comp_alloc@V?$_Tmap_traits@IPEAUtagOSIMG@@U?$less@I@std@@V?$allocator@U?$pair@$$CBIPEAUtagOSIMG@@@std@@@3@$0A@@std@@@std@@QEAAAEAU?$_Wrap_alloc@V?$allocator@U?$_Tree_node@U?$pair@$$CBIPEAUtagOSIMG@@@std@@PEAX@std@@@std@@@2@XZ 0000000180045420 f i ManagerLib:OsImgLogic.obj
 0001:00044420       ?_Get_data@?$_Tree_comp_alloc@V?$_Tmap_traits@IPEAUtagMACHINEINFO@@U?$less@I@std@@V?$allocator@U?$pair@$$CBIPEAUtagMACHINEINFO@@@std@@@3@$0A@@std@@@std@@QEBAAEBV?$_Tree_val@U?$_Tree_simple_types@U?$pair@$$CBIPEAUtagMACHINEINFO@@@std@@@std@@@2@XZ 0000000180045420 f i ManagerLib:GroupLogic.obj
 0001:00044420       ?_Getal@?$_Tree_comp_alloc@V?$_Tmap_traits@HPEAVPacketHandler@@U?$less@H@std@@V?$allocator@U?$pair@$$CBHPEAVPacketHandler@@@std@@@3@$0A@@std@@@std@@QEBAAEBU?$_Wrap_alloc@V?$allocator@U?$_Tree_node@U?$pair@$$CBHPEAVPacketHandler@@@std@@PEAX@std@@@std@@@2@XZ 0000000180045420 f i ManagerLib:PacketHandlers.obj
 0001:00044420       ?_Getal@?$_Tree_comp_alloc@V?$_Tmap_traits@IW4LogicType@@U?$less@I@std@@V?$allocator@U?$pair@$$CBIW4LogicType@@@std@@@3@$0A@@std@@@std@@QEAAAEAU?$_Wrap_alloc@V?$allocator@U?$_Tree_node@U?$pair@$$CBIW4LogicType@@@std@@PEAX@std@@@std@@@2@XZ 0000000180045420 f i ManagerLib:LogicManager.obj
 0001:00044420       ?_Get_data@?$_Tree_comp_alloc@V?$_Tmap_traits@HPEAVPacketHandler@@U?$less@H@std@@V?$allocator@U?$pair@$$CBHPEAVPacketHandler@@@std@@@3@$0A@@std@@@std@@QEAAAEAV?$_Tree_val@U?$_Tree_simple_types@U?$pair@$$CBHPEAVPacketHandler@@@std@@@std@@@2@XZ 0000000180045420 f i ManagerLib:PacketHandlers.obj
 0001:00044420       ?_Getal@?$_Tree_comp_alloc@V?$_Tmap_traits@IUtagUSERLIST_ITEM@@U?$less@I@std@@V?$allocator@U?$pair@$$CBIUtagUSERLIST_ITEM@@@std@@@3@$0A@@std@@@std@@QEAAAEAU?$_Wrap_alloc@V?$allocator@U?$_Tree_node@U?$pair@$$CBIUtagUSERLIST_ITEM@@@std@@PEAX@std@@@std@@@2@XZ 0000000180045420 f i ManagerLib:UserLogic.obj
 0001:00044420       ?_Get_data@?$_Tree_comp_alloc@V?$_Tmap_traits@IW4LogicType@@U?$less@I@std@@V?$allocator@U?$pair@$$CBIW4LogicType@@@std@@@3@$0A@@std@@@std@@QEAAAEAV?$_Tree_val@U?$_Tree_simple_types@U?$pair@$$CBIW4LogicType@@@std@@@std@@@2@XZ 0000000180045420 f i ManagerLib:LogicManager.obj
 0001:00044420       ?_Getal@?$_Tree_comp_alloc@V?$_Tmap_traits@IUtagUSERLIST_ITEM@@U?$less@I@std@@V?$allocator@U?$pair@$$CBIUtagUSERLIST_ITEM@@@std@@@3@$0A@@std@@@std@@QEBAAEBU?$_Wrap_alloc@V?$allocator@U?$_Tree_node@U?$pair@$$CBIUtagUSERLIST_ITEM@@@std@@PEAX@std@@@std@@@2@XZ 0000000180045420 f i ManagerLib:UserLogic.obj
 0001:00044470       ?_Myval@?$_Tree_comp_alloc@V?$_Tmap_traits@IW4LogicType@@U?$less@I@std@@V?$allocator@U?$pair@$$CBIW4LogicType@@@std@@@3@$0A@@std@@@std@@SAAEAU?$pair@$$CBIW4LogicType@@@2@PEAU?$_Tree_node@U?$pair@$$CBIW4LogicType@@@std@@PEAX@2@@Z 0000000180045470 f i ManagerLib:LogicManager.obj
 0001:00044470       ?_Myval@?$_Tree_comp_alloc@V?$_Tmap_traits@IUtagUSERLIST_ITEM@@U?$less@I@std@@V?$allocator@U?$pair@$$CBIUtagUSERLIST_ITEM@@@std@@@3@$0A@@std@@@std@@SAAEAU?$pair@$$CBIUtagUSERLIST_ITEM@@@2@PEAU?$_Tree_node@U?$pair@$$CBIUtagUSERLIST_ITEM@@@std@@PEAX@2@@Z 0000000180045470 f i ManagerLib:UserLogic.obj
 0001:000444b0       ?_Myval@?$_Tree_val@U?$_Tree_simple_types@U?$pair@$$CBIW4LogicType@@@std@@@std@@@std@@SAAEAU?$pair@$$CBIW4LogicType@@@2@PEAU?$_Tree_node@U?$pair@$$CBIW4LogicType@@@std@@PEAX@2@@Z 00000001800454b0 f i ManagerLib:LogicManager.obj
 0001:000444b0       ?_Myval@?$_Tree_val@U?$_Tree_simple_types@U?$pair@$$CBIUtagUSERLIST_ITEM@@@std@@@std@@@std@@SAAEAU?$pair@$$CBIUtagUSERLIST_ITEM@@@2@PEAU?$_Tree_node@U?$pair@$$CBIUtagUSERLIST_ITEM@@@std@@PEAX@2@@Z 00000001800454b0 f i ManagerLib:UserLogic.obj
 0001:000444f0       ?_Parent@?$_Tree_val@U?$_Tree_simple_types@U?$pair@$$CBHPEAVPacketHandler@@@std@@@std@@@std@@SAAEAPEAU?$_Tree_node@U?$pair@$$CBHPEAVPacketHandler@@@std@@PEAX@2@PEAU32@@Z 00000001800454f0 f i ManagerLib:PacketHandlers.obj
 0001:000444f0       ?_Parent@?$_Tree_val@U?$_Tree_simple_types@U?$pair@$$CBIPEAUtagDISKIMG@@@std@@@std@@@std@@SAAEAPEAU?$_Tree_node@U?$pair@$$CBIPEAUtagDISKIMG@@@std@@PEAX@2@PEAU32@@Z 00000001800454f0 f i ManagerLib:DiskLogic.obj
 0001:000444f0       ?_Parent@?$_Tree_val@U?$_Tree_simple_types@U?$pair@$$CBIPEAUtagGROUPINFO@@@std@@@std@@@std@@SAAEAPEAU?$_Tree_node@U?$pair@$$CBIPEAUtagGROUPINFO@@@std@@PEAX@2@PEAU32@@Z 00000001800454f0 f i ManagerLib:GroupLogic.obj
 0001:000444f0       ?_Parent@?$_Tree_val@U?$_Tree_simple_types@U?$pair@$$CBIPEAUtagMACHINEINFO@@@std@@@std@@@std@@SAAEAPEAU?$_Tree_node@U?$pair@$$CBIPEAUtagMACHINEINFO@@@std@@PEAX@2@PEAU32@@Z 00000001800454f0 f i ManagerLib:GroupLogic.obj
 0001:000444f0       ?_Parent@?$_Tree_val@U?$_Tree_simple_types@U?$pair@$$CBGPEAUtagPARTIMG@@@std@@@std@@@std@@SAAEAPEAU?$_Tree_node@U?$pair@$$CBGPEAUtagPARTIMG@@@std@@PEAX@2@PEAU32@@Z 00000001800454f0 f i ManagerLib:PartImgLogic.obj
 0001:000444f0       ?_Parent@?$_Tree_val@U?$_Tree_simple_types@U?$pair@$$CBIPEAUtagREQUEST_EX@@@std@@@std@@@std@@SAAEAPEAU?$_Tree_node@U?$pair@$$CBIPEAUtagREQUEST_EX@@@std@@PEAX@2@PEAU32@@Z 00000001800454f0 f i ManagerLib:SessionBuildPartImgCnt.obj
 0001:000444f0       ?_Parent@?$_Tree_val@U?$_Tree_simple_types@U?$pair@$$CBIPEAUtagOSIMG@@@std@@@std@@@std@@SAAEAPEAU?$_Tree_node@U?$pair@$$CBIPEAUtagOSIMG@@@std@@PEAX@2@PEAU32@@Z 00000001800454f0 f i ManagerLib:OsImgLogic.obj
 0001:000444f0       ?_Parent@?$_Tree_val@U?$_Tree_simple_types@U?$pair@$$CBIW4LogicType@@@std@@@std@@@std@@SAAEAPEAU?$_Tree_node@U?$pair@$$CBIW4LogicType@@@std@@PEAX@2@PEAU32@@Z 00000001800454f0 f i ManagerLib:LogicManager.obj
 0001:000444f0       ?_Parent@?$_Tree_val@U?$_Tree_simple_types@U?$pair@$$CBIUtagUSERLIST_ITEM@@@std@@@std@@@std@@SAAEAPEAU?$_Tree_node@U?$pair@$$CBIUtagUSERLIST_ITEM@@@std@@PEAX@2@PEAU32@@Z 00000001800454f0 f i ManagerLib:UserLogic.obj
 0001:00044530       ?allocate@?$_Wrap_alloc@V?$allocator@U?$_Tree_node@U?$pair@$$CBIW4LogicType@@@std@@PEAX@std@@@std@@@std@@QEAAPEAU?$_Tree_node@U?$pair@$$CBIW4LogicType@@@std@@PEAX@2@_K@Z 0000000180045530 f i ManagerLib:LogicManager.obj
 0001:00044580       ?allocate@?$allocator@U?$_Tree_node@U?$pair@$$CBIW4LogicType@@@std@@PEAX@std@@@std@@QEAAPEAU?$_Tree_node@U?$pair@$$CBIW4LogicType@@@std@@PEAX@2@_K@Z 0000000180045580 f i ManagerLib:LogicManager.obj
 0001:000445d0       ?begin@?$_Tree@V?$_Tmap_traits@IW4LogicType@@U?$less@I@std@@V?$allocator@U?$pair@$$CBIW4LogicType@@@std@@@3@$0A@@std@@@std@@QEAA?AV?$_Tree_iterator@V?$_Tree_val@U?$_Tree_simple_types@U?$pair@$$CBIW4LogicType@@@std@@@std@@@std@@@2@XZ 00000001800455d0 f i ManagerLib:LogicManager.obj
 0001:00044660       ?deallocate@?$_Wrap_alloc@V?$allocator@U?$_Tree_node@U?$pair@$$CBIW4LogicType@@@std@@PEAX@std@@@std@@@std@@QEAAXPEAU?$_Tree_node@U?$pair@$$CBIW4LogicType@@@std@@PEAX@2@_K@Z 0000000180045660 f i ManagerLib:LogicManager.obj
 0001:000446c0       ?deallocate@?$allocator@U?$_Tree_node@U?$pair@$$CBIW4LogicType@@@std@@PEAX@std@@@std@@QEAAXPEAU?$_Tree_node@U?$pair@$$CBIW4LogicType@@@std@@PEAX@2@_K@Z 00000001800456c0 f i ManagerLib:LogicManager.obj
 0001:00044720       ?end@?$_Tree@V?$_Tmap_traits@IW4LogicType@@U?$less@I@std@@V?$allocator@U?$pair@$$CBIW4LogicType@@@std@@@3@$0A@@std@@@std@@QEAA?AV?$_Tree_iterator@V?$_Tree_val@U?$_Tree_simple_types@U?$pair@$$CBIW4LogicType@@@std@@@std@@@std@@@2@XZ 0000000180045720 f i ManagerLib:LogicManager.obj
 0001:000447b0       ?lower_bound@?$_Tree@V?$_Tmap_traits@IUtagUSERLIST_ITEM@@U?$less@I@std@@V?$allocator@U?$pair@$$CBIUtagUSERLIST_ITEM@@@std@@@3@$0A@@std@@@std@@QEAA?AV?$_Tree_iterator@V?$_Tree_val@U?$_Tree_simple_types@U?$pair@$$CBIUtagUSERLIST_ITEM@@@std@@@std@@@std@@@2@AEBI@Z 00000001800457b0 f i ManagerLib:UserLogic.obj
 0001:000447b0       ?lower_bound@?$_Tree@V?$_Tmap_traits@IW4LogicType@@U?$less@I@std@@V?$allocator@U?$pair@$$CBIW4LogicType@@@std@@@3@$0A@@std@@@std@@QEAA?AV?$_Tree_iterator@V?$_Tree_val@U?$_Tree_simple_types@U?$pair@$$CBIW4LogicType@@@std@@@std@@@std@@@2@AEBI@Z 00000001800457b0 f i ManagerLib:LogicManager.obj
 0001:00044840       ?max_size@?$_Tree@V?$_Tmap_traits@IW4LogicType@@U?$less@I@std@@V?$allocator@U?$pair@$$CBIW4LogicType@@@std@@@3@$0A@@std@@@std@@QEBA_KXZ 0000000180045840 f i ManagerLib:LogicManager.obj
 0001:00044890       ?max_size@?$_Wrap_alloc@V?$allocator@U?$_Tree_node@U?$pair@$$CBIW4LogicType@@@std@@PEAX@std@@@std@@@std@@QEBA_KU_Nil@2@@Z 0000000180045890 f i ManagerLib:LogicManager.obj
 0001:000448e0       ?max_size@?$allocator@U?$_Tree_node@U?$pair@$$CBIW4LogicType@@@std@@PEAX@std@@@std@@QEBA_KXZ 00000001800458e0 f i ManagerLib:LogicManager.obj
 0001:00044920       ?max_size@?$allocator_traits@V?$allocator@U?$_Tree_node@U?$pair@$$CBIW4LogicType@@@std@@PEAX@std@@@std@@@std@@SA_KAEBV?$allocator@U?$_Tree_node@U?$pair@$$CBIW4LogicType@@@std@@PEAX@std@@@2@@Z 0000000180045920 f i ManagerLib:LogicManager.obj
 0001:00044960       ?size@?$_Tree@V?$_Tmap_traits@IW4LogicType@@U?$less@I@std@@V?$allocator@U?$pair@$$CBIW4LogicType@@@std@@@3@$0A@@std@@@std@@QEBA_KXZ 0000000180045960 f i ManagerLib:LogicManager.obj
 0001:000449b0       __local_stdio_printf_options 00000001800459b0 f i ManagerLib:LogicManager.obj
 0001:000449e0       _vfprintf_l                00000001800459e0 f i ManagerLib:LogicManager.obj
 0001:00044a60       printf                     0000000180045a60 f i ManagerLib:LogicManager.obj
 0001:00044b20       ??0?$CLogicBase@VCDirLogic@@@@QEAA@XZ 0000000180045b20 f i ManagerLib:DirLogic.obj
 0001:00044b80       ??0?$CPacketGateBaseTemplate@VCDirLogic@@@@QEAA@XZ 0000000180045b80 f i ManagerLib:DirLogic.obj
 0001:00044c70       ??0?$KSingleton@VCDirLogic@@@Patterns@System@@IEAA@XZ 0000000180045c70 f i ManagerLib:DirLogic.obj
 0001:00044cc0       ??0CDirLogic@@QEAA@XZ      0000000180045cc0 f   ManagerLib:DirLogic.obj
 0001:00044d40       ??1?$CLogicBase@VCDirLogic@@@@QEAA@XZ 0000000180045d40 f i ManagerLib:DirLogic.obj
 0001:00044d90       ??1?$CPacketGateBaseTemplate@VCDirLogic@@@@UEAA@XZ 0000000180045d90 f i ManagerLib:DirLogic.obj
 0001:00044e00       ??1?$KSingleton@VCDirLogic@@@Patterns@System@@IEAA@XZ 0000000180045e00 f i ManagerLib:DirLogic.obj
 0001:00044e40       ??1CDirLogic@@UEAA@XZ      0000000180045e40 f   ManagerLib:DirLogic.obj
 0001:00044ea0       ??_E?$CPacketGateBaseTemplate@VCDirLogic@@@@UEAAPEAXI@Z 0000000180045ea0 f i ManagerLib:DirLogic.obj
 0001:00044ea0       ??_G?$CPacketGateBaseTemplate@VCDirLogic@@@@UEAAPEAXI@Z 0000000180045ea0 f i ManagerLib:DirLogic.obj
 0001:00044f10       ??_GCDirLogic@@UEAAPEAXI@Z 0000000180045f10 f i ManagerLib:DirLogic.obj
 0001:00044f10       ??_ECDirLogic@@UEAAPEAXI@Z 0000000180045f10 f i ManagerLib:DirLogic.obj
 0001:00044f80       ?GetDirItem@CDirLogic@@QEAAPEAUtagMAG_DIRITEM@@H@Z 0000000180045f80 f   ManagerLib:DirLogic.obj
 0001:00045080       ?GetMagDir@CDirLogic@@AEAAJHPEAUtagMAG_DIRITEM@@PEAH@Z 0000000180046080 f   ManagerLib:DirLogic.obj
 0001:00045190       ?GetMagDirOS@CDirLogic@@AEAAJHPEAUtagMAG_DIRITEM@@PEAH@Z 0000000180046190 f   ManagerLib:DirLogic.obj
 0001:000452a0       ?GetOsDirItem@CDirLogic@@QEAAPEAUtagMAG_DIRITEM@@H@Z 00000001800462a0 f   ManagerLib:DirLogic.obj
 0001:000453a0       ?HandleAddMagDir@CDirLogic@@QEAAHPEAUtagREQUEST_EX@@@Z 00000001800463a0 f   ManagerLib:DirLogic.obj
 0001:00045420       ?HandleDelMagDir@CDirLogic@@QEAAHPEAUtagREQUEST_EX@@@Z 0000000180046420 f   ManagerLib:DirLogic.obj
 0001:000454d0       ?HandleDelMagDirOs@CDirLogic@@QEAAHPEAUtagREQUEST_EX@@@Z 00000001800464d0 f   ManagerLib:DirLogic.obj
 0001:00045570       ?HandleUpdateMagDir@CDirLogic@@QEAAHPEAUtagREQUEST_EX@@@Z 0000000180046570 f   ManagerLib:DirLogic.obj
 0001:00045630       ?HandleAddMagDirOs@CDirLogic@@QEAAHPEAUtagREQUEST_EX@@@Z 0000000180046630 f   ManagerLib:DirLogic.obj
 0001:00045630       ?HandleUpdateMagDirOs@CDirLogic@@QEAAHPEAUtagREQUEST_EX@@@Z 0000000180046630 f   ManagerLib:DirLogic.obj
 0001:000456b0       ?InitAllDirItem@CDirLogic@@QEAAHXZ 00000001800466b0 f   ManagerLib:DirLogic.obj
 0001:00045700       ?InitMagDir@CDirLogic@@AEAAHXZ 0000000180046700 f   ManagerLib:DirLogic.obj
 0001:00045a60       ?Initialize@CDirLogic@@UEAAHXZ 0000000180046a60 f   ManagerLib:DirLogic.obj
 0001:00045d10       ?Process@?$CPacketGateBaseTemplate@VCDirLogic@@@@UEAAHHPEAUtagREQUEST_EX@@@Z 0000000180046d10 f i ManagerLib:DirLogic.obj
 0001:00045e30       ?SetDirItem@CDirLogic@@QEAAHPEAUtagMAG_DIRITEM@@@Z 0000000180046e30 f   ManagerLib:DirLogic.obj
 0001:00045f70       ?SetOsDirItem@CDirLogic@@QEAAHPEAUtagMAG_DIRITEM@@@Z 0000000180046f70 f   ManagerLib:DirLogic.obj
 0001:000460b0       ??$_Buynode@U?$pair@$$CBIPEAUtagDISKIMG@@@std@@@?$_Tree_comp_alloc@V?$_Tmap_traits@IPEAUtagDISKIMG@@U?$less@I@std@@V?$allocator@U?$pair@$$CBIPEAUtagDISKIMG@@@std@@@3@$0A@@std@@@std@@QEAAPEAU?$_Tree_node@U?$pair@$$CBIPEAUtagDISKIMG@@@std@@PEAX@1@$$QEAU?$pair@$$CBIPEAUtagDISKIMG@@@1@@Z 00000001800470b0 f i ManagerLib:DiskLogic.obj
 0001:00046190       ??$_Buynode_if_nil@U?$pair@$$CBIPEAUtagDISKIMG@@@std@@@?$_Tree@V?$_Tmap_traits@IPEAUtagDISKIMG@@U?$less@I@std@@V?$allocator@U?$pair@$$CBIPEAUtagDISKIMG@@@std@@@3@$0A@@std@@@std@@IEAAPEAU?$_Tree_node@U?$pair@$$CBIPEAUtagDISKIMG@@@std@@PEAX@1@U_Nil@1@$$QEAU?$pair@$$CBIPEAUtagDISKIMG@@@1@@Z 0000000180047190 f i ManagerLib:DiskLogic.obj
 0001:000461f0       ??$_Insert_at@U?$pair@$$CBIPEAUtagDISKIMG@@@std@@U_Nil@2@@?$_Tree@V?$_Tmap_traits@IPEAUtagDISKIMG@@U?$less@I@std@@V?$allocator@U?$pair@$$CBIPEAUtagDISKIMG@@@std@@@3@$0A@@std@@@std@@IEAA?AV?$_Tree_iterator@V?$_Tree_val@U?$_Tree_simple_types@U?$pair@$$CBIPEAUtagDISKIMG@@@std@@@std@@@std@@@1@_NPEAU?$_Tree_node@U?$pair@$$CBIPEAUtagDISKIMG@@@std@@PEAX@1@$$QEAU?$pair@$$CBIPEAUtagDISKIMG@@@1@U_Nil@1@@Z 00000001800471f0 f i ManagerLib:DiskLogic.obj
 0001:000466a0       ??$_Insert_nohint@U?$pair@$$CBIPEAUtagDISKIMG@@@std@@U_Nil@2@@?$_Tree@V?$_Tmap_traits@IPEAUtagDISKIMG@@U?$less@I@std@@V?$allocator@U?$pair@$$CBIPEAUtagDISKIMG@@@std@@@3@$0A@@std@@@std@@IEAA?AU?$pair@V?$_Tree_iterator@V?$_Tree_val@U?$_Tree_simple_types@U?$pair@$$CBIPEAUtagDISKIMG@@@std@@@std@@@std@@@std@@_N@1@_N$$QEAU?$pair@$$CBIPEAUtagDISKIMG@@@1@U_Nil@1@@Z 00000001800476a0 f i ManagerLib:DiskLogic.obj
 0001:00046b50       ??$_Lbound@I@?$_Tree@V?$_Tmap_traits@IPEAUtagMACHINEINFO@@U?$less@I@std@@V?$allocator@U?$pair@$$CBIPEAUtagMACHINEINFO@@@std@@@3@$0A@@std@@@std@@IEBAPEAU?$_Tree_node@U?$pair@$$CBIPEAUtagMACHINEINFO@@@std@@PEAX@1@AEBI@Z 0000000180047b50 f i ManagerLib:GroupLogic.obj
 0001:00046b50       ??$_Lbound@I@?$_Tree@V?$_Tmap_traits@IPEAUtagDISKIMG@@U?$less@I@std@@V?$allocator@U?$pair@$$CBIPEAUtagDISKIMG@@@std@@@3@$0A@@std@@@std@@IEBAPEAU?$_Tree_node@U?$pair@$$CBIPEAUtagDISKIMG@@@std@@PEAX@1@AEBI@Z 0000000180047b50 f i ManagerLib:DiskLogic.obj
 0001:00046b50       ??$_Lbound@I@?$_Tree@V?$_Tmap_traits@IPEAUtagGROUPINFO@@U?$less@I@std@@V?$allocator@U?$pair@$$CBIPEAUtagGROUPINFO@@@std@@@3@$0A@@std@@@std@@IEBAPEAU?$_Tree_node@U?$pair@$$CBIPEAUtagGROUPINFO@@@std@@PEAX@1@AEBI@Z 0000000180047b50 f i ManagerLib:GroupLogic.obj
 0001:00046b50       ??$_Lbound@I@?$_Tree@V?$_Tmap_traits@IPEAUtagOSIMG@@U?$less@I@std@@V?$allocator@U?$pair@$$CBIPEAUtagOSIMG@@@std@@@3@$0A@@std@@@std@@IEBAPEAU?$_Tree_node@U?$pair@$$CBIPEAUtagOSIMG@@@std@@PEAX@1@AEBI@Z 0000000180047b50 f i ManagerLib:OsImgLogic.obj
 0001:00046c20       ??$insert@$0A@$0A@@?$_Tree@V?$_Tmap_traits@IPEAUtagDISKIMG@@U?$less@I@std@@V?$allocator@U?$pair@$$CBIPEAUtagDISKIMG@@@std@@@3@$0A@@std@@@std@@QEAA?AU?$pair@V?$_Tree_iterator@V?$_Tree_val@U?$_Tree_simple_types@U?$pair@$$CBIPEAUtagDISKIMG@@@std@@@std@@@std@@@std@@_N@1@$$QEAU?$pair@$$CBIPEAUtagDISKIMG@@@1@@Z 0000000180047c20 f i ManagerLib:DiskLogic.obj
 0001:00046ca0       ??0?$CLogicBase@VCDiskLogic@@@@QEAA@XZ 0000000180047ca0 f i ManagerLib:DiskLogic.obj
 0001:00046d00       ??0?$CPacketGateBaseTemplate@VCDiskLogic@@@@QEAA@XZ 0000000180047d00 f i ManagerLib:DiskLogic.obj
 0001:00046df0       ??0?$KSingleton@VCDiskLogic@@@Patterns@System@@IEAA@XZ 0000000180047df0 f i ManagerLib:DiskLogic.obj
 0001:00046e40       ??0?$_Tree@V?$_Tmap_traits@IPEAUtagDISKIMG@@U?$less@I@std@@V?$allocator@U?$pair@$$CBIPEAUtagDISKIMG@@@std@@@3@$0A@@std@@@std@@QEAA@AEBU?$less@I@1@@Z 0000000180047e40 f i ManagerLib:DiskLogic.obj
 0001:00046ea0       ??0?$_Tree_comp_alloc@V?$_Tmap_traits@IPEAUtagDISKIMG@@U?$less@I@std@@V?$allocator@U?$pair@$$CBIPEAUtagDISKIMG@@@std@@@3@$0A@@std@@@std@@QEAA@AEBU?$less@I@1@@Z 0000000180047ea0 f i ManagerLib:DiskLogic.obj
 0001:00046f10       ??0?$_Tree_unchecked_const_iterator@V?$_Tree_val@U?$_Tree_simple_types@U?$pair@$$CBIPEAUtagDISKIMG@@@std@@@std@@@std@@U_Iterator_base0@2@@std@@QEAA@XZ 0000000180047f10 f i ManagerLib:DiskLogic.obj
 0001:00046f10       ??0?$_Tree_unchecked_const_iterator@V?$_Tree_val@U?$_Tree_simple_types@U?$pair@$$CBIW4LogicType@@@std@@@std@@@std@@U_Iterator_base0@2@@std@@QEAA@XZ 0000000180047f10 f i ManagerLib:LogicManager.obj
 0001:00046f10       ??0?$_Tree_unchecked_const_iterator@V?$_Tree_val@U?$_Tree_simple_types@U?$pair@$$CBIPEAUtagOSIMG@@@std@@@std@@@std@@U_Iterator_base0@2@@std@@QEAA@XZ 0000000180047f10 f i ManagerLib:OsImgLogic.obj
 0001:00046f10       ??0?$_Tree_unchecked_const_iterator@V?$_Tree_val@U?$_Tree_simple_types@U?$pair@$$CBIPEAUtagGROUPINFO@@@std@@@std@@@std@@U_Iterator_base0@2@@std@@QEAA@XZ 0000000180047f10 f i ManagerLib:GroupLogic.obj
 0001:00046f10       ??0?$_Tree_unchecked_const_iterator@V?$_Tree_val@U?$_Tree_simple_types@U?$pair@$$CBIUtagUSERLIST_ITEM@@@std@@@std@@@std@@U_Iterator_base0@2@@std@@QEAA@XZ 0000000180047f10 f i ManagerLib:UserLogic.obj
 0001:00046f10       ??0?$Delegate@$$A6AHPEAUtagREQUEST_EX@@@Z@@QEAA@XZ 0000000180047f10 f i ManagerLib:PacketHandler.obj
 0001:00046f10       ??0?$_Tree_unchecked_const_iterator@V?$_Tree_val@U?$_Tree_simple_types@U?$pair@$$CBIPEAUtagREQUEST_EX@@@std@@@std@@@std@@U_Iterator_base0@2@@std@@QEAA@XZ 0000000180047f10 f i ManagerLib:SessionBuildPartImgCnt.obj
 0001:00046f10       ??0?$_Tree_unchecked_const_iterator@V?$_Tree_val@U?$_Tree_simple_types@U?$pair@$$CBIPEAUtagMACHINEINFO@@@std@@@std@@@std@@U_Iterator_base0@2@@std@@QEAA@XZ 0000000180047f10 f i ManagerLib:GroupLogic.obj
 0001:00046f10       ??0?$_Tree_unchecked_const_iterator@V?$_Tree_val@U?$_Tree_simple_types@U?$pair@$$CBGPEAUtagPARTIMG@@@std@@@std@@@std@@U_Iterator_base0@2@@std@@QEAA@XZ 0000000180047f10 f i ManagerLib:PartImgLogic.obj
 0001:00046f10       ??0?$_Tree_unchecked_const_iterator@V?$_Tree_val@U?$_Tree_simple_types@U?$pair@$$CBHPEAVPacketHandler@@@std@@@std@@@std@@U_Iterator_base0@2@@std@@QEAA@XZ 0000000180047f10 f i ManagerLib:PacketHandlers.obj
 0001:00046f60       ??0?$map@IPEAUtagDISKIMG@@U?$less@I@std@@V?$allocator@U?$pair@$$CBIPEAUtagDISKIMG@@@std@@@3@@std@@QEAA@XZ 0000000180047f60 f i ManagerLib:DiskLogic.obj
 0001:00046fb0       ??0CDiskLogic@@QEAA@XZ     0000000180047fb0 f   ManagerLib:DiskLogic.obj
 0001:00047060       ??0MyAutoLock@@QEAA@PEAVMyCritSec@@@Z 0000000180048060 f i ManagerLib:DiskLogic.obj
 0001:000470c0       ??0MyCritSec@@QEAA@XZ      00000001800480c0 f i ManagerLib:DiskLogic.obj
 0001:00047120       ??1?$CLogicBase@VCDiskLogic@@@@QEAA@XZ 0000000180048120 f i ManagerLib:DiskLogic.obj
 0001:00047170       ??1?$CPacketGateBaseTemplate@VCDiskLogic@@@@UEAA@XZ 0000000180048170 f i ManagerLib:DiskLogic.obj
 0001:000471e0       ??1?$KSingleton@VCDiskLogic@@@Patterns@System@@IEAA@XZ 00000001800481e0 f i ManagerLib:DiskLogic.obj
 0001:00047220       ??1?$_Tree@V?$_Tmap_traits@IPEAUtagDISKIMG@@U?$less@I@std@@V?$allocator@U?$pair@$$CBIPEAUtagDISKIMG@@@std@@@3@$0A@@std@@@std@@QEAA@XZ 0000000180048220 f i ManagerLib:DiskLogic.obj
 0001:00047280       ??1?$_Tree_comp_alloc@V?$_Tmap_traits@IPEAUtagDISKIMG@@U?$less@I@std@@V?$allocator@U?$pair@$$CBIPEAUtagDISKIMG@@@std@@@3@$0A@@std@@@std@@QEAA@XZ 0000000180048280 f i ManagerLib:DiskLogic.obj
 0001:000472e0       ??1?$map@IPEAUtagDISKIMG@@U?$less@I@std@@V?$allocator@U?$pair@$$CBIPEAUtagDISKIMG@@@std@@@3@@std@@QEAA@XZ 00000001800482e0 f i ManagerLib:DiskLogic.obj
 0001:00047320       ??1CDiskLogic@@UEAA@XZ     0000000180048320 f   ManagerLib:DiskLogic.obj
 0001:000473a0       ??1MyAutoLock@@QEAA@XZ     00000001800483a0 f i ManagerLib:DiskLogic.obj
 0001:000473f0       ??1MyCritSec@@QEAA@XZ      00000001800483f0 f i ManagerLib:DiskLogic.obj
 0001:00047440       ??E?$_Tree_const_iterator@V?$_Tree_val@U?$_Tree_simple_types@U?$pair@$$CBIPEAUtagDISKIMG@@@std@@@std@@@std@@@std@@QEAA?AV01@H@Z 0000000180048440 f i ManagerLib:DiskLogic.obj
 0001:00047500       ??_E?$CPacketGateBaseTemplate@VCDiskLogic@@@@UEAAPEAXI@Z 0000000180048500 f i ManagerLib:DiskLogic.obj
 0001:00047500       ??_G?$CPacketGateBaseTemplate@VCDiskLogic@@@@UEAAPEAXI@Z 0000000180048500 f i ManagerLib:DiskLogic.obj
 0001:00047570       ??_GCDiskLogic@@UEAAPEAXI@Z 0000000180048570 f i ManagerLib:DiskLogic.obj
 0001:00047570       ??_ECDiskLogic@@UEAAPEAXI@Z 0000000180048570 f i ManagerLib:DiskLogic.obj
 0001:000475e0       ?AddDiskToDiskMap@CDiskLogic@@AEAAJPEAUtagDISKIMG@@@Z 00000001800485e0 f   ManagerLib:DiskLogic.obj
 0001:00047710       ?DeleteDiskToDiskMap@CDiskLogic@@AEAAJI@Z 0000000180048710 f   ManagerLib:DiskLogic.obj
 0001:00047890       ?FindDisk@CDiskLogic@@AEAAPEAUtagDISKIMG@@I@Z 0000000180048890 f   ManagerLib:DiskLogic.obj
 0001:000479f0       ?FindDiskByGuid@CDiskLogic@@QEAAPEAUtagDISKIMG@@I@Z 00000001800489f0 f   ManagerLib:DiskLogic.obj
 0001:00047b50       ?HandleBuildDiskImg@CDiskLogic@@QEAAHPEAUtagREQUEST_EX@@@Z 0000000180048b50 f   ManagerLib:DiskLogic.obj
 0001:00047c30       ?HandleDeleteDiskImg@CDiskLogic@@QEAAHPEAUtagREQUEST_EX@@@Z 0000000180048c30 f   ManagerLib:DiskLogic.obj
 0001:00047cb0       ?HandleUpdateDiskImg@CDiskLogic@@QEAAHPEAUtagREQUEST_EX@@@Z 0000000180048cb0 f   ManagerLib:DiskLogic.obj
 0001:00047d40       ?Initialize@CDiskLogic@@UEAAHXZ 0000000180048d40 f   ManagerLib:DiskLogic.obj
 0001:00047eb0       ?Lock@MyCritSec@@QEAAXXZ   0000000180048eb0 f i ManagerLib:DiskLogic.obj
 0001:00047f10       ?Process@?$CPacketGateBaseTemplate@VCDiskLogic@@@@UEAAHHPEAUtagREQUEST_EX@@@Z 0000000180048f10 f i ManagerLib:DiskLogic.obj
 0001:00048030       ?RegistCommand@?$CPacketGateBaseTemplate@VCSessionCmdChannel@@@@MEAAHHP8CSessionCmdChannel@@EAAHPEAUtagREQUEST_EX@@@Z@Z 0000000180049030 f i ManagerLib:SessionCmdChannel.obj
 0001:00048030       ?RegistCommand@?$CPacketGateBaseTemplate@VCGroupLogic@@@@MEAAHHP8CGroupLogic@@EAAHPEAUtagREQUEST_EX@@@Z@Z 0000000180049030 f i ManagerLib:GroupLogic.obj
 0001:00048030       ?RegistCommand@?$CPacketGateBaseTemplate@VCPartImgLogic@@@@MEAAHHP8CPartImgLogic@@EAAHPEAUtagREQUEST_EX@@@Z@Z 0000000180049030 f i ManagerLib:PartImgLogic.obj
 0001:00048030       ?RegistCommand@?$CPacketGateBaseTemplate@VCDiskLogic@@@@MEAAHHP8CDiskLogic@@EAAHPEAUtagREQUEST_EX@@@Z@Z 0000000180049030 f i ManagerLib:DiskLogic.obj
 0001:00048030       ?RegistCommand@?$CPacketGateBaseTemplate@VCDirLogic@@@@MEAAHHP8CDirLogic@@EAAHPEAUtagREQUEST_EX@@@Z@Z 0000000180049030 f i ManagerLib:DirLogic.obj
 0001:00048030       ?RegistCommand@?$CPacketGateBaseTemplate@VCUserLogic@@@@MEAAHHP8CUserLogic@@EAAHPEAUtagREQUEST_EX@@@Z@Z 0000000180049030 f i ManagerLib:UserLogic.obj
 0001:00048030       ?RegistCommand@?$CPacketGateBaseTemplate@VCSessionEndMag@@@@MEAAHHP8CSessionEndMag@@EAAHPEAUtagREQUEST_EX@@@Z@Z 0000000180049030 f i ManagerLib:SessionEndMag.obj
 0001:00048030       ?RegistCommand@?$CPacketGateBaseTemplate@VCLoginLogic@@@@MEAAHHP8CLoginLogic@@EAAHPEAUtagREQUEST_EX@@@Z@Z 0000000180049030 f i ManagerLib:LoginLogic.obj
 0001:00048030       ?RegistCommand@?$CPacketGateBaseTemplate@VCOsImgLogic@@@@MEAAHHP8COsImgLogic@@EAAHPEAUtagREQUEST_EX@@@Z@Z 0000000180049030 f i ManagerLib:OsImgLogic.obj
 0001:000480a0       ?Unlock@MyCritSec@@QEAAXXZ 00000001800490a0 f i ManagerLib:DiskLogic.obj
 0001:00048100       ?UpdateDiskToDiskMap@CDiskLogic@@AEAAJPEAUtagDISKIMG@@@Z 0000000180049100 f   ManagerLib:DiskLogic.obj
 0001:00048280       ?_Buyheadnode@?$_Tree_comp_alloc@V?$_Tmap_traits@IPEAUtagDISKIMG@@U?$less@I@std@@V?$allocator@U?$pair@$$CBIPEAUtagDISKIMG@@@std@@@3@$0A@@std@@@std@@QEAAPEAU?$_Tree_node@U?$pair@$$CBIPEAUtagDISKIMG@@@std@@PEAX@2@XZ 0000000180049280 f i ManagerLib:DiskLogic.obj
 0001:00048400       ?_Buynode0@?$_Tree_comp_alloc@V?$_Tmap_traits@IPEAUtagDISKIMG@@U?$less@I@std@@V?$allocator@U?$pair@$$CBIPEAUtagDISKIMG@@@std@@@3@$0A@@std@@@std@@QEAAPEAU?$_Tree_node@U?$pair@$$CBIPEAUtagDISKIMG@@@std@@PEAX@2@XZ 0000000180049400 f i ManagerLib:DiskLogic.obj
 0001:00048580       ?_Compare@?$_Tree@V?$_Tmap_traits@IUtagUSERLIST_ITEM@@U?$less@I@std@@V?$allocator@U?$pair@$$CBIUtagUSERLIST_ITEM@@@std@@@3@$0A@@std@@@std@@IEBA_NAEBI0@Z 0000000180049580 f i ManagerLib:UserLogic.obj
 0001:00048580       ?_Compare@?$_Tree@V?$_Tmap_traits@IPEAUtagMACHINEINFO@@U?$less@I@std@@V?$allocator@U?$pair@$$CBIPEAUtagMACHINEINFO@@@std@@@3@$0A@@std@@@std@@IEBA_NAEBI0@Z 0000000180049580 f i ManagerLib:GroupLogic.obj
 0001:00048580       ?_Compare@?$_Tree@V?$_Tmap_traits@IW4LogicType@@U?$less@I@std@@V?$allocator@U?$pair@$$CBIW4LogicType@@@std@@@3@$0A@@std@@@std@@IEBA_NAEBI0@Z 0000000180049580 f i ManagerLib:LogicManager.obj
 0001:00048580       ?_Compare@?$_Tree@V?$_Tmap_traits@IPEAUtagDISKIMG@@U?$less@I@std@@V?$allocator@U?$pair@$$CBIPEAUtagDISKIMG@@@std@@@3@$0A@@std@@@std@@IEBA_NAEBI0@Z 0000000180049580 f i ManagerLib:DiskLogic.obj
 0001:00048580       ?_Compare@?$_Tree@V?$_Tmap_traits@IPEAUtagGROUPINFO@@U?$less@I@std@@V?$allocator@U?$pair@$$CBIPEAUtagGROUPINFO@@@std@@@3@$0A@@std@@@std@@IEBA_NAEBI0@Z 0000000180049580 f i ManagerLib:GroupLogic.obj
 0001:00048580       ?_Compare@?$_Tree@V?$_Tmap_traits@IPEAUtagOSIMG@@U?$less@I@std@@V?$allocator@U?$pair@$$CBIPEAUtagOSIMG@@@std@@@3@$0A@@std@@@std@@IEBA_NAEBI0@Z 0000000180049580 f i ManagerLib:OsImgLogic.obj
 0001:000485e0       ?_Construct@?$_Tree_comp_alloc@V?$_Tmap_traits@IPEAUtagDISKIMG@@U?$less@I@std@@V?$allocator@U?$pair@$$CBIPEAUtagDISKIMG@@@std@@@3@$0A@@std@@@std@@QEAAXXZ 00000001800495e0 f i ManagerLib:DiskLogic.obj
 0001:00048640       ?_Freeheadnode@?$_Tree_comp_alloc@V?$_Tmap_traits@IPEAUtagOSIMG@@U?$less@I@std@@V?$allocator@U?$pair@$$CBIPEAUtagOSIMG@@@std@@@3@$0A@@std@@@std@@QEAAXPEAU?$_Tree_node@U?$pair@$$CBIPEAUtagOSIMG@@@std@@PEAX@2@@Z 0000000180049640 f i ManagerLib:OsImgLogic.obj
 0001:00048640       ?_Freenode0@?$_Tree_comp_alloc@V?$_Tmap_traits@IPEAUtagDISKIMG@@U?$less@I@std@@V?$allocator@U?$pair@$$CBIPEAUtagDISKIMG@@@std@@@3@$0A@@std@@@std@@QEAAXPEAU?$_Tree_node@U?$pair@$$CBIPEAUtagDISKIMG@@@std@@PEAX@2@@Z 0000000180049640 f i ManagerLib:DiskLogic.obj
 0001:00048640       ?_Freenode0@?$_Tree_comp_alloc@V?$_Tmap_traits@IPEAUtagREQUEST_EX@@U?$less@I@std@@V?$allocator@U?$pair@$$CBIPEAUtagREQUEST_EX@@@std@@@3@$0A@@std@@@std@@QEAAXPEAU?$_Tree_node@U?$pair@$$CBIPEAUtagREQUEST_EX@@@std@@PEAX@2@@Z 0000000180049640 f i ManagerLib:SessionBuildPartImgCnt.obj
 0001:00048640       ?_Freenode0@?$_Tree_comp_alloc@V?$_Tmap_traits@HPEAVPacketHandler@@U?$less@H@std@@V?$allocator@U?$pair@$$CBHPEAVPacketHandler@@@std@@@3@$0A@@std@@@std@@QEAAXPEAU?$_Tree_node@U?$pair@$$CBHPEAVPacketHandler@@@std@@PEAX@2@@Z 0000000180049640 f i ManagerLib:PacketHandlers.obj
 0001:00048640       ?_Freenode0@?$_Tree_comp_alloc@V?$_Tmap_traits@IPEAUtagMACHINEINFO@@U?$less@I@std@@V?$allocator@U?$pair@$$CBIPEAUtagMACHINEINFO@@@std@@@3@$0A@@std@@@std@@QEAAXPEAU?$_Tree_node@U?$pair@$$CBIPEAUtagMACHINEINFO@@@std@@PEAX@2@@Z 0000000180049640 f i ManagerLib:GroupLogic.obj
 0001:00048640       ?_Freeheadnode@?$_Tree_comp_alloc@V?$_Tmap_traits@IPEAUtagGROUPINFO@@U?$less@I@std@@V?$allocator@U?$pair@$$CBIPEAUtagGROUPINFO@@@std@@@3@$0A@@std@@@std@@QEAAXPEAU?$_Tree_node@U?$pair@$$CBIPEAUtagGROUPINFO@@@std@@PEAX@2@@Z 0000000180049640 f i ManagerLib:GroupLogic.obj
 0001:00048640       ?_Freenode0@?$_Tree_comp_alloc@V?$_Tmap_traits@IPEAUtagGROUPINFO@@U?$less@I@std@@V?$allocator@U?$pair@$$CBIPEAUtagGROUPINFO@@@std@@@3@$0A@@std@@@std@@QEAAXPEAU?$_Tree_node@U?$pair@$$CBIPEAUtagGROUPINFO@@@std@@PEAX@2@@Z 0000000180049640 f i ManagerLib:GroupLogic.obj
 0001:00048640       ?_Freeheadnode@?$_Tree_comp_alloc@V?$_Tmap_traits@IPEAUtagDISKIMG@@U?$less@I@std@@V?$allocator@U?$pair@$$CBIPEAUtagDISKIMG@@@std@@@3@$0A@@std@@@std@@QEAAXPEAU?$_Tree_node@U?$pair@$$CBIPEAUtagDISKIMG@@@std@@PEAX@2@@Z 0000000180049640 f i ManagerLib:DiskLogic.obj
 0001:00048640       ?_Freeheadnode@?$_Tree_comp_alloc@V?$_Tmap_traits@GPEAUtagPARTIMG@@U?$less@G@std@@V?$allocator@U?$pair@$$CBGPEAUtagPARTIMG@@@std@@@3@$0A@@std@@@std@@QEAAXPEAU?$_Tree_node@U?$pair@$$CBGPEAUtagPARTIMG@@@std@@PEAX@2@@Z 0000000180049640 f i ManagerLib:PartImgLogic.obj
 0001:00048640       ?_Freeheadnode@?$_Tree_comp_alloc@V?$_Tmap_traits@IPEAUtagREQUEST_EX@@U?$less@I@std@@V?$allocator@U?$pair@$$CBIPEAUtagREQUEST_EX@@@std@@@3@$0A@@std@@@std@@QEAAXPEAU?$_Tree_node@U?$pair@$$CBIPEAUtagREQUEST_EX@@@std@@PEAX@2@@Z 0000000180049640 f i ManagerLib:SessionBuildPartImgCnt.obj
 0001:00048640       ?_Freenode0@?$_Tree_comp_alloc@V?$_Tmap_traits@GPEAUtagPARTIMG@@U?$less@G@std@@V?$allocator@U?$pair@$$CBGPEAUtagPARTIMG@@@std@@@3@$0A@@std@@@std@@QEAAXPEAU?$_Tree_node@U?$pair@$$CBGPEAUtagPARTIMG@@@std@@PEAX@2@@Z 0000000180049640 f i ManagerLib:PartImgLogic.obj
 0001:00048640       ?_Freenode0@?$_Tree_comp_alloc@V?$_Tmap_traits@IPEAUtagOSIMG@@U?$less@I@std@@V?$allocator@U?$pair@$$CBIPEAUtagOSIMG@@@std@@@3@$0A@@std@@@std@@QEAAXPEAU?$_Tree_node@U?$pair@$$CBIPEAUtagOSIMG@@@std@@PEAX@2@@Z 0000000180049640 f i ManagerLib:OsImgLogic.obj
 0001:00048640       ?_Freeheadnode@?$_Tree_comp_alloc@V?$_Tmap_traits@IPEAUtagMACHINEINFO@@U?$less@I@std@@V?$allocator@U?$pair@$$CBIPEAUtagMACHINEINFO@@@std@@@3@$0A@@std@@@std@@QEAAXPEAU?$_Tree_node@U?$pair@$$CBIPEAUtagMACHINEINFO@@@std@@PEAX@2@@Z 0000000180049640 f i ManagerLib:GroupLogic.obj
 0001:00048750       ?_Isnil@?$_Tree_val@U?$_Tree_simple_types@U?$pair@$$CBIW4LogicType@@@std@@@std@@@std@@SAAEADPEAU?$_Tree_node@U?$pair@$$CBIW4LogicType@@@std@@PEAX@2@@Z 0000000180049750 f i ManagerLib:LogicManager.obj
 0001:00048750       ?_Isnil@?$_Tree_val@U?$_Tree_simple_types@U?$pair@$$CBHPEAVPacketHandler@@@std@@@std@@@std@@SAAEADPEAU?$_Tree_node@U?$pair@$$CBHPEAVPacketHandler@@@std@@PEAX@2@@Z 0000000180049750 f i ManagerLib:PacketHandlers.obj
 0001:00048750       ?_Isnil@?$_Tree_val@U?$_Tree_simple_types@U?$pair@$$CBIPEAUtagMACHINEINFO@@@std@@@std@@@std@@SAAEADPEAU?$_Tree_node@U?$pair@$$CBIPEAUtagMACHINEINFO@@@std@@PEAX@2@@Z 0000000180049750 f i ManagerLib:GroupLogic.obj
 0001:00048750       ?_Isnil@?$_Tree_val@U?$_Tree_simple_types@U?$pair@$$CBIPEAUtagDISKIMG@@@std@@@std@@@std@@SAAEADPEAU?$_Tree_node@U?$pair@$$CBIPEAUtagDISKIMG@@@std@@PEAX@2@@Z 0000000180049750 f i ManagerLib:DiskLogic.obj
 0001:00048750       ?_Isnil@?$_Tree_val@U?$_Tree_simple_types@U?$pair@$$CBGPEAUtagPARTIMG@@@std@@@std@@@std@@SAAEADPEAU?$_Tree_node@U?$pair@$$CBGPEAUtagPARTIMG@@@std@@PEAX@2@@Z 0000000180049750 f i ManagerLib:PartImgLogic.obj
 0001:00048750       ?_Isnil@?$_Tree_val@U?$_Tree_simple_types@U?$pair@$$CBIPEAUtagREQUEST_EX@@@std@@@std@@@std@@SAAEADPEAU?$_Tree_node@U?$pair@$$CBIPEAUtagREQUEST_EX@@@std@@PEAX@2@@Z 0000000180049750 f i ManagerLib:SessionBuildPartImgCnt.obj
 0001:00048750       ?_Isnil@?$_Tree_val@U?$_Tree_simple_types@U?$pair@$$CBIUtagUSERLIST_ITEM@@@std@@@std@@@std@@SAAEADPEAU?$_Tree_node@U?$pair@$$CBIUtagUSERLIST_ITEM@@@std@@PEAX@2@@Z 0000000180049750 f i ManagerLib:UserLogic.obj
 0001:00048750       ?_Isnil@?$_Tree_val@U?$_Tree_simple_types@U?$pair@$$CBIPEAUtagOSIMG@@@std@@@std@@@std@@SAAEADPEAU?$_Tree_node@U?$pair@$$CBIPEAUtagOSIMG@@@std@@PEAX@2@@Z 0000000180049750 f i ManagerLib:OsImgLogic.obj
 0001:00048750       ?_Isnil@?$_Tree_val@U?$_Tree_simple_types@U?$pair@$$CBIPEAUtagGROUPINFO@@@std@@@std@@@std@@SAAEADPEAU?$_Tree_node@U?$pair@$$CBIPEAUtagGROUPINFO@@@std@@PEAX@2@@Z 0000000180049750 f i ManagerLib:GroupLogic.obj
 0001:00048790       ?_Lrotate@?$_Tree@V?$_Tmap_traits@GPEAUtagPARTIMG@@U?$less@G@std@@V?$allocator@U?$pair@$$CBGPEAUtagPARTIMG@@@std@@@3@$0A@@std@@@std@@IEAAXPEAU?$_Tree_node@U?$pair@$$CBGPEAUtagPARTIMG@@@std@@PEAX@2@@Z 0000000180049790 f i ManagerLib:PartImgLogic.obj
 0001:00048790       ?_Lrotate@?$_Tree@V?$_Tmap_traits@IPEAUtagDISKIMG@@U?$less@I@std@@V?$allocator@U?$pair@$$CBIPEAUtagDISKIMG@@@std@@@3@$0A@@std@@@std@@IEAAXPEAU?$_Tree_node@U?$pair@$$CBIPEAUtagDISKIMG@@@std@@PEAX@2@@Z 0000000180049790 f i ManagerLib:DiskLogic.obj
 0001:00048790       ?_Lrotate@?$_Tree@V?$_Tmap_traits@IUtagUSERLIST_ITEM@@U?$less@I@std@@V?$allocator@U?$pair@$$CBIUtagUSERLIST_ITEM@@@std@@@3@$0A@@std@@@std@@IEAAXPEAU?$_Tree_node@U?$pair@$$CBIUtagUSERLIST_ITEM@@@std@@PEAX@2@@Z 0000000180049790 f i ManagerLib:UserLogic.obj
 0001:00048790       ?_Lrotate@?$_Tree@V?$_Tmap_traits@IPEAUtagGROUPINFO@@U?$less@I@std@@V?$allocator@U?$pair@$$CBIPEAUtagGROUPINFO@@@std@@@3@$0A@@std@@@std@@IEAAXPEAU?$_Tree_node@U?$pair@$$CBIPEAUtagGROUPINFO@@@std@@PEAX@2@@Z 0000000180049790 f i ManagerLib:GroupLogic.obj
 0001:00048790       ?_Lrotate@?$_Tree@V?$_Tmap_traits@IW4LogicType@@U?$less@I@std@@V?$allocator@U?$pair@$$CBIW4LogicType@@@std@@@3@$0A@@std@@@std@@IEAAXPEAU?$_Tree_node@U?$pair@$$CBIW4LogicType@@@std@@PEAX@2@@Z 0000000180049790 f i ManagerLib:LogicManager.obj
 0001:00048790       ?_Lrotate@?$_Tree@V?$_Tmap_traits@HPEAVPacketHandler@@U?$less@H@std@@V?$allocator@U?$pair@$$CBHPEAVPacketHandler@@@std@@@3@$0A@@std@@@std@@IEAAXPEAU?$_Tree_node@U?$pair@$$CBHPEAVPacketHandler@@@std@@PEAX@2@@Z 0000000180049790 f i ManagerLib:PacketHandlers.obj
 0001:00048790       ?_Lrotate@?$_Tree@V?$_Tmap_traits@IPEAUtagMACHINEINFO@@U?$less@I@std@@V?$allocator@U?$pair@$$CBIPEAUtagMACHINEINFO@@@std@@@3@$0A@@std@@@std@@IEAAXPEAU?$_Tree_node@U?$pair@$$CBIPEAUtagMACHINEINFO@@@std@@PEAX@2@@Z 0000000180049790 f i ManagerLib:GroupLogic.obj
 0001:00048790       ?_Lrotate@?$_Tree@V?$_Tmap_traits@IPEAUtagREQUEST_EX@@U?$less@I@std@@V?$allocator@U?$pair@$$CBIPEAUtagREQUEST_EX@@@std@@@3@$0A@@std@@@std@@IEAAXPEAU?$_Tree_node@U?$pair@$$CBIPEAUtagREQUEST_EX@@@std@@PEAX@2@@Z 0000000180049790 f i ManagerLib:SessionBuildPartImgCnt.obj
 0001:00048790       ?_Lrotate@?$_Tree@V?$_Tmap_traits@IPEAUtagOSIMG@@U?$less@I@std@@V?$allocator@U?$pair@$$CBIPEAUtagOSIMG@@@std@@@3@$0A@@std@@@std@@IEAAXPEAU?$_Tree_node@U?$pair@$$CBIPEAUtagOSIMG@@@std@@PEAX@2@@Z 0000000180049790 f i ManagerLib:OsImgLogic.obj
 0001:00048910       ?_Max@?$_Tree_comp_alloc@V?$_Tmap_traits@IUtagUSERLIST_ITEM@@U?$less@I@std@@V?$allocator@U?$pair@$$CBIUtagUSERLIST_ITEM@@@std@@@3@$0A@@std@@@std@@SAPEAU?$_Tree_node@U?$pair@$$CBIUtagUSERLIST_ITEM@@@std@@PEAX@2@PEAU32@@Z 0000000180049910 f i ManagerLib:UserLogic.obj
 0001:00048910       ?_Max@?$_Tree_comp_alloc@V?$_Tmap_traits@IPEAUtagGROUPINFO@@U?$less@I@std@@V?$allocator@U?$pair@$$CBIPEAUtagGROUPINFO@@@std@@@3@$0A@@std@@@std@@SAPEAU?$_Tree_node@U?$pair@$$CBIPEAUtagGROUPINFO@@@std@@PEAX@2@PEAU32@@Z 0000000180049910 f i ManagerLib:GroupLogic.obj
 0001:00048910       ?_Max@?$_Tree_comp_alloc@V?$_Tmap_traits@IPEAUtagREQUEST_EX@@U?$less@I@std@@V?$allocator@U?$pair@$$CBIPEAUtagREQUEST_EX@@@std@@@3@$0A@@std@@@std@@SAPEAU?$_Tree_node@U?$pair@$$CBIPEAUtagREQUEST_EX@@@std@@PEAX@2@PEAU32@@Z 0000000180049910 f i ManagerLib:SessionBuildPartImgCnt.obj
 0001:00048910       ?_Max@?$_Tree_comp_alloc@V?$_Tmap_traits@GPEAUtagPARTIMG@@U?$less@G@std@@V?$allocator@U?$pair@$$CBGPEAUtagPARTIMG@@@std@@@3@$0A@@std@@@std@@SAPEAU?$_Tree_node@U?$pair@$$CBGPEAUtagPARTIMG@@@std@@PEAX@2@PEAU32@@Z 0000000180049910 f i ManagerLib:PartImgLogic.obj
 0001:00048910       ?_Max@?$_Tree_comp_alloc@V?$_Tmap_traits@IPEAUtagMACHINEINFO@@U?$less@I@std@@V?$allocator@U?$pair@$$CBIPEAUtagMACHINEINFO@@@std@@@3@$0A@@std@@@std@@SAPEAU?$_Tree_node@U?$pair@$$CBIPEAUtagMACHINEINFO@@@std@@PEAX@2@PEAU32@@Z 0000000180049910 f i ManagerLib:GroupLogic.obj
 0001:00048910       ?_Max@?$_Tree_comp_alloc@V?$_Tmap_traits@IPEAUtagDISKIMG@@U?$less@I@std@@V?$allocator@U?$pair@$$CBIPEAUtagDISKIMG@@@std@@@3@$0A@@std@@@std@@SAPEAU?$_Tree_node@U?$pair@$$CBIPEAUtagDISKIMG@@@std@@PEAX@2@PEAU32@@Z 0000000180049910 f i ManagerLib:DiskLogic.obj
 0001:00048910       ?_Max@?$_Tree_comp_alloc@V?$_Tmap_traits@IPEAUtagOSIMG@@U?$less@I@std@@V?$allocator@U?$pair@$$CBIPEAUtagOSIMG@@@std@@@3@$0A@@std@@@std@@SAPEAU?$_Tree_node@U?$pair@$$CBIPEAUtagOSIMG@@@std@@PEAX@2@PEAU32@@Z 0000000180049910 f i ManagerLib:OsImgLogic.obj
 0001:00048950       ?_Max@?$_Tree_val@U?$_Tree_simple_types@U?$pair@$$CBGPEAUtagPARTIMG@@@std@@@std@@@std@@SAPEAU?$_Tree_node@U?$pair@$$CBGPEAUtagPARTIMG@@@std@@PEAX@2@PEAU32@@Z 0000000180049950 f i ManagerLib:PartImgLogic.obj
 0001:00048950       ?_Max@?$_Tree_val@U?$_Tree_simple_types@U?$pair@$$CBHPEAVPacketHandler@@@std@@@std@@@std@@SAPEAU?$_Tree_node@U?$pair@$$CBHPEAVPacketHandler@@@std@@PEAX@2@PEAU32@@Z 0000000180049950 f i ManagerLib:PacketHandlers.obj
 0001:00048950       ?_Max@?$_Tree_val@U?$_Tree_simple_types@U?$pair@$$CBIW4LogicType@@@std@@@std@@@std@@SAPEAU?$_Tree_node@U?$pair@$$CBIW4LogicType@@@std@@PEAX@2@PEAU32@@Z 0000000180049950 f i ManagerLib:LogicManager.obj
 0001:00048950       ?_Max@?$_Tree_val@U?$_Tree_simple_types@U?$pair@$$CBIPEAUtagREQUEST_EX@@@std@@@std@@@std@@SAPEAU?$_Tree_node@U?$pair@$$CBIPEAUtagREQUEST_EX@@@std@@PEAX@2@PEAU32@@Z 0000000180049950 f i ManagerLib:SessionBuildPartImgCnt.obj
 0001:00048950       ?_Max@?$_Tree_val@U?$_Tree_simple_types@U?$pair@$$CBIUtagUSERLIST_ITEM@@@std@@@std@@@std@@SAPEAU?$_Tree_node@U?$pair@$$CBIUtagUSERLIST_ITEM@@@std@@PEAX@2@PEAU32@@Z 0000000180049950 f i ManagerLib:UserLogic.obj
 0001:00048950       ?_Max@?$_Tree_val@U?$_Tree_simple_types@U?$pair@$$CBIPEAUtagGROUPINFO@@@std@@@std@@@std@@SAPEAU?$_Tree_node@U?$pair@$$CBIPEAUtagGROUPINFO@@@std@@PEAX@2@PEAU32@@Z 0000000180049950 f i ManagerLib:GroupLogic.obj
 0001:00048950       ?_Max@?$_Tree_val@U?$_Tree_simple_types@U?$pair@$$CBIPEAUtagMACHINEINFO@@@std@@@std@@@std@@SAPEAU?$_Tree_node@U?$pair@$$CBIPEAUtagMACHINEINFO@@@std@@PEAX@2@PEAU32@@Z 0000000180049950 f i ManagerLib:GroupLogic.obj
 0001:00048950       ?_Max@?$_Tree_val@U?$_Tree_simple_types@U?$pair@$$CBIPEAUtagDISKIMG@@@std@@@std@@@std@@SAPEAU?$_Tree_node@U?$pair@$$CBIPEAUtagDISKIMG@@@std@@PEAX@2@PEAU32@@Z 0000000180049950 f i ManagerLib:DiskLogic.obj
 0001:00048950       ?_Max@?$_Tree_val@U?$_Tree_simple_types@U?$pair@$$CBIPEAUtagOSIMG@@@std@@@std@@@std@@SAPEAU?$_Tree_node@U?$pair@$$CBIPEAUtagOSIMG@@@std@@PEAX@2@PEAU32@@Z 0000000180049950 f i ManagerLib:OsImgLogic.obj
 0001:000489c0       ?_Mysize@?$_Tree_comp_alloc@V?$_Tmap_traits@IPEAUtagDISKIMG@@U?$less@I@std@@V?$allocator@U?$pair@$$CBIPEAUtagDISKIMG@@@std@@@3@$0A@@std@@@std@@QEAAAEA_KXZ 00000001800499c0 f i ManagerLib:DiskLogic.obj
 0001:000489c0       ?_Mysize@?$_Tree_comp_alloc@V?$_Tmap_traits@IW4LogicType@@U?$less@I@std@@V?$allocator@U?$pair@$$CBIW4LogicType@@@std@@@3@$0A@@std@@@std@@QEAAAEA_KXZ 00000001800499c0 f i ManagerLib:LogicManager.obj
 0001:000489c0       ?_Mysize@?$_Tree_comp_alloc@V?$_Tmap_traits@IW4LogicType@@U?$less@I@std@@V?$allocator@U?$pair@$$CBIW4LogicType@@@std@@@3@$0A@@std@@@std@@QEBAAEB_KXZ 00000001800499c0 f i ManagerLib:LogicManager.obj
 0001:000489c0       ?_Mysize@?$_Tree_comp_alloc@V?$_Tmap_traits@HPEAVPacketHandler@@U?$less@H@std@@V?$allocator@U?$pair@$$CBHPEAVPacketHandler@@@std@@@3@$0A@@std@@@std@@QEAAAEA_KXZ 00000001800499c0 f i ManagerLib:PacketHandlers.obj
 0001:000489c0       ?_Mysize@?$_Tree_comp_alloc@V?$_Tmap_traits@IPEAUtagREQUEST_EX@@U?$less@I@std@@V?$allocator@U?$pair@$$CBIPEAUtagREQUEST_EX@@@std@@@3@$0A@@std@@@std@@QEAAAEA_KXZ 00000001800499c0 f i ManagerLib:SessionBuildPartImgCnt.obj
 0001:000489c0       ?_Mysize@?$_Tree_comp_alloc@V?$_Tmap_traits@IPEAUtagMACHINEINFO@@U?$less@I@std@@V?$allocator@U?$pair@$$CBIPEAUtagMACHINEINFO@@@std@@@3@$0A@@std@@@std@@QEAAAEA_KXZ 00000001800499c0 f i ManagerLib:GroupLogic.obj
 0001:000489c0       ?_Mysize@?$_Tree_comp_alloc@V?$_Tmap_traits@GPEAUtagPARTIMG@@U?$less@G@std@@V?$allocator@U?$pair@$$CBGPEAUtagPARTIMG@@@std@@@3@$0A@@std@@@std@@QEAAAEA_KXZ 00000001800499c0 f i ManagerLib:PartImgLogic.obj
 0001:000489c0       ?_Mysize@?$_Tree_comp_alloc@V?$_Tmap_traits@IPEAUtagGROUPINFO@@U?$less@I@std@@V?$allocator@U?$pair@$$CBIPEAUtagGROUPINFO@@@std@@@3@$0A@@std@@@std@@QEAAAEA_KXZ 00000001800499c0 f i ManagerLib:GroupLogic.obj
 0001:000489c0       ?_Mysize@?$_Tree_comp_alloc@V?$_Tmap_traits@IPEAUtagOSIMG@@U?$less@I@std@@V?$allocator@U?$pair@$$CBIPEAUtagOSIMG@@@std@@@3@$0A@@std@@@std@@QEAAAEA_KXZ 00000001800499c0 f i ManagerLib:OsImgLogic.obj
 0001:000489c0       ?_Mysize@?$_Tree_comp_alloc@V?$_Tmap_traits@IUtagUSERLIST_ITEM@@U?$less@I@std@@V?$allocator@U?$pair@$$CBIUtagUSERLIST_ITEM@@@std@@@3@$0A@@std@@@std@@QEAAAEA_KXZ 00000001800499c0 f i ManagerLib:UserLogic.obj
 0001:00048a10       ?_Right@?$_Tree_val@U?$_Tree_simple_types@U?$pair@$$CBIPEAUtagMACHINEINFO@@@std@@@std@@@std@@SAAEAPEAU?$_Tree_node@U?$pair@$$CBIPEAUtagMACHINEINFO@@@std@@PEAX@2@PEAU32@@Z 0000000180049a10 f i ManagerLib:GroupLogic.obj
 0001:00048a10       ?_Right@?$_Tree_val@U?$_Tree_simple_types@U?$pair@$$CBIUtagUSERLIST_ITEM@@@std@@@std@@@std@@SAAEAPEAU?$_Tree_node@U?$pair@$$CBIUtagUSERLIST_ITEM@@@std@@PEAX@2@PEAU32@@Z 0000000180049a10 f i ManagerLib:UserLogic.obj
 0001:00048a10       ?_Right@?$_Tree_val@U?$_Tree_simple_types@U?$pair@$$CBHPEAVPacketHandler@@@std@@@std@@@std@@SAAEAPEAU?$_Tree_node@U?$pair@$$CBHPEAVPacketHandler@@@std@@PEAX@2@PEAU32@@Z 0000000180049a10 f i ManagerLib:PacketHandlers.obj
 0001:00048a10       ?_Right@?$_Tree_val@U?$_Tree_simple_types@U?$pair@$$CBIPEAUtagOSIMG@@@std@@@std@@@std@@SAAEAPEAU?$_Tree_node@U?$pair@$$CBIPEAUtagOSIMG@@@std@@PEAX@2@PEAU32@@Z 0000000180049a10 f i ManagerLib:OsImgLogic.obj
 0001:00048a10       ?_Right@?$_Tree_val@U?$_Tree_simple_types@U?$pair@$$CBIPEAUtagGROUPINFO@@@std@@@std@@@std@@SAAEAPEAU?$_Tree_node@U?$pair@$$CBIPEAUtagGROUPINFO@@@std@@PEAX@2@PEAU32@@Z 0000000180049a10 f i ManagerLib:GroupLogic.obj
 0001:00048a10       ?_Right@?$_Tree_val@U?$_Tree_simple_types@U?$pair@$$CBGPEAUtagPARTIMG@@@std@@@std@@@std@@SAAEAPEAU?$_Tree_node@U?$pair@$$CBGPEAUtagPARTIMG@@@std@@PEAX@2@PEAU32@@Z 0000000180049a10 f i ManagerLib:PartImgLogic.obj
 0001:00048a10       ?_Right@?$_Tree_val@U?$_Tree_simple_types@U?$pair@$$CBIW4LogicType@@@std@@@std@@@std@@SAAEAPEAU?$_Tree_node@U?$pair@$$CBIW4LogicType@@@std@@PEAX@2@PEAU32@@Z 0000000180049a10 f i ManagerLib:LogicManager.obj
 0001:00048a10       ?_Right@?$_Tree_val@U?$_Tree_simple_types@U?$pair@$$CBIPEAUtagDISKIMG@@@std@@@std@@@std@@SAAEAPEAU?$_Tree_node@U?$pair@$$CBIPEAUtagDISKIMG@@@std@@PEAX@2@PEAU32@@Z 0000000180049a10 f i ManagerLib:DiskLogic.obj
 0001:00048a10       ?_Right@?$_Tree_val@U?$_Tree_simple_types@U?$pair@$$CBIPEAUtagREQUEST_EX@@@std@@@std@@@std@@SAAEAPEAU?$_Tree_node@U?$pair@$$CBIPEAUtagREQUEST_EX@@@std@@PEAX@2@PEAU32@@Z 0000000180049a10 f i ManagerLib:SessionBuildPartImgCnt.obj
 0001:00048a50       ?_Tidy@?$_Tree@V?$_Tmap_traits@IPEAUtagDISKIMG@@U?$less@I@std@@V?$allocator@U?$pair@$$CBIPEAUtagDISKIMG@@@std@@@3@$0A@@std@@@std@@IEAAXXZ 0000000180049a50 f i ManagerLib:DiskLogic.obj
 0001:00048ae0       ?allocate@?$_Wrap_alloc@V?$allocator@U?$_Tree_node@U?$pair@$$CBIPEAUtagMACHINEINFO@@@std@@PEAX@std@@@std@@@std@@QEAAPEAU?$_Tree_node@U?$pair@$$CBIPEAUtagMACHINEINFO@@@std@@PEAX@2@_K@Z 0000000180049ae0 f i ManagerLib:GroupLogic.obj
 0001:00048ae0       ?allocate@?$_Wrap_alloc@V?$allocator@U?$_Tree_node@U?$pair@$$CBHPEAVPacketHandler@@@std@@PEAX@std@@@std@@@std@@QEAAPEAU?$_Tree_node@U?$pair@$$CBHPEAVPacketHandler@@@std@@PEAX@2@_K@Z 0000000180049ae0 f i ManagerLib:PacketHandlers.obj
 0001:00048ae0       ?allocate@?$_Wrap_alloc@V?$allocator@U?$_Tree_node@U?$pair@$$CBIPEAUtagREQUEST_EX@@@std@@PEAX@std@@@std@@@std@@QEAAPEAU?$_Tree_node@U?$pair@$$CBIPEAUtagREQUEST_EX@@@std@@PEAX@2@_K@Z 0000000180049ae0 f i ManagerLib:SessionBuildPartImgCnt.obj
 0001:00048ae0       ?allocate@?$_Wrap_alloc@V?$allocator@U?$_Tree_node@U?$pair@$$CBIPEAUtagGROUPINFO@@@std@@PEAX@std@@@std@@@std@@QEAAPEAU?$_Tree_node@U?$pair@$$CBIPEAUtagGROUPINFO@@@std@@PEAX@2@_K@Z 0000000180049ae0 f i ManagerLib:GroupLogic.obj
 0001:00048ae0       ?allocate@?$_Wrap_alloc@V?$allocator@U?$_Tree_node@U?$pair@$$CBIPEAUtagOSIMG@@@std@@PEAX@std@@@std@@@std@@QEAAPEAU?$_Tree_node@U?$pair@$$CBIPEAUtagOSIMG@@@std@@PEAX@2@_K@Z 0000000180049ae0 f i ManagerLib:OsImgLogic.obj
 0001:00048ae0       ?allocate@?$_Wrap_alloc@V?$allocator@U?$_Tree_node@U?$pair@$$CBGPEAUtagPARTIMG@@@std@@PEAX@std@@@std@@@std@@QEAAPEAU?$_Tree_node@U?$pair@$$CBGPEAUtagPARTIMG@@@std@@PEAX@2@_K@Z 0000000180049ae0 f i ManagerLib:PartImgLogic.obj
 0001:00048ae0       ?allocate@?$_Wrap_alloc@V?$allocator@U?$_Tree_node@U?$pair@$$CBIPEAUtagDISKIMG@@@std@@PEAX@std@@@std@@@std@@QEAAPEAU?$_Tree_node@U?$pair@$$CBIPEAUtagDISKIMG@@@std@@PEAX@2@_K@Z 0000000180049ae0 f i ManagerLib:DiskLogic.obj
 0001:00048b30       ?allocate@?$allocator@U?$_Tree_node@U?$pair@$$CBIPEAUtagDISKIMG@@@std@@PEAX@std@@@std@@QEAAPEAU?$_Tree_node@U?$pair@$$CBIPEAUtagDISKIMG@@@std@@PEAX@2@_K@Z 0000000180049b30 f i ManagerLib:DiskLogic.obj
 0001:00048b30       ?allocate@?$allocator@U?$_Tree_node@U?$pair@$$CBIPEAUtagMACHINEINFO@@@std@@PEAX@std@@@std@@QEAAPEAU?$_Tree_node@U?$pair@$$CBIPEAUtagMACHINEINFO@@@std@@PEAX@2@_K@Z 0000000180049b30 f i ManagerLib:GroupLogic.obj
 0001:00048b30       ?allocate@?$allocator@U?$_Tree_node@U?$pair@$$CBIPEAUtagREQUEST_EX@@@std@@PEAX@std@@@std@@QEAAPEAU?$_Tree_node@U?$pair@$$CBIPEAUtagREQUEST_EX@@@std@@PEAX@2@_K@Z 0000000180049b30 f i ManagerLib:SessionBuildPartImgCnt.obj
 0001:00048b30       ?allocate@?$allocator@U?$_Tree_node@U?$pair@$$CBGPEAUtagPARTIMG@@@std@@PEAX@std@@@std@@QEAAPEAU?$_Tree_node@U?$pair@$$CBGPEAUtagPARTIMG@@@std@@PEAX@2@_K@Z 0000000180049b30 f i ManagerLib:PartImgLogic.obj
 0001:00048b30       ?allocate@?$allocator@U?$_Tree_node@U?$pair@$$CBIPEAUtagOSIMG@@@std@@PEAX@std@@@std@@QEAAPEAU?$_Tree_node@U?$pair@$$CBIPEAUtagOSIMG@@@std@@PEAX@2@_K@Z 0000000180049b30 f i ManagerLib:OsImgLogic.obj
 0001:00048b30       ?allocate@?$allocator@U?$_Tree_node@U?$pair@$$CBIPEAUtagGROUPINFO@@@std@@PEAX@std@@@std@@QEAAPEAU?$_Tree_node@U?$pair@$$CBIPEAUtagGROUPINFO@@@std@@PEAX@2@_K@Z 0000000180049b30 f i ManagerLib:GroupLogic.obj
 0001:00048b30       ?allocate@?$allocator@U?$_Tree_node@U?$pair@$$CBHPEAVPacketHandler@@@std@@PEAX@std@@@std@@QEAAPEAU?$_Tree_node@U?$pair@$$CBHPEAVPacketHandler@@@std@@PEAX@2@_K@Z 0000000180049b30 f i ManagerLib:PacketHandlers.obj
 0001:00048b80       ?begin@?$_Tree@V?$_Tmap_traits@IPEAUtagDISKIMG@@U?$less@I@std@@V?$allocator@U?$pair@$$CBIPEAUtagDISKIMG@@@std@@@3@$0A@@std@@@std@@QEAA?AV?$_Tree_iterator@V?$_Tree_val@U?$_Tree_simple_types@U?$pair@$$CBIPEAUtagDISKIMG@@@std@@@std@@@std@@@2@XZ 0000000180049b80 f i ManagerLib:DiskLogic.obj
 0001:00048c10       ?clear@?$_Tree@V?$_Tmap_traits@IPEAUtagDISKIMG@@U?$less@I@std@@V?$allocator@U?$pair@$$CBIPEAUtagDISKIMG@@@std@@@3@$0A@@std@@@std@@QEAAXXZ 0000000180049c10 f i ManagerLib:DiskLogic.obj
 0001:00048d10       ?deallocate@?$allocator@U?$_Tree_node@U?$pair@$$CBIPEAUtagGROUPINFO@@@std@@PEAX@std@@@std@@QEAAXPEAU?$_Tree_node@U?$pair@$$CBIPEAUtagGROUPINFO@@@std@@PEAX@2@_K@Z 0000000180049d10 f i ManagerLib:GroupLogic.obj
 0001:00048d10       ?deallocate@?$allocator@U?$_Tree_node@U?$pair@$$CBIPEAUtagDISKIMG@@@std@@PEAX@std@@@std@@QEAAXPEAU?$_Tree_node@U?$pair@$$CBIPEAUtagDISKIMG@@@std@@PEAX@2@_K@Z 0000000180049d10 f i ManagerLib:DiskLogic.obj
 0001:00048d10       ?deallocate@?$allocator@U?$_Tree_node@U?$pair@$$CBHPEAVPacketHandler@@@std@@PEAX@std@@@std@@QEAAXPEAU?$_Tree_node@U?$pair@$$CBHPEAVPacketHandler@@@std@@PEAX@2@_K@Z 0000000180049d10 f i ManagerLib:PacketHandlers.obj
 0001:00048d10       ?deallocate@?$allocator@U?$_Tree_node@U?$pair@$$CBIPEAUtagMACHINEINFO@@@std@@PEAX@std@@@std@@QEAAXPEAU?$_Tree_node@U?$pair@$$CBIPEAUtagMACHINEINFO@@@std@@PEAX@2@_K@Z 0000000180049d10 f i ManagerLib:GroupLogic.obj
 0001:00048d10       ?deallocate@?$allocator@U?$_Tree_node@U?$pair@$$CBIPEAUtagOSIMG@@@std@@PEAX@std@@@std@@QEAAXPEAU?$_Tree_node@U?$pair@$$CBIPEAUtagOSIMG@@@std@@PEAX@2@_K@Z 0000000180049d10 f i ManagerLib:OsImgLogic.obj
 0001:00048d10       ?deallocate@?$allocator@U?$_Tree_node@U?$pair@$$CBIPEAUtagREQUEST_EX@@@std@@PEAX@std@@@std@@QEAAXPEAU?$_Tree_node@U?$pair@$$CBIPEAUtagREQUEST_EX@@@std@@PEAX@2@_K@Z 0000000180049d10 f i ManagerLib:SessionBuildPartImgCnt.obj
 0001:00048d10       ?deallocate@?$allocator@U?$_Tree_node@U?$pair@$$CBGPEAUtagPARTIMG@@@std@@PEAX@std@@@std@@QEAAXPEAU?$_Tree_node@U?$pair@$$CBGPEAUtagPARTIMG@@@std@@PEAX@2@_K@Z 0000000180049d10 f i ManagerLib:PartImgLogic.obj
 0001:00048d70       ?end@?$_Tree@V?$_Tmap_traits@IPEAUtagDISKIMG@@U?$less@I@std@@V?$allocator@U?$pair@$$CBIPEAUtagDISKIMG@@@std@@@3@$0A@@std@@@std@@QEAA?AV?$_Tree_iterator@V?$_Tree_val@U?$_Tree_simple_types@U?$pair@$$CBIPEAUtagDISKIMG@@@std@@@std@@@std@@@2@XZ 0000000180049d70 f i ManagerLib:DiskLogic.obj
 0001:00048e00       ?erase@?$_Tree@V?$_Tmap_traits@IPEAUtagDISKIMG@@U?$less@I@std@@V?$allocator@U?$pair@$$CBIPEAUtagDISKIMG@@@std@@@3@$0A@@std@@@std@@QEAA?AV?$_Tree_iterator@V?$_Tree_val@U?$_Tree_simple_types@U?$pair@$$CBIPEAUtagDISKIMG@@@std@@@std@@@std@@@2@V?$_Tree_const_iterator@V?$_Tree_val@U?$_Tree_simple_types@U?$pair@$$CBIPEAUtagDISKIMG@@@std@@@std@@@std@@@2@0@Z 0000000180049e00 f i ManagerLib:DiskLogic.obj
 0001:00048f30       ?erase@?$_Tree@V?$_Tmap_traits@IPEAUtagDISKIMG@@U?$less@I@std@@V?$allocator@U?$pair@$$CBIPEAUtagDISKIMG@@@std@@@3@$0A@@std@@@std@@QEAA?AV?$_Tree_iterator@V?$_Tree_val@U?$_Tree_simple_types@U?$pair@$$CBIPEAUtagDISKIMG@@@std@@@std@@@std@@@2@V?$_Tree_const_iterator@V?$_Tree_val@U?$_Tree_simple_types@U?$pair@$$CBIPEAUtagDISKIMG@@@std@@@std@@@std@@@2@@Z 0000000180049f30 f i ManagerLib:DiskLogic.obj
 0001:00048f30       ?erase@?$_Tree@V?$_Tmap_traits@GPEAUtagPARTIMG@@U?$less@G@std@@V?$allocator@U?$pair@$$CBGPEAUtagPARTIMG@@@std@@@3@$0A@@std@@@std@@QEAA?AV?$_Tree_iterator@V?$_Tree_val@U?$_Tree_simple_types@U?$pair@$$CBGPEAUtagPARTIMG@@@std@@@std@@@std@@@2@V?$_Tree_const_iterator@V?$_Tree_val@U?$_Tree_simple_types@U?$pair@$$CBGPEAUtagPARTIMG@@@std@@@std@@@std@@@2@@Z 0000000180049f30 f i ManagerLib:PartImgLogic.obj
 0001:00048f30       ?erase@?$_Tree@V?$_Tmap_traits@IPEAUtagOSIMG@@U?$less@I@std@@V?$allocator@U?$pair@$$CBIPEAUtagOSIMG@@@std@@@3@$0A@@std@@@std@@QEAA?AV?$_Tree_iterator@V?$_Tree_val@U?$_Tree_simple_types@U?$pair@$$CBIPEAUtagOSIMG@@@std@@@std@@@std@@@2@V?$_Tree_const_iterator@V?$_Tree_val@U?$_Tree_simple_types@U?$pair@$$CBIPEAUtagOSIMG@@@std@@@std@@@std@@@2@@Z 0000000180049f30 f i ManagerLib:OsImgLogic.obj
 0001:00048f30       ?erase@?$_Tree@V?$_Tmap_traits@IPEAUtagGROUPINFO@@U?$less@I@std@@V?$allocator@U?$pair@$$CBIPEAUtagGROUPINFO@@@std@@@3@$0A@@std@@@std@@QEAA?AV?$_Tree_iterator@V?$_Tree_val@U?$_Tree_simple_types@U?$pair@$$CBIPEAUtagGROUPINFO@@@std@@@std@@@std@@@2@V?$_Tree_const_iterator@V?$_Tree_val@U?$_Tree_simple_types@U?$pair@$$CBIPEAUtagGROUPINFO@@@std@@@std@@@std@@@2@@Z 0000000180049f30 f i ManagerLib:GroupLogic.obj
 0001:00048f30       ?erase@?$_Tree@V?$_Tmap_traits@IPEAUtagREQUEST_EX@@U?$less@I@std@@V?$allocator@U?$pair@$$CBIPEAUtagREQUEST_EX@@@std@@@3@$0A@@std@@@std@@QEAA?AV?$_Tree_iterator@V?$_Tree_val@U?$_Tree_simple_types@U?$pair@$$CBIPEAUtagREQUEST_EX@@@std@@@std@@@std@@@2@V?$_Tree_const_iterator@V?$_Tree_val@U?$_Tree_simple_types@U?$pair@$$CBIPEAUtagREQUEST_EX@@@std@@@std@@@std@@@2@@Z 0000000180049f30 f i ManagerLib:SessionBuildPartImgCnt.obj
 0001:00048f30       ?erase@?$_Tree@V?$_Tmap_traits@IPEAUtagMACHINEINFO@@U?$less@I@std@@V?$allocator@U?$pair@$$CBIPEAUtagMACHINEINFO@@@std@@@3@$0A@@std@@@std@@QEAA?AV?$_Tree_iterator@V?$_Tree_val@U?$_Tree_simple_types@U?$pair@$$CBIPEAUtagMACHINEINFO@@@std@@@std@@@std@@@2@V?$_Tree_const_iterator@V?$_Tree_val@U?$_Tree_simple_types@U?$pair@$$CBIPEAUtagMACHINEINFO@@@std@@@std@@@std@@@2@@Z 0000000180049f30 f i ManagerLib:GroupLogic.obj
 0001:00049720       ?find@?$_Tree@V?$_Tmap_traits@IPEAUtagDISKIMG@@U?$less@I@std@@V?$allocator@U?$pair@$$CBIPEAUtagDISKIMG@@@std@@@3@$0A@@std@@@std@@QEAA?AV?$_Tree_iterator@V?$_Tree_val@U?$_Tree_simple_types@U?$pair@$$CBIPEAUtagDISKIMG@@@std@@@std@@@std@@@2@AEBI@Z 000000018004a720 f i ManagerLib:DiskLogic.obj
 0001:00049890       ?lower_bound@?$_Tree@V?$_Tmap_traits@IPEAUtagOSIMG@@U?$less@I@std@@V?$allocator@U?$pair@$$CBIPEAUtagOSIMG@@@std@@@3@$0A@@std@@@std@@QEAA?AV?$_Tree_iterator@V?$_Tree_val@U?$_Tree_simple_types@U?$pair@$$CBIPEAUtagOSIMG@@@std@@@std@@@std@@@2@AEBI@Z 000000018004a890 f i ManagerLib:OsImgLogic.obj
 0001:00049890       ?lower_bound@?$_Tree@V?$_Tmap_traits@IPEAUtagMACHINEINFO@@U?$less@I@std@@V?$allocator@U?$pair@$$CBIPEAUtagMACHINEINFO@@@std@@@3@$0A@@std@@@std@@QEAA?AV?$_Tree_iterator@V?$_Tree_val@U?$_Tree_simple_types@U?$pair@$$CBIPEAUtagMACHINEINFO@@@std@@@std@@@std@@@2@AEBI@Z 000000018004a890 f i ManagerLib:GroupLogic.obj
 0001:00049890       ?lower_bound@?$_Tree@V?$_Tmap_traits@IPEAUtagDISKIMG@@U?$less@I@std@@V?$allocator@U?$pair@$$CBIPEAUtagDISKIMG@@@std@@@3@$0A@@std@@@std@@QEAA?AV?$_Tree_iterator@V?$_Tree_val@U?$_Tree_simple_types@U?$pair@$$CBIPEAUtagDISKIMG@@@std@@@std@@@std@@@2@AEBI@Z 000000018004a890 f i ManagerLib:DiskLogic.obj
 0001:00049890       ?lower_bound@?$_Tree@V?$_Tmap_traits@IPEAUtagGROUPINFO@@U?$less@I@std@@V?$allocator@U?$pair@$$CBIPEAUtagGROUPINFO@@@std@@@3@$0A@@std@@@std@@QEAA?AV?$_Tree_iterator@V?$_Tree_val@U?$_Tree_simple_types@U?$pair@$$CBIPEAUtagGROUPINFO@@@std@@@std@@@std@@@2@AEBI@Z 000000018004a890 f i ManagerLib:GroupLogic.obj
 0001:00049920       ??0MyEvent@@QEAA@_N@Z      000000018004a920 f i ManagerLib:UtilsFunction.obj
 0001:000499a0       ??1MyEvent@@UEAA@XZ        000000018004a9a0 f i ManagerLib:UtilsFunction.obj
 0001:00049a20       ??_EMyEvent@@UEAAPEAXI@Z   000000018004aa20 f i ManagerLib:UtilsFunction.obj
 0001:00049a20       ??_GMyEvent@@UEAAPEAXI@Z   000000018004aa20 f i ManagerLib:UtilsFunction.obj
 0001:00049a90       ?ChangeDataToHexText@@YAXPEAEH0@Z 000000018004aa90 f   ManagerLib:UtilsFunction.obj
 0001:00049b20       ?DisableSleep@@YAXXZ       000000018004ab20 f   ManagerLib:UtilsFunction.obj
 0001:00049bd0       ?GDelayExeTime@@YAXI@Z     000000018004abd0 f   ManagerLib:UtilsFunction.obj
 0001:00049cc0       ?GetInfoFromBSServer@@YAJGGKPEADH0H@Z 000000018004acc0 f   ManagerLib:UtilsFunction.obj
 0001:00049f50       ?GetModulePathEx@@YA_NPEAD0@Z 000000018004af50 f   ManagerLib:UtilsFunction.obj
 0001:0004a080       ?GetOSInfoGetObj@CSessionEndMag@@QEAAPEAVCOSInfoGet@@XZ 000000018004b080 f i ManagerLib:UtilsFunction.obj
 0001:0004a0c0       ?GetPartUpdateInfo@@YAHPEAUtagPARTUPDATE_INFO@@@Z 000000018004b0c0 f   ManagerLib:UtilsFunction.obj
 0001:0004a1b0       ?GetSessionType@CSessionThd@@QEAAEXZ 000000018004b1b0 f i ManagerLib:UtilsFunction.obj
 0001:0004a1f0       ?IsWow64@@YAHXZ            000000018004b1f0 f   ManagerLib:UtilsFunction.obj
 0001:0004a3a0       ?RecvRequestFromPeerT@@YAJAEAVTcpSocket@@PEAUtagREQUEST_EX@@@Z 000000018004b3a0 f   ManagerLib:UtilsFunction.obj
 0001:0004a460       ?Reset@MyEvent@@QEAAXXZ    000000018004b460 f i ManagerLib:UtilsFunction.obj
 0001:0004a4b0       ?SaveFile@@YA_NPEAD0H@Z    000000018004b4b0 f   ManagerLib:UtilsFunction.obj
 0001:0004a580       ?SetNetBad@@YAXH@Z         000000018004b580 f   ManagerLib:UtilsFunction.obj
 0001:0004a5b0       ?Wait@MyEvent@@QEAA_NK@Z   000000018004b5b0 f i ManagerLib:UtilsFunction.obj
 0001:0004a620       ?strrchr@@YAPEADQEADH@Z    000000018004b620 f i ManagerLib:UtilsFunction.obj
 0001:0004a670       _vsnprintf_l               000000018004b670 f i ManagerLib:UtilsFunction.obj
 0001:0004a720       _vsprintf_l                000000018004b720 f i ManagerLib:UtilsFunction.obj
 0001:0004a790       sprintf                    000000018004b790 f i ManagerLib:UtilsFunction.obj
 0001:0004a840       ??0?$CLogicBase@VCLoginLogic@@@@QEAA@XZ 000000018004b840 f i ManagerLib:LoginLogic.obj
 0001:0004a8a0       ??0?$CPacketGateBaseTemplate@VCLoginLogic@@@@QEAA@XZ 000000018004b8a0 f i ManagerLib:LoginLogic.obj
 0001:0004a990       ??0?$KSingleton@VCLoginLogic@@@Patterns@System@@IEAA@XZ 000000018004b990 f i ManagerLib:LoginLogic.obj
 0001:0004a9e0       ??0CLoginLogic@@QEAA@XZ    000000018004b9e0 f   ManagerLib:LoginLogic.obj
 0001:0004aa90       ??1?$CLogicBase@VCLoginLogic@@@@QEAA@XZ 000000018004ba90 f i ManagerLib:LoginLogic.obj
 0001:0004aae0       ??1?$CPacketGateBaseTemplate@VCLoginLogic@@@@UEAA@XZ 000000018004bae0 f i ManagerLib:LoginLogic.obj
 0001:0004ab50       ??1?$KSingleton@VCLoginLogic@@@Patterns@System@@IEAA@XZ 000000018004bb50 f i ManagerLib:LoginLogic.obj
 0001:0004ab90       ??1CLoginLogic@@UEAA@XZ    000000018004bb90 f   ManagerLib:LoginLogic.obj
 0001:0004ac20       ??_E?$CPacketGateBaseTemplate@VCLoginLogic@@@@UEAAPEAXI@Z 000000018004bc20 f i ManagerLib:LoginLogic.obj
 0001:0004ac20       ??_G?$CPacketGateBaseTemplate@VCLoginLogic@@@@UEAAPEAXI@Z 000000018004bc20 f i ManagerLib:LoginLogic.obj
 0001:0004ac90       ??_GCLoginLogic@@UEAAPEAXI@Z 000000018004bc90 f i ManagerLib:LoginLogic.obj
 0001:0004ac90       ??_ECLoginLogic@@UEAAPEAXI@Z 000000018004bc90 f i ManagerLib:LoginLogic.obj
 0001:0004ad00       ?CheckPwd@CLoginLogic@@QEAAJPEAD0@Z 000000018004bd00 f   ManagerLib:LoginLogic.obj
 0001:0004af70       ?GetLoginStatus@@YAHH@Z    000000018004bf70 f   ManagerLib:LoginLogic.obj
 0001:0004afe0       ?GetTempLinPai@CLoginLogic@@QEAAIXZ 000000018004bfe0 f   ManagerLib:LoginLogic.obj
 0001:0004b020       ?GetTempLinPaiReal@@YAIXZ  000000018004c020 f   ManagerLib:LoginLogic.obj
 0001:0004b060       ?HandleCheckCanToBssvr@CLoginLogic@@IEAAHPEAUtagREQUEST_EX@@@Z 000000018004c060 f   ManagerLib:LoginLogic.obj
 0001:0004b0b0       ?Initialize@CLoginLogic@@UEAAHXZ 000000018004c0b0 f   ManagerLib:LoginLogic.obj
 0001:0004b160       ?IsLogin@CLoginLogic@@QEAAHXZ 000000018004c160 f   ManagerLib:LoginLogic.obj
 0001:0004b1a0       ?Process@?$CPacketGateBaseTemplate@VCLoginLogic@@@@UEAAHHPEAUtagREQUEST_EX@@@Z 000000018004c1a0 f i ManagerLib:LoginLogic.obj
 0001:0004b2c0       ??$?0AEAHAEAPEAVPacketHandler@@X$0A@@?$pair@HPEAVPacketHandler@@@std@@QEAA@AEAHAEAPEAVPacketHandler@@@Z 000000018004c2c0 f i ManagerLib:PacketHandlers.obj
 0001:0004b340       ??$?0HPEAVPacketHandler@@X$0A@@?$pair@$$CBHPEAVPacketHandler@@@std@@QEAA@$$QEAU?$pair@HPEAVPacketHandler@@@1@@Z 000000018004c340 f i ManagerLib:PacketHandlers.obj
 0001:0004b3c0       ??$_Buynode@U?$pair@HPEAVPacketHandler@@@std@@@?$_Tree_comp_alloc@V?$_Tmap_traits@HPEAVPacketHandler@@U?$less@H@std@@V?$allocator@U?$pair@$$CBHPEAVPacketHandler@@@std@@@3@$0A@@std@@@std@@QEAAPEAU?$_Tree_node@U?$pair@$$CBHPEAVPacketHandler@@@std@@PEAX@1@$$QEAU?$pair@HPEAVPacketHandler@@@1@@Z 000000018004c3c0 f i ManagerLib:PacketHandlers.obj
 0001:0004b4a0       ??$_Buynode_if_nil@AEAU?$pair@$$CBIW4LogicType@@@std@@@?$_Tree@V?$_Tmap_traits@IW4LogicType@@U?$less@I@std@@V?$allocator@U?$pair@$$CBIW4LogicType@@@std@@@3@$0A@@std@@@std@@IEAAPEAU?$_Tree_node@U?$pair@$$CBIW4LogicType@@@std@@PEAX@1@PEAU21@AEAU?$pair@$$CBIW4LogicType@@@1@@Z 000000018004c4a0 f i ManagerLib:LogicManager.obj
 0001:0004b4a0       ??$_Buynode_if_nil@AEAU?$pair@$$CBHPEAVPacketHandler@@@std@@@?$_Tree@V?$_Tmap_traits@HPEAVPacketHandler@@U?$less@H@std@@V?$allocator@U?$pair@$$CBHPEAVPacketHandler@@@std@@@3@$0A@@std@@@std@@IEAAPEAU?$_Tree_node@U?$pair@$$CBHPEAVPacketHandler@@@std@@PEAX@1@PEAU21@AEAU?$pair@$$CBHPEAVPacketHandler@@@1@@Z 000000018004c4a0 f i ManagerLib:PacketHandlers.obj
 0001:0004b4f0       ??$_Insert_at@AEAU?$pair@$$CBHPEAVPacketHandler@@@std@@PEAU?$_Tree_node@U?$pair@$$CBHPEAVPacketHandler@@@std@@PEAX@2@@?$_Tree@V?$_Tmap_traits@HPEAVPacketHandler@@U?$less@H@std@@V?$allocator@U?$pair@$$CBHPEAVPacketHandler@@@std@@@3@$0A@@std@@@std@@IEAA?AV?$_Tree_iterator@V?$_Tree_val@U?$_Tree_simple_types@U?$pair@$$CBHPEAVPacketHandler@@@std@@@std@@@std@@@1@_NPEAU?$_Tree_node@U?$pair@$$CBHPEAVPacketHandler@@@std@@PEAX@1@AEAU?$pair@$$CBHPEAVPacketHandler@@@1@1@Z 000000018004c4f0 f i ManagerLib:PacketHandlers.obj
 0001:0004b9a0       ??$_Insert_nohint@AEAU?$pair@$$CBHPEAVPacketHandler@@@std@@PEAU?$_Tree_node@U?$pair@$$CBHPEAVPacketHandler@@@std@@PEAX@2@@?$_Tree@V?$_Tmap_traits@HPEAVPacketHandler@@U?$less@H@std@@V?$allocator@U?$pair@$$CBHPEAVPacketHandler@@@std@@@3@$0A@@std@@@std@@IEAA?AU?$pair@V?$_Tree_iterator@V?$_Tree_val@U?$_Tree_simple_types@U?$pair@$$CBHPEAVPacketHandler@@@std@@@std@@@std@@@std@@_N@1@_NAEAU?$pair@$$CBHPEAVPacketHandler@@@1@PEAU?$_Tree_node@U?$pair@$$CBHPEAVPacketHandler@@@std@@PEAX@1@@Z 000000018004c9a0 f i ManagerLib:PacketHandlers.obj
 0001:0004be50       ??$_Lbound@H@?$_Tree@V?$_Tmap_traits@HPEAVPacketHandler@@U?$less@H@std@@V?$allocator@U?$pair@$$CBHPEAVPacketHandler@@@std@@@3@$0A@@std@@@std@@IEBAPEAU?$_Tree_node@U?$pair@$$CBHPEAVPacketHandler@@@std@@PEAX@1@AEBH@Z 000000018004ce50 f i ManagerLib:PacketHandlers.obj
 0001:0004bf20       ??$construct@U?$pair@$$CBHPEAVPacketHandler@@@std@@U?$pair@HPEAVPacketHandler@@@2@@?$_Wrap_alloc@V?$allocator@U?$_Tree_node@U?$pair@$$CBHPEAVPacketHandler@@@std@@PEAX@std@@@std@@@std@@QEAAXPEAU?$pair@$$CBHPEAVPacketHandler@@@1@$$QEAU?$pair@HPEAVPacketHandler@@@1@@Z 000000018004cf20 f i ManagerLib:PacketHandlers.obj
 0001:0004bf80       ??$construct@U?$pair@$$CBHPEAVPacketHandler@@@std@@U?$pair@HPEAVPacketHandler@@@2@@?$allocator@U?$_Tree_node@U?$pair@$$CBHPEAVPacketHandler@@@std@@PEAX@std@@@std@@QEAAXPEAU?$pair@$$CBHPEAVPacketHandler@@@1@$$QEAU?$pair@HPEAVPacketHandler@@@1@@Z 000000018004cf80 f i ManagerLib:PacketHandlers.obj
 0001:0004c010       ??$construct@U?$pair@$$CBHPEAVPacketHandler@@@std@@U?$pair@HPEAVPacketHandler@@@2@@?$allocator_traits@V?$allocator@U?$_Tree_node@U?$pair@$$CBHPEAVPacketHandler@@@std@@PEAX@std@@@std@@@std@@SAXAEAV?$allocator@U?$_Tree_node@U?$pair@$$CBHPEAVPacketHandler@@@std@@PEAX@std@@@1@PEAU?$pair@$$CBHPEAVPacketHandler@@@1@$$QEAU?$pair@HPEAVPacketHandler@@@1@@Z 000000018004d010 f i ManagerLib:PacketHandlers.obj
 0001:0004c070       ??$destroy@U?$pair@$$CBHPEAVPacketHandler@@@std@@@?$allocator_traits@V?$allocator@U?$_Tree_node@U?$pair@$$CBHPEAVPacketHandler@@@std@@PEAX@std@@@std@@@std@@SAXAEAV?$allocator@U?$_Tree_node@U?$pair@$$CBHPEAVPacketHandler@@@std@@PEAX@std@@@1@PEAU?$pair@$$CBHPEAVPacketHandler@@@1@@Z 000000018004d070 f i ManagerLib:PacketHandlers.obj
 0001:0004c070       ??$destroy@PEAU?$_Tree_node@U?$pair@$$CBIPEAUtagDISKIMG@@@std@@PEAX@std@@@?$allocator_traits@V?$allocator@U?$_Tree_node@U?$pair@$$CBIPEAUtagDISKIMG@@@std@@PEAX@std@@@std@@@std@@SAXAEAV?$allocator@U?$_Tree_node@U?$pair@$$CBIPEAUtagDISKIMG@@@std@@PEAX@std@@@1@PEAPEAU?$_Tree_node@U?$pair@$$CBIPEAUtagDISKIMG@@@std@@PEAX@1@@Z 000000018004d070 f i ManagerLib:DiskLogic.obj
 0001:0004c070       ??$destroy@PEAU?$_Tree_node@U?$pair@$$CBIPEAUtagOSIMG@@@std@@PEAX@std@@@?$allocator_traits@V?$allocator@U?$_Tree_node@U?$pair@$$CBIPEAUtagOSIMG@@@std@@PEAX@std@@@std@@@std@@SAXAEAV?$allocator@U?$_Tree_node@U?$pair@$$CBIPEAUtagOSIMG@@@std@@PEAX@std@@@1@PEAPEAU?$_Tree_node@U?$pair@$$CBIPEAUtagOSIMG@@@std@@PEAX@1@@Z 000000018004d070 f i ManagerLib:OsImgLogic.obj
 0001:0004c070       ??$destroy@PEAU?$_Tree_node@U?$pair@$$CBGPEAUtagPARTIMG@@@std@@PEAX@std@@@?$allocator_traits@V?$allocator@U?$_Tree_node@U?$pair@$$CBGPEAUtagPARTIMG@@@std@@PEAX@std@@@std@@@std@@SAXAEAV?$allocator@U?$_Tree_node@U?$pair@$$CBGPEAUtagPARTIMG@@@std@@PEAX@std@@@1@PEAPEAU?$_Tree_node@U?$pair@$$CBGPEAUtagPARTIMG@@@std@@PEAX@1@@Z 000000018004d070 f i ManagerLib:PartImgLogic.obj
 0001:0004c070       ??$destroy@U?$pair@$$CBGPEAUtagPARTIMG@@@std@@@?$allocator_traits@V?$allocator@U?$_Tree_node@U?$pair@$$CBGPEAUtagPARTIMG@@@std@@PEAX@std@@@std@@@std@@SAXAEAV?$allocator@U?$_Tree_node@U?$pair@$$CBGPEAUtagPARTIMG@@@std@@PEAX@std@@@1@PEAU?$pair@$$CBGPEAUtagPARTIMG@@@1@@Z 000000018004d070 f i ManagerLib:PartImgLogic.obj
 0001:0004c070       ??$destroy@PEAU?$_Tree_node@U?$pair@$$CBIPEAUtagGROUPINFO@@@std@@PEAX@std@@@?$allocator_traits@V?$allocator@U?$_Tree_node@U?$pair@$$CBIPEAUtagGROUPINFO@@@std@@PEAX@std@@@std@@@std@@SAXAEAV?$allocator@U?$_Tree_node@U?$pair@$$CBIPEAUtagGROUPINFO@@@std@@PEAX@std@@@1@PEAPEAU?$_Tree_node@U?$pair@$$CBIPEAUtagGROUPINFO@@@std@@PEAX@1@@Z 000000018004d070 f i ManagerLib:GroupLogic.obj
 0001:0004c070       ??$destroy@PEAU?$_Tree_node@U?$pair@$$CBHPEAVPacketHandler@@@std@@PEAX@std@@@?$allocator_traits@V?$allocator@U?$_Tree_node@U?$pair@$$CBHPEAVPacketHandler@@@std@@PEAX@std@@@std@@@std@@SAXAEAV?$allocator@U?$_Tree_node@U?$pair@$$CBHPEAVPacketHandler@@@std@@PEAX@std@@@1@PEAPEAU?$_Tree_node@U?$pair@$$CBHPEAVPacketHandler@@@std@@PEAX@1@@Z 000000018004d070 f i ManagerLib:PacketHandlers.obj
 0001:0004c070       ??$destroy@U?$pair@$$CBIPEAUtagREQUEST_EX@@@std@@@?$allocator_traits@V?$allocator@U?$_Tree_node@U?$pair@$$CBIPEAUtagREQUEST_EX@@@std@@PEAX@std@@@std@@@std@@SAXAEAV?$allocator@U?$_Tree_node@U?$pair@$$CBIPEAUtagREQUEST_EX@@@std@@PEAX@std@@@1@PEAU?$pair@$$CBIPEAUtagREQUEST_EX@@@1@@Z 000000018004d070 f i ManagerLib:SessionBuildPartImgCnt.obj
 0001:0004c070       ??$destroy@U?$pair@$$CBIW4LogicType@@@std@@@?$allocator_traits@V?$allocator@U?$_Tree_node@U?$pair@$$CBIW4LogicType@@@std@@PEAX@std@@@std@@@std@@SAXAEAV?$allocator@U?$_Tree_node@U?$pair@$$CBIW4LogicType@@@std@@PEAX@std@@@1@PEAU?$pair@$$CBIW4LogicType@@@1@@Z 000000018004d070 f i ManagerLib:LogicManager.obj
 0001:0004c070       ??$destroy@U?$pair@$$CBIUtagUSERLIST_ITEM@@@std@@@?$allocator_traits@V?$allocator@U?$_Tree_node@U?$pair@$$CBIUtagUSERLIST_ITEM@@@std@@PEAX@std@@@std@@@std@@SAXAEAV?$allocator@U?$_Tree_node@U?$pair@$$CBIUtagUSERLIST_ITEM@@@std@@PEAX@std@@@1@PEAU?$pair@$$CBIUtagUSERLIST_ITEM@@@1@@Z 000000018004d070 f i ManagerLib:UserLogic.obj
 0001:0004c070       ??$destroy@U?$pair@$$CBIPEAUtagMACHINEINFO@@@std@@@?$allocator_traits@V?$allocator@U?$_Tree_node@U?$pair@$$CBIPEAUtagMACHINEINFO@@@std@@PEAX@std@@@std@@@std@@SAXAEAV?$allocator@U?$_Tree_node@U?$pair@$$CBIPEAUtagMACHINEINFO@@@std@@PEAX@std@@@1@PEAU?$pair@$$CBIPEAUtagMACHINEINFO@@@1@@Z 000000018004d070 f i ManagerLib:GroupLogic.obj
 0001:0004c070       ??$destroy@U?$pair@$$CBIPEAUtagDISKIMG@@@std@@@?$allocator_traits@V?$allocator@U?$_Tree_node@U?$pair@$$CBIPEAUtagDISKIMG@@@std@@PEAX@std@@@std@@@std@@SAXAEAV?$allocator@U?$_Tree_node@U?$pair@$$CBIPEAUtagDISKIMG@@@std@@PEAX@std@@@1@PEAU?$pair@$$CBIPEAUtagDISKIMG@@@1@@Z 000000018004d070 f i ManagerLib:DiskLogic.obj
 0001:0004c070       ??$destroy@U?$pair@$$CBIPEAUtagGROUPINFO@@@std@@@?$allocator_traits@V?$allocator@U?$_Tree_node@U?$pair@$$CBIPEAUtagGROUPINFO@@@std@@PEAX@std@@@std@@@std@@SAXAEAV?$allocator@U?$_Tree_node@U?$pair@$$CBIPEAUtagGROUPINFO@@@std@@PEAX@std@@@1@PEAU?$pair@$$CBIPEAUtagGROUPINFO@@@1@@Z 000000018004d070 f i ManagerLib:GroupLogic.obj
 0001:0004c070       ??$destroy@PEAU?$_Tree_node@U?$pair@$$CBIUtagUSERLIST_ITEM@@@std@@PEAX@std@@@?$allocator_traits@V?$allocator@U?$_Tree_node@U?$pair@$$CBIUtagUSERLIST_ITEM@@@std@@PEAX@std@@@std@@@std@@SAXAEAV?$allocator@U?$_Tree_node@U?$pair@$$CBIUtagUSERLIST_ITEM@@@std@@PEAX@std@@@1@PEAPEAU?$_Tree_node@U?$pair@$$CBIUtagUSERLIST_ITEM@@@std@@PEAX@1@@Z 000000018004d070 f i ManagerLib:UserLogic.obj
 0001:0004c070       ??$destroy@PEAU?$_Tree_node@U?$pair@$$CBIPEAUtagMACHINEINFO@@@std@@PEAX@std@@@?$allocator_traits@V?$allocator@U?$_Tree_node@U?$pair@$$CBIPEAUtagMACHINEINFO@@@std@@PEAX@std@@@std@@@std@@SAXAEAV?$allocator@U?$_Tree_node@U?$pair@$$CBIPEAUtagMACHINEINFO@@@std@@PEAX@std@@@1@PEAPEAU?$_Tree_node@U?$pair@$$CBIPEAUtagMACHINEINFO@@@std@@PEAX@1@@Z 000000018004d070 f i ManagerLib:GroupLogic.obj
 0001:0004c070       ??$destroy@PEAU?$_Tree_node@U?$pair@$$CBIPEAUtagREQUEST_EX@@@std@@PEAX@std@@@?$allocator_traits@V?$allocator@U?$_Tree_node@U?$pair@$$CBIPEAUtagREQUEST_EX@@@std@@PEAX@std@@@std@@@std@@SAXAEAV?$allocator@U?$_Tree_node@U?$pair@$$CBIPEAUtagREQUEST_EX@@@std@@PEAX@std@@@1@PEAPEAU?$_Tree_node@U?$pair@$$CBIPEAUtagREQUEST_EX@@@std@@PEAX@1@@Z 000000018004d070 f i ManagerLib:SessionBuildPartImgCnt.obj
 0001:0004c070       ??$destroy@PEAU?$_Tree_node@U?$pair@$$CBIW4LogicType@@@std@@PEAX@std@@@?$allocator_traits@V?$allocator@U?$_Tree_node@U?$pair@$$CBIW4LogicType@@@std@@PEAX@std@@@std@@@std@@SAXAEAV?$allocator@U?$_Tree_node@U?$pair@$$CBIW4LogicType@@@std@@PEAX@std@@@1@PEAPEAU?$_Tree_node@U?$pair@$$CBIW4LogicType@@@std@@PEAX@1@@Z 000000018004d070 f i ManagerLib:LogicManager.obj
 0001:0004c070       ??$destroy@U?$pair@$$CBIPEAUtagOSIMG@@@std@@@?$allocator_traits@V?$allocator@U?$_Tree_node@U?$pair@$$CBIPEAUtagOSIMG@@@std@@PEAX@std@@@std@@@std@@SAXAEAV?$allocator@U?$_Tree_node@U?$pair@$$CBIPEAUtagOSIMG@@@std@@PEAX@std@@@1@PEAU?$pair@$$CBIPEAUtagOSIMG@@@1@@Z 000000018004d070 f i ManagerLib:OsImgLogic.obj
 0001:0004c0c0       ??$emplace@U?$pair@HPEAVPacketHandler@@@std@@@?$_Tree@V?$_Tmap_traits@HPEAVPacketHandler@@U?$less@H@std@@V?$allocator@U?$pair@$$CBHPEAVPacketHandler@@@std@@@3@$0A@@std@@@std@@QEAA?AU?$pair@V?$_Tree_iterator@V?$_Tree_val@U?$_Tree_simple_types@U?$pair@$$CBHPEAVPacketHandler@@@std@@@std@@@std@@@std@@_N@1@$$QEAU?$pair@HPEAVPacketHandler@@@1@@Z 000000018004d0c0 f i ManagerLib:PacketHandlers.obj
 0001:0004c150       ??$insert@U?$pair@HPEAVPacketHandler@@@std@@X@?$map@HPEAVPacketHandler@@U?$less@H@std@@V?$allocator@U?$pair@$$CBHPEAVPacketHandler@@@std@@@3@@std@@QEAA?AU?$pair@V?$_Tree_iterator@V?$_Tree_val@U?$_Tree_simple_types@U?$pair@$$CBHPEAVPacketHandler@@@std@@@std@@@std@@@std@@_N@1@$$QEAU?$pair@HPEAVPacketHandler@@@1@@Z 000000018004d150 f i ManagerLib:PacketHandlers.obj
 0001:0004c1c0       ??0?$KSingleton@VPacketHandlers@@@Patterns@System@@IEAA@XZ 000000018004d1c0 f i ManagerLib:PacketHandlers.obj
 0001:0004c210       ??0?$_Tree@V?$_Tmap_traits@HPEAVPacketHandler@@U?$less@H@std@@V?$allocator@U?$pair@$$CBHPEAVPacketHandler@@@std@@@3@$0A@@std@@@std@@QEAA@AEBU?$less@H@1@@Z 000000018004d210 f i ManagerLib:PacketHandlers.obj
 0001:0004c270       ??0?$_Tree_comp_alloc@V?$_Tmap_traits@HPEAVPacketHandler@@U?$less@H@std@@V?$allocator@U?$pair@$$CBHPEAVPacketHandler@@@std@@@3@$0A@@std@@@std@@QEAA@AEBU?$less@H@1@@Z 000000018004d270 f i ManagerLib:PacketHandlers.obj
 0001:0004c2e0       ??0?$_Tree_val@U?$_Tree_simple_types@U?$pair@$$CBIPEAUtagGROUPINFO@@@std@@@std@@@std@@QEAA@XZ 000000018004d2e0 f i ManagerLib:GroupLogic.obj
 0001:0004c2e0       ??0?$_Tree_val@U?$_Tree_simple_types@U?$pair@$$CBIUtagUSERLIST_ITEM@@@std@@@std@@@std@@QEAA@XZ 000000018004d2e0 f i ManagerLib:UserLogic.obj
 0001:0004c2e0       ??0?$_Tree_val@U?$_Tree_simple_types@U?$pair@$$CBGPEAUtagPARTIMG@@@std@@@std@@@std@@QEAA@XZ 000000018004d2e0 f i ManagerLib:PartImgLogic.obj
 0001:0004c2e0       ??0?$_Tree_val@U?$_Tree_simple_types@U?$pair@$$CBHPEAVPacketHandler@@@std@@@std@@@std@@QEAA@XZ 000000018004d2e0 f i ManagerLib:PacketHandlers.obj
 0001:0004c2e0       ??0?$_Tree_val@U?$_Tree_simple_types@U?$pair@$$CBIW4LogicType@@@std@@@std@@@std@@QEAA@XZ 000000018004d2e0 f i ManagerLib:LogicManager.obj
 0001:0004c2e0       ??0?$_Tree_val@U?$_Tree_simple_types@U?$pair@$$CBIPEAUtagMACHINEINFO@@@std@@@std@@@std@@QEAA@XZ 000000018004d2e0 f i ManagerLib:GroupLogic.obj
 0001:0004c2e0       ??0?$_Tree_val@U?$_Tree_simple_types@U?$pair@$$CBIPEAUtagREQUEST_EX@@@std@@@std@@@std@@QEAA@XZ 000000018004d2e0 f i ManagerLib:SessionBuildPartImgCnt.obj
 0001:0004c2e0       ??0?$_Tree_val@U?$_Tree_simple_types@U?$pair@$$CBIPEAUtagDISKIMG@@@std@@@std@@@std@@QEAA@XZ 000000018004d2e0 f i ManagerLib:DiskLogic.obj
 0001:0004c2e0       ??0?$_Tree_val@U?$_Tree_simple_types@U?$pair@$$CBIPEAUtagOSIMG@@@std@@@std@@@std@@QEAA@XZ 000000018004d2e0 f i ManagerLib:OsImgLogic.obj
 0001:0004c340       ??0?$map@HPEAVPacketHandler@@U?$less@H@std@@V?$allocator@U?$pair@$$CBHPEAVPacketHandler@@@std@@@3@@std@@QEAA@XZ 000000018004d340 f i ManagerLib:PacketHandlers.obj
 0001:0004c390       ??0PacketHandlers@@QEAA@XZ 000000018004d390 f   ManagerLib:PacketHandlers.obj
 0001:0004c450       ??1?$KSingleton@VPacketHandlers@@@Patterns@System@@IEAA@XZ 000000018004d450 f i ManagerLib:PacketHandlers.obj
 0001:0004c490       ??R?$less@H@std@@QEBA_NAEBH0@Z 000000018004d490 f i ManagerLib:PacketHandlers.obj
 0001:0004c500       ?GetHandler@PacketHandlers@@QEAAPEAVPacketHandler@@H@Z 000000018004d500 f   ManagerLib:PacketHandlers.obj
 0001:0004c5f0       ?Register@PacketHandlers@@QEAAXHPEAVPacketHandler@@@Z 000000018004d5f0 f   ManagerLib:PacketHandlers.obj
 0001:0004c660       ?_Buyheadnode@?$_Tree_comp_alloc@V?$_Tmap_traits@HPEAVPacketHandler@@U?$less@H@std@@V?$allocator@U?$pair@$$CBHPEAVPacketHandler@@@std@@@3@$0A@@std@@@std@@QEAAPEAU?$_Tree_node@U?$pair@$$CBHPEAVPacketHandler@@@std@@PEAX@2@XZ 000000018004d660 f i ManagerLib:PacketHandlers.obj
 0001:0004c7e0       ?_Buynode0@?$_Tree_comp_alloc@V?$_Tmap_traits@HPEAVPacketHandler@@U?$less@H@std@@V?$allocator@U?$pair@$$CBHPEAVPacketHandler@@@std@@@3@$0A@@std@@@std@@QEAAPEAU?$_Tree_node@U?$pair@$$CBHPEAVPacketHandler@@@std@@PEAX@2@XZ 000000018004d7e0 f i ManagerLib:PacketHandlers.obj
 0001:0004c960       ?_Color@?$_Tree_comp_alloc@V?$_Tmap_traits@IPEAUtagGROUPINFO@@U?$less@I@std@@V?$allocator@U?$pair@$$CBIPEAUtagGROUPINFO@@@std@@@3@$0A@@std@@@std@@SAAEADPEAU?$_Tree_node@U?$pair@$$CBIPEAUtagGROUPINFO@@@std@@PEAX@2@@Z 000000018004d960 f i ManagerLib:GroupLogic.obj
 0001:0004c960       ?_Color@?$_Tree_comp_alloc@V?$_Tmap_traits@HPEAVPacketHandler@@U?$less@H@std@@V?$allocator@U?$pair@$$CBHPEAVPacketHandler@@@std@@@3@$0A@@std@@@std@@SAAEADPEAU?$_Tree_node@U?$pair@$$CBHPEAVPacketHandler@@@std@@PEAX@2@@Z 000000018004d960 f i ManagerLib:PacketHandlers.obj
 0001:0004c960       ?_Color@?$_Tree_comp_alloc@V?$_Tmap_traits@IPEAUtagMACHINEINFO@@U?$less@I@std@@V?$allocator@U?$pair@$$CBIPEAUtagMACHINEINFO@@@std@@@3@$0A@@std@@@std@@SAAEADPEAU?$_Tree_node@U?$pair@$$CBIPEAUtagMACHINEINFO@@@std@@PEAX@2@@Z 000000018004d960 f i ManagerLib:GroupLogic.obj
 0001:0004c960       ?_Color@?$_Tree_comp_alloc@V?$_Tmap_traits@IPEAUtagDISKIMG@@U?$less@I@std@@V?$allocator@U?$pair@$$CBIPEAUtagDISKIMG@@@std@@@3@$0A@@std@@@std@@SAAEADPEAU?$_Tree_node@U?$pair@$$CBIPEAUtagDISKIMG@@@std@@PEAX@2@@Z 000000018004d960 f i ManagerLib:DiskLogic.obj
 0001:0004c960       ?_Color@?$_Tree_comp_alloc@V?$_Tmap_traits@GPEAUtagPARTIMG@@U?$less@G@std@@V?$allocator@U?$pair@$$CBGPEAUtagPARTIMG@@@std@@@3@$0A@@std@@@std@@SAAEADPEAU?$_Tree_node@U?$pair@$$CBGPEAUtagPARTIMG@@@std@@PEAX@2@@Z 000000018004d960 f i ManagerLib:PartImgLogic.obj
 0001:0004c960       ?_Color@?$_Tree_comp_alloc@V?$_Tmap_traits@IPEAUtagOSIMG@@U?$less@I@std@@V?$allocator@U?$pair@$$CBIPEAUtagOSIMG@@@std@@@3@$0A@@std@@@std@@SAAEADPEAU?$_Tree_node@U?$pair@$$CBIPEAUtagOSIMG@@@std@@PEAX@2@@Z 000000018004d960 f i ManagerLib:OsImgLogic.obj
 0001:0004c960       ?_Color@?$_Tree_comp_alloc@V?$_Tmap_traits@IUtagUSERLIST_ITEM@@U?$less@I@std@@V?$allocator@U?$pair@$$CBIUtagUSERLIST_ITEM@@@std@@@3@$0A@@std@@@std@@SAAEADPEAU?$_Tree_node@U?$pair@$$CBIUtagUSERLIST_ITEM@@@std@@PEAX@2@@Z 000000018004d960 f i ManagerLib:UserLogic.obj
 0001:0004c960       ?_Color@?$_Tree_comp_alloc@V?$_Tmap_traits@IW4LogicType@@U?$less@I@std@@V?$allocator@U?$pair@$$CBIW4LogicType@@@std@@@3@$0A@@std@@@std@@SAAEADPEAU?$_Tree_node@U?$pair@$$CBIW4LogicType@@@std@@PEAX@2@@Z 000000018004d960 f i ManagerLib:LogicManager.obj
 0001:0004c960       ?_Color@?$_Tree_comp_alloc@V?$_Tmap_traits@IPEAUtagREQUEST_EX@@U?$less@I@std@@V?$allocator@U?$pair@$$CBIPEAUtagREQUEST_EX@@@std@@@3@$0A@@std@@@std@@SAAEADPEAU?$_Tree_node@U?$pair@$$CBIPEAUtagREQUEST_EX@@@std@@PEAX@2@@Z 000000018004d960 f i ManagerLib:SessionBuildPartImgCnt.obj
 0001:0004c9a0       ?_Compare@?$_Tree@V?$_Tmap_traits@HPEAVPacketHandler@@U?$less@H@std@@V?$allocator@U?$pair@$$CBHPEAVPacketHandler@@@std@@@3@$0A@@std@@@std@@IEBA_NAEBH0@Z 000000018004d9a0 f i ManagerLib:PacketHandlers.obj
 0001:0004ca00       ?_Construct@?$_Tree_comp_alloc@V?$_Tmap_traits@HPEAVPacketHandler@@U?$less@H@std@@V?$allocator@U?$pair@$$CBHPEAVPacketHandler@@@std@@@3@$0A@@std@@@std@@QEAAXXZ 000000018004da00 f i ManagerLib:PacketHandlers.obj
 0001:0004ca60       ?_Destroy_if_not_nil@?$_Tree@V?$_Tmap_traits@HPEAVPacketHandler@@U?$less@H@std@@V?$allocator@U?$pair@$$CBHPEAVPacketHandler@@@std@@@3@$0A@@std@@@std@@IEAAXPEAU?$_Tree_node@U?$pair@$$CBHPEAVPacketHandler@@@std@@PEAX@2@@Z 000000018004da60 f i ManagerLib:PacketHandlers.obj
 0001:0004cb00       ?__autoclassinit2@MyAutoLock@@QEAAX_K@Z 000000018004db00 f i ManagerLib:DiskLogic.obj
 0001:0004cb00       ?__autoclassinit2@?$_Tree_iterator@V?$_Tree_val@U?$_Tree_simple_types@U?$pair@$$CBIUtagUSERLIST_ITEM@@@std@@@std@@@std@@@std@@QEAAX_K@Z 000000018004db00 f i ManagerLib:UserLogic.obj
 0001:0004cb00       ?__autoclassinit2@?$map@HPEAVPacketHandler@@U?$less@H@std@@V?$allocator@U?$pair@$$CBHPEAVPacketHandler@@@std@@@3@@std@@QEAAX_K@Z 000000018004db00 f i ManagerLib:PacketHandlers.obj
 0001:0004cb00       ?__autoclassinit2@?$_Tree_const_iterator@V?$_Tree_val@U?$_Tree_simple_types@U?$pair@$$CBGPEAUtagPARTIMG@@@std@@@std@@@std@@@std@@QEAAX_K@Z 000000018004db00 f i ManagerLib:PartImgLogic.obj
 0001:0004cb00       ?__autoclassinit2@CSessionPartImgReadDisk@@QEAAX_K@Z 000000018004db00 f i ManagerLib:SessionBuildPartImgCnt.obj
 0001:0004cb00       ?__autoclassinit2@?$_Tree_iterator@V?$_Tree_val@U?$_Tree_simple_types@U?$pair@$$CBIW4LogicType@@@std@@@std@@@std@@@std@@QEAAX_K@Z 000000018004db00 f i ManagerLib:LogicManager.obj
 0001:0004cb00       ?__autoclassinit2@COsImgLogic@@QEAAX_K@Z 000000018004db00 f i ManagerLib:LogicManager.obj
 0001:0004cb00       ?__autoclassinit2@?$_Tree_const_iterator@V?$_Tree_val@U?$_Tree_simple_types@U?$pair@$$CBIUtagUSERLIST_ITEM@@@std@@@std@@@std@@@std@@QEAAX_K@Z 000000018004db00 f i ManagerLib:UserLogic.obj
 0001:0004cb00       ?__autoclassinit2@CPartImgLogic@@QEAAX_K@Z 000000018004db00 f i ManagerLib:LogicManager.obj
 0001:0004cb00       ?__autoclassinit2@CSessionBuildPartImgCnt@@QEAAX_K@Z 000000018004db00 f i ManagerLib:SessionEndMag.obj
 0001:0004cb00       ?__autoclassinit2@CSessionCmdChannel@@QEAAX_K@Z 000000018004db00 f i ManagerLib:SessionEndMag.obj
 0001:0004cb00       ?__autoclassinit2@CDiskRWDrv@@QEAAX_K@Z 000000018004db00 f i ManagerLib:WFBSInstall.obj
 0001:0004cb00       ?__autoclassinit2@MyEvent@@QEAAX_K@Z 000000018004db00 f i ManagerLib:UtilsFunction.obj
 0001:0004cb00       ?__autoclassinit2@CLogicManager@@QEAAX_K@Z 000000018004db00 f i ManagerLib:DirLogic.obj
 0001:0004cb00       ?__autoclassinit2@?$_Tree_const_iterator@V?$_Tree_val@U?$_Tree_simple_types@U?$pair@$$CBIPEAUtagGROUPINFO@@@std@@@std@@@std@@@std@@QEAAX_K@Z 000000018004db00 f i ManagerLib:GroupLogic.obj
 0001:0004cb00       ?__autoclassinit2@?$_Tree_const_iterator@V?$_Tree_val@U?$_Tree_simple_types@U?$pair@$$CBIPEAUtagMACHINEINFO@@@std@@@std@@@std@@@std@@QEAAX_K@Z 000000018004db00 f i ManagerLib:GroupLogic.obj
 0001:0004cb00       ?__autoclassinit2@?$_Tree_iterator@V?$_Tree_val@U?$_Tree_simple_types@U?$pair@$$CBIPEAUtagREQUEST_EX@@@std@@@std@@@std@@@std@@QEAAX_K@Z 000000018004db00 f i ManagerLib:SessionBuildPartImgCnt.obj
 0001:0004cb00       ?__autoclassinit2@CStopCloseMagThd@@QEAAX_K@Z 000000018004db00 f i ManagerLib:SessionBase.obj
 0001:0004cb00       ?__autoclassinit2@?$_Tree_iterator@V?$_Tree_val@U?$_Tree_simple_types@U?$pair@$$CBIPEAUtagGROUPINFO@@@std@@@std@@@std@@@std@@QEAAX_K@Z 000000018004db00 f i ManagerLib:GroupLogic.obj
 0001:0004cb00       ?__autoclassinit2@?$_Tree_const_iterator@V?$_Tree_val@U?$_Tree_simple_types@U?$pair@$$CBIPEAUtagDISKIMG@@@std@@@std@@@std@@@std@@QEAAX_K@Z 000000018004db00 f i ManagerLib:DiskLogic.obj
 0001:0004cb00       ?__autoclassinit2@CTcpConnectThd@@QEAAX_K@Z 000000018004db00 f i ManagerLib:TcpSocket.obj
 0001:0004cb00       ?__autoclassinit2@?$_Tree_iterator@V?$_Tree_val@U?$_Tree_simple_types@U?$pair@$$CBIPEAUtagDISKIMG@@@std@@@std@@@std@@@std@@QEAAX_K@Z 000000018004db00 f i ManagerLib:DiskLogic.obj
 0001:0004cb00       ?__autoclassinit2@CAutoSThdPtr@@QEAAX_K@Z 000000018004db00 f i ManagerLib:UtilsFunction.obj
 0001:0004cb00       ?__autoclassinit2@CSessionPartImgCompress@@QEAAX_K@Z 000000018004db00 f i ManagerLib:SessionBuildPartImgCnt.obj
 0001:0004cb00       ?__autoclassinit2@?$_Tree_iterator@V?$_Tree_val@U?$_Tree_simple_types@U?$pair@$$CBIPEAUtagOSIMG@@@std@@@std@@@std@@@std@@QEAAX_K@Z 000000018004db00 f i ManagerLib:OsImgLogic.obj
 0001:0004cb00       ?__autoclassinit2@?$_Tree_const_iterator@V?$_Tree_val@U?$_Tree_simple_types@U?$pair@$$CBIPEAUtagOSIMG@@@std@@@std@@@std@@@std@@QEAAX_K@Z 000000018004db00 f i ManagerLib:OsImgLogic.obj
 0001:0004cb00       ?__autoclassinit2@COSInfoGet@@QEAAX_K@Z 000000018004db00 f i ManagerLib:UtilsFunction.obj
 0001:0004cb00       ?__autoclassinit2@?$_Tree_iterator@V?$_Tree_val@U?$_Tree_simple_types@U?$pair@$$CBHPEAVPacketHandler@@@std@@@std@@@std@@@std@@QEAAX_K@Z 000000018004db00 f i ManagerLib:PacketHandlers.obj
 0001:0004cb00       ?__autoclassinit2@?$_Tree_const_iterator@V?$_Tree_val@U?$_Tree_simple_types@U?$pair@$$CBIPEAUtagREQUEST_EX@@@std@@@std@@@std@@@std@@QEAAX_K@Z 000000018004db00 f i ManagerLib:SessionBuildPartImgCnt.obj
 0001:0004cb00       ?__autoclassinit2@?$_Tree_iterator@V?$_Tree_val@U?$_Tree_simple_types@U?$pair@$$CBGPEAUtagPARTIMG@@@std@@@std@@@std@@@std@@QEAAX_K@Z 000000018004db00 f i ManagerLib:PartImgLogic.obj
 0001:0004cb00       ?__autoclassinit2@?$_Tree_const_iterator@V?$_Tree_val@U?$_Tree_simple_types@U?$pair@$$CBIW4LogicType@@@std@@@std@@@std@@@std@@QEAAX_K@Z 000000018004db00 f i ManagerLib:LogicManager.obj
 0001:0004cb00       ?__autoclassinit2@?$_Tree_iterator@V?$_Tree_val@U?$_Tree_simple_types@U?$pair@$$CBIPEAUtagMACHINEINFO@@@std@@@std@@@std@@@std@@QEAAX_K@Z 000000018004db00 f i ManagerLib:GroupLogic.obj
 0001:0004cb00       ?__autoclassinit2@CSessionPartImgSendBlocks@@QEAAX_K@Z 000000018004db00 f i ManagerLib:SessionBuildPartImgCnt.obj
 0001:0004cb00       ?__autoclassinit2@CUserLogic@@QEAAX_K@Z 000000018004db00 f i ManagerLib:LogicManager.obj
 0001:0004cb00       ?__autoclassinit2@CDiskInstall@@QEAAX_K@Z 000000018004db00 f i ManagerLib:PartImgLogic.obj
 0001:0004cb00       ?__autoclassinit2@CSessionEndMag@@QEAAX_K@Z 000000018004db00 f i ManagerLib:SessionEndMag.obj
 0001:0004cb00       ?__autoclassinit2@CGroupLogic@@QEAAX_K@Z 000000018004db00 f i ManagerLib:LogicManager.obj
 0001:0004cb50       ?begin@?$_Tree@V?$_Tmap_traits@HPEAVPacketHandler@@U?$less@H@std@@V?$allocator@U?$pair@$$CBHPEAVPacketHandler@@@std@@@3@$0A@@std@@@std@@QEAA?AV?$_Tree_iterator@V?$_Tree_val@U?$_Tree_simple_types@U?$pair@$$CBHPEAVPacketHandler@@@std@@@std@@@std@@@2@XZ 000000018004db50 f i ManagerLib:PacketHandlers.obj
 0001:0004cbe0       ?deallocate@?$_Wrap_alloc@V?$allocator@U?$_Tree_node@U?$pair@$$CBHPEAVPacketHandler@@@std@@PEAX@std@@@std@@@std@@QEAAXPEAU?$_Tree_node@U?$pair@$$CBHPEAVPacketHandler@@@std@@PEAX@2@_K@Z 000000018004dbe0 f i ManagerLib:PacketHandlers.obj
 0001:0004cbe0       ?deallocate@?$_Wrap_alloc@V?$allocator@U?$_Tree_node@U?$pair@$$CBGPEAUtagPARTIMG@@@std@@PEAX@std@@@std@@@std@@QEAAXPEAU?$_Tree_node@U?$pair@$$CBGPEAUtagPARTIMG@@@std@@PEAX@2@_K@Z 000000018004dbe0 f i ManagerLib:PartImgLogic.obj
 0001:0004cbe0       ?deallocate@?$_Wrap_alloc@V?$allocator@U?$_Tree_node@U?$pair@$$CBIPEAUtagDISKIMG@@@std@@PEAX@std@@@std@@@std@@QEAAXPEAU?$_Tree_node@U?$pair@$$CBIPEAUtagDISKIMG@@@std@@PEAX@2@_K@Z 000000018004dbe0 f i ManagerLib:DiskLogic.obj
 0001:0004cbe0       ?deallocate@?$_Wrap_alloc@V?$allocator@U?$_Tree_node@U?$pair@$$CBIPEAUtagGROUPINFO@@@std@@PEAX@std@@@std@@@std@@QEAAXPEAU?$_Tree_node@U?$pair@$$CBIPEAUtagGROUPINFO@@@std@@PEAX@2@_K@Z 000000018004dbe0 f i ManagerLib:GroupLogic.obj
 0001:0004cbe0       ?deallocate@?$_Wrap_alloc@V?$allocator@U?$_Tree_node@U?$pair@$$CBIPEAUtagOSIMG@@@std@@PEAX@std@@@std@@@std@@QEAAXPEAU?$_Tree_node@U?$pair@$$CBIPEAUtagOSIMG@@@std@@PEAX@2@_K@Z 000000018004dbe0 f i ManagerLib:OsImgLogic.obj
 0001:0004cbe0       ?deallocate@?$_Wrap_alloc@V?$allocator@U?$_Tree_node@U?$pair@$$CBIPEAUtagREQUEST_EX@@@std@@PEAX@std@@@std@@@std@@QEAAXPEAU?$_Tree_node@U?$pair@$$CBIPEAUtagREQUEST_EX@@@std@@PEAX@2@_K@Z 000000018004dbe0 f i ManagerLib:SessionBuildPartImgCnt.obj
 0001:0004cbe0       ?deallocate@?$_Wrap_alloc@V?$allocator@U?$_Tree_node@U?$pair@$$CBIPEAUtagMACHINEINFO@@@std@@PEAX@std@@@std@@@std@@QEAAXPEAU?$_Tree_node@U?$pair@$$CBIPEAUtagMACHINEINFO@@@std@@PEAX@2@_K@Z 000000018004dbe0 f i ManagerLib:GroupLogic.obj
 0001:0004cc40       ?end@?$_Tree@V?$_Tmap_traits@HPEAVPacketHandler@@U?$less@H@std@@V?$allocator@U?$pair@$$CBHPEAVPacketHandler@@@std@@@3@$0A@@std@@@std@@QEAA?AV?$_Tree_iterator@V?$_Tree_val@U?$_Tree_simple_types@U?$pair@$$CBHPEAVPacketHandler@@@std@@@std@@@std@@@2@XZ 000000018004dc40 f i ManagerLib:PacketHandlers.obj
 0001:0004ccd0       ?find@?$_Tree@V?$_Tmap_traits@HPEAVPacketHandler@@U?$less@H@std@@V?$allocator@U?$pair@$$CBHPEAVPacketHandler@@@std@@@3@$0A@@std@@@std@@QEAA?AV?$_Tree_iterator@V?$_Tree_val@U?$_Tree_simple_types@U?$pair@$$CBHPEAVPacketHandler@@@std@@@std@@@std@@@2@AEBH@Z 000000018004dcd0 f i ManagerLib:PacketHandlers.obj
 0001:0004ce40       ?lower_bound@?$_Tree@V?$_Tmap_traits@HPEAVPacketHandler@@U?$less@H@std@@V?$allocator@U?$pair@$$CBHPEAVPacketHandler@@@std@@@3@$0A@@std@@@std@@QEAA?AV?$_Tree_iterator@V?$_Tree_val@U?$_Tree_simple_types@U?$pair@$$CBHPEAVPacketHandler@@@std@@@std@@@std@@@2@AEBH@Z 000000018004de40 f i ManagerLib:PacketHandlers.obj
 0001:0004ced0       ?max_size@?$allocator_traits@V?$allocator@U?$_Tree_node@U?$pair@$$CBHPEAVPacketHandler@@@std@@PEAX@std@@@std@@@std@@SA_KAEBV?$allocator@U?$_Tree_node@U?$pair@$$CBHPEAVPacketHandler@@@std@@PEAX@std@@@2@@Z 000000018004ded0 f i ManagerLib:PacketHandlers.obj
 0001:0004ced0       ?max_size@?$allocator_traits@V?$allocator@U?$_Tree_node@U?$pair@$$CBIPEAUtagGROUPINFO@@@std@@PEAX@std@@@std@@@std@@SA_KAEBV?$allocator@U?$_Tree_node@U?$pair@$$CBIPEAUtagGROUPINFO@@@std@@PEAX@std@@@2@@Z 000000018004ded0 f i ManagerLib:GroupLogic.obj
 0001:0004ced0       ?max_size@?$allocator_traits@V?$allocator@U?$_Tree_node@U?$pair@$$CBGPEAUtagPARTIMG@@@std@@PEAX@std@@@std@@@std@@SA_KAEBV?$allocator@U?$_Tree_node@U?$pair@$$CBGPEAUtagPARTIMG@@@std@@PEAX@std@@@2@@Z 000000018004ded0 f i ManagerLib:PartImgLogic.obj
 0001:0004ced0       ?max_size@?$allocator_traits@V?$allocator@U?$_Tree_node@U?$pair@$$CBIPEAUtagDISKIMG@@@std@@PEAX@std@@@std@@@std@@SA_KAEBV?$allocator@U?$_Tree_node@U?$pair@$$CBIPEAUtagDISKIMG@@@std@@PEAX@std@@@2@@Z 000000018004ded0 f i ManagerLib:DiskLogic.obj
 0001:0004ced0       ?max_size@?$allocator_traits@V?$allocator@U?$_Tree_node@U?$pair@$$CBIPEAUtagREQUEST_EX@@@std@@PEAX@std@@@std@@@std@@SA_KAEBV?$allocator@U?$_Tree_node@U?$pair@$$CBIPEAUtagREQUEST_EX@@@std@@PEAX@std@@@2@@Z 000000018004ded0 f i ManagerLib:SessionBuildPartImgCnt.obj
 0001:0004ced0       ?max_size@?$allocator_traits@V?$allocator@U?$_Tree_node@U?$pair@$$CBIPEAUtagOSIMG@@@std@@PEAX@std@@@std@@@std@@SA_KAEBV?$allocator@U?$_Tree_node@U?$pair@$$CBIPEAUtagOSIMG@@@std@@PEAX@std@@@2@@Z 000000018004ded0 f i ManagerLib:OsImgLogic.obj
 0001:0004ced0       ?max_size@?$allocator_traits@V?$allocator@U?$_Tree_node@U?$pair@$$CBIPEAUtagMACHINEINFO@@@std@@PEAX@std@@@std@@@std@@SA_KAEBV?$allocator@U?$_Tree_node@U?$pair@$$CBIPEAUtagMACHINEINFO@@@std@@PEAX@std@@@2@@Z 000000018004ded0 f i ManagerLib:GroupLogic.obj
 0001:0004cf10       ??0PacketHandler@@QEAA@H_N@Z 000000018004df10 f   ManagerLib:PacketHandler.obj
 0001:0004cf70       ??0?$CLogicBase@VCSessionEndMag@@@@QEAA@XZ 000000018004df70 f i ManagerLib:SessionEndMag.obj
 0001:0004cfd0       ??0?$CPacketGateBaseTemplate@VCSessionEndMag@@@@QEAA@XZ 000000018004dfd0 f i ManagerLib:SessionEndMag.obj
 0001:0004d0c0       ??0?$KSingleton@VCSessionEndMag@@@Patterns@System@@IEAA@XZ 000000018004e0c0 f i ManagerLib:SessionEndMag.obj
 0001:0004d110       ??0CSessionEndMag@@QEAA@XZ 000000018004e110 f   ManagerLib:SessionEndMag.obj
 0001:0004e6d0       ??0CSockAddr@@QEAA@IG@Z    000000018004f6d0 f i ManagerLib:SessionEndMag.obj
 0001:0004e760       ??0CSockAddr@@QEAA@PEBDG@Z 000000018004f760 f i ManagerLib:SessionEndMag.obj
 0001:0004e7f0       ??0CSockAddr@@QEAA@XZ      000000018004f7f0 f i ManagerLib:SessionEndMag.obj
 0001:0004e860       ??0TcpSocket@@QEAA@XZ      000000018004f860 f i ManagerLib:SessionEndMag.obj
 0001:0004e8c0       ??1?$CLogicBase@VCSessionEndMag@@@@QEAA@XZ 000000018004f8c0 f i ManagerLib:SessionEndMag.obj
 0001:0004e910       ??1?$CPacketGateBaseTemplate@VCSessionEndMag@@@@UEAA@XZ 000000018004f910 f i ManagerLib:SessionEndMag.obj
 0001:0004e980       ??1?$KSingleton@VCSessionEndMag@@@Patterns@System@@IEAA@XZ 000000018004f980 f i ManagerLib:SessionEndMag.obj
 0001:0004e9c0       ??1CSessionEndMag@@UEAA@XZ 000000018004f9c0 f   ManagerLib:SessionEndMag.obj
 0001:0004ea50       ??_ECSessionEndMag@@WBCDA@EAAPEAXI@Z 000000018004fa50 f i ManagerLib:SessionEndMag.obj
 0001:0004ea60       ??_E?$CPacketGateBaseTemplate@VCSessionEndMag@@@@UEAAPEAXI@Z 000000018004fa60 f i ManagerLib:SessionEndMag.obj
 0001:0004ea60       ??_G?$CPacketGateBaseTemplate@VCSessionEndMag@@@@UEAAPEAXI@Z 000000018004fa60 f i ManagerLib:SessionEndMag.obj
 0001:0004ead0       ??_GCAutoSThdPtr@@QEAAPEAXI@Z 000000018004fad0 f i ManagerLib:SessionEndMag.obj
 0001:0004eb40       ??_GCSessionEndMag@@UEAAPEAXI@Z 000000018004fb40 f i ManagerLib:SessionEndMag.obj
 0001:0004eb40       ??_ECSessionEndMag@@UEAAPEAXI@Z 000000018004fb40 f i ManagerLib:SessionEndMag.obj
 0001:0004ebb0       ?BuildMagCmdChannel@@YAJXZ 000000018004fbb0 f   ManagerLib:SessionEndMag.obj
 0001:0004ec10       ?BuildMagOperChannel@@YAJXZ 000000018004fc10 f   ManagerLib:SessionEndMag.obj
 0001:0004ec70       ?CloseAllEndSession@@YAXXZ 000000018004fc70 f   ManagerLib:SessionEndMag.obj
 0001:0004ed10       ?CloseSession@CSessionEndMag@@UEAAHXZ 000000018004fd10 f   ManagerLib:SessionEndMag.obj
 0001:0004ee20       ?GetCompletionRoutinesPtr@CRequestPktBufMag@@QEAAPEAP6AHPEAUtagREQUEST_EX@@@ZXZ 000000018004fe20 f i ManagerLib:SessionEndMag.obj
 0001:0004ee60       ?GetMagPublicKey@CSessionEndMag@@AEAAJ_K@Z 000000018004fe60 f   ManagerLib:SessionEndMag.obj
 0001:0004f050       ?HandldRequestBase@CSessionEndMag@@IEAAJGGPEADH0PEAHI@Z 0000000180050050 f   ManagerLib:SessionEndMag.obj
 0001:0004f4b0       ?HandleAddMagDir@CSessionEndMag@@IEAAHPEAUtagREQUEST_EX@@@Z 00000001800504b0 f   ManagerLib:SessionEndMag.obj
 0001:0004f5b0       ?HandleAddMagDirOS@CSessionEndMag@@IEAAHPEAUtagREQUEST_EX@@@Z 00000001800505b0 f   ManagerLib:SessionEndMag.obj
 0001:0004f6b0       ?HandleAddUpLoadPartImgToken@CSessionEndMag@@IEAAHPEAUtagREQUEST_EX@@@Z 00000001800506b0 f   ManagerLib:SessionEndMag.obj
 0001:0004f7b0       ?HandleAddUserItem@CSessionEndMag@@IEAAHPEAUtagREQUEST_EX@@@Z 00000001800507b0 f   ManagerLib:SessionEndMag.obj
 0001:0004f8b0       ?HandleBuildDiskImg@CSessionEndMag@@IEAAHPEAUtagREQUEST_EX@@@Z 00000001800508b0 f   ManagerLib:SessionEndMag.obj
 0001:0004f9b0       ?HandleBuildMagCmdChannel@CSessionEndMag@@IEAAHPEAUtagREQUEST_EX@@@Z 00000001800509b0 f   ManagerLib:SessionEndMag.obj
 0001:0004fe30       ?HandleBuildMagOperChannel@CSessionEndMag@@IEAAHPEAUtagREQUEST_EX@@@Z 0000000180050e30 f   ManagerLib:SessionEndMag.obj
 0001:00050080       ?HandleBuildPartImg@CSessionEndMag@@IEAAHPEAUtagREQUEST_EX@@@Z 0000000180051080 f   ManagerLib:SessionEndMag.obj
 0001:00050300       ?HandleCheckPwdUser@CSessionEndMag@@IEAAHPEAUtagREQUEST_EX@@@Z 0000000180051300 f   ManagerLib:SessionEndMag.obj
 0001:00050400       ?HandleCmdDeleteObject@CSessionEndMag@@IEAAHPEAUtagREQUEST_EX@@@Z 0000000180051400 f   ManagerLib:SessionEndMag.obj
 0001:00050510       ?HandleCmdUpdateGroupInfo@CSessionEndMag@@IEAAHPEAUtagREQUEST_EX@@@Z 0000000180051510 f   ManagerLib:SessionEndMag.obj
 0001:00050610       ?HandleCmdUpdateMachineInfo@CSessionEndMag@@IEAAHPEAUtagREQUEST_EX@@@Z 0000000180051610 f   ManagerLib:SessionEndMag.obj
 0001:00050710       ?HandleCopyOSImg@CSessionEndMag@@IEAAHPEAUtagREQUEST_EX@@@Z 0000000180051710 f   ManagerLib:SessionEndMag.obj
 0001:00050810       ?HandleCreateOsPartInfo@CSessionEndMag@@IEAAHPEAUtagREQUEST_EX@@@Z 0000000180051810 f   ManagerLib:SessionEndMag.obj
 0001:00050910       ?HandleDefault@CSessionEndMag@@IEAAHPEAUtagREQUEST_EX@@@Z 0000000180051910 f   ManagerLib:SessionEndMag.obj
 0001:00050a40       ?HandleDelMagDir@CSessionEndMag@@IEAAHPEAUtagREQUEST_EX@@@Z 0000000180051a40 f   ManagerLib:SessionEndMag.obj
 0001:00050b40       ?HandleDelMagDirOS@CSessionEndMag@@IEAAHPEAUtagREQUEST_EX@@@Z 0000000180051b40 f   ManagerLib:SessionEndMag.obj
 0001:00050c40       ?HandleDelUpLoadPartImgToken@CSessionEndMag@@IEAAHPEAUtagREQUEST_EX@@@Z 0000000180051c40 f   ManagerLib:SessionEndMag.obj
 0001:00050d40       ?HandleDelUserItem@CSessionEndMag@@IEAAHPEAUtagREQUEST_EX@@@Z 0000000180051d40 f   ManagerLib:SessionEndMag.obj
 0001:00050e40       ?HandleDhcpAgentRequest@CSessionEndMag@@IEAAHPEAUtagREQUEST_EX@@@Z 0000000180051e40 f   ManagerLib:SessionEndMag.obj
 0001:00050f50       ?HandleFindDirItem@CSessionEndMag@@IEAAHPEAUtagREQUEST_EX@@@Z 0000000180051f50 f   ManagerLib:SessionEndMag.obj
 0001:00051050       ?HandleFindDirItemOs@CSessionEndMag@@IEAAHPEAUtagREQUEST_EX@@@Z 0000000180052050 f   ManagerLib:SessionEndMag.obj
 0001:00051150       ?HandleGetAllDiskImg@CSessionEndMag@@IEAAHPEAUtagREQUEST_EX@@@Z 0000000180052150 f   ManagerLib:SessionEndMag.obj
 0001:00051220       ?HandleGetAllOsIMG@CSessionEndMag@@IEAAHPEAUtagREQUEST_EX@@@Z 0000000180052220 f   ManagerLib:SessionEndMag.obj
 0001:000512f0       ?HandleGetAllPartImgInfo@CSessionEndMag@@IEAAHPEAUtagREQUEST_EX@@@Z 00000001800522f0 f   ManagerLib:SessionEndMag.obj
 0001:000513c0       ?HandleGetAllVerInfos@CSessionEndMag@@IEAAHPEAUtagREQUEST_EX@@@Z 00000001800523c0 f   ManagerLib:SessionEndMag.obj
 0001:000514c0       ?HandleGetBSSvrCfg@CSessionEndMag@@IEAAHPEAUtagREQUEST_EX@@@Z 00000001800524c0 f   ManagerLib:SessionEndMag.obj
 0001:000515c0       ?HandleGetBroadCastSender@CSessionEndMag@@IEAAHPEAUtagREQUEST_EX@@@Z 00000001800525c0 f   ManagerLib:SessionEndMag.obj
 0001:000516c0       ?HandleGetInfoFromBSSvrMagSession@CSessionEndMag@@IEAAHPEAUtagREQUEST_EX@@@Z 00000001800526c0 f   ManagerLib:SessionEndMag.obj
 0001:000517c0       ?HandleGetInfoFromBSSvrOnOfflineSession@CSessionEndMag@@IEAAHPEAUtagREQUEST_EX@@@Z 00000001800527c0 f   ManagerLib:SessionEndMag.obj
 0001:000518c0       ?HandleGetMagDir@CSessionEndMag@@IEAAHPEAUtagREQUEST_EX@@@Z 00000001800528c0 f   ManagerLib:SessionEndMag.obj
 0001:000519c0       ?HandleGetMagDirOS@CSessionEndMag@@IEAAHPEAUtagREQUEST_EX@@@Z 00000001800529c0 f   ManagerLib:SessionEndMag.obj
 0001:00051ac0       ?HandleNotifyGetAllUserItem@CSessionEndMag@@IEAAHPEAUtagREQUEST_EX@@@Z 0000000180052ac0 f   ManagerLib:SessionEndMag.obj
 0001:00051bc0       ?HandleRequest@CSessionEndMag@@MEAAHPEAUtagREQUEST_EX@@@Z 0000000180052bc0 f   ManagerLib:SessionEndMag.obj
 0001:00051c00       ?HandleSetBroadCastInfo@CSessionEndMag@@IEAAHPEAUtagREQUEST_EX@@@Z 0000000180052c00 f   ManagerLib:SessionEndMag.obj
 0001:00051d00       ?HandleSetNewNofifyCmdEx@CSessionEndMag@@IEAAHPEAUtagREQUEST_EX@@@Z 0000000180052d00 f   ManagerLib:SessionEndMag.obj
 0001:00051e60       ?HandleUpdateDiskImg@CSessionEndMag@@IEAAHPEAUtagREQUEST_EX@@@Z 0000000180052e60 f   ManagerLib:SessionEndMag.obj
 0001:00051f60       ?HandleUpdateMagDir@CSessionEndMag@@IEAAHPEAUtagREQUEST_EX@@@Z 0000000180052f60 f   ManagerLib:SessionEndMag.obj
 0001:00052060       ?HandleUpdateMagDirOS@CSessionEndMag@@IEAAHPEAUtagREQUEST_EX@@@Z 0000000180053060 f   ManagerLib:SessionEndMag.obj
 0001:00052160       ?HandleUpdateOsImg@CSessionEndMag@@IEAAHPEAUtagREQUEST_EX@@@Z 0000000180053160 f   ManagerLib:SessionEndMag.obj
 0001:00052260       ?HandleUpdatePimgInfo@CSessionEndMag@@IEAAHPEAUtagREQUEST_EX@@@Z 0000000180053260 f   ManagerLib:SessionEndMag.obj
 0001:00052360       ?HandleUpdateUserItem@CSessionEndMag@@IEAAHPEAUtagREQUEST_EX@@@Z 0000000180053360 f   ManagerLib:SessionEndMag.obj
 0001:00052460       ?IPAddr@CSockAddr@@QEBAIXZ 0000000180053460 f i ManagerLib:SessionEndMag.obj
 0001:000524b0       ?Initialize@?$CLogicBase@VCLoginLogic@@@@UEAAHXZ 00000001800534b0 f i ManagerLib:LoginLogic.obj
 0001:000524b0       ?Initialize@?$CLogicBase@VCGroupLogic@@@@UEAAHXZ 00000001800534b0 f i ManagerLib:GroupLogic.obj
 0001:000524b0       ?Initialize@?$CLogicBase@VCDirLogic@@@@UEAAHXZ 00000001800534b0 f i ManagerLib:DirLogic.obj
 0001:000524b0       ?Initialize@?$CLogicBase@VCOsImgLogic@@@@UEAAHXZ 00000001800534b0 f i ManagerLib:OsImgLogic.obj
 0001:000524b0       ?Initialize@?$CLogicBase@VCSessionEndMag@@@@UEAAHXZ 00000001800534b0 f i ManagerLib:SessionEndMag.obj
 0001:000524b0       ?Initialize@?$CLogicBase@VCDiskLogic@@@@UEAAHXZ 00000001800534b0 f i ManagerLib:DiskLogic.obj
 0001:000524b0       ?Initialize@?$CLogicBase@VCSessionCmdChannel@@@@UEAAHXZ 00000001800534b0 f i ManagerLib:SessionCmdChannel.obj
 0001:000524b0       ?Initialize@?$CLogicBase@VCPartImgLogic@@@@UEAAHXZ 00000001800534b0 f i ManagerLib:PartImgLogic.obj
 0001:000524b0       ?Initialize@?$CLogicBase@VCUserLogic@@@@UEAAHXZ 00000001800534b0 f i ManagerLib:UserLogic.obj
 0001:000524f0       ?OpenSessionEndMag@@YAJPEADG0G@Z 00000001800534f0 f   ManagerLib:SessionEndMag.obj
 0001:00052690       ?OpenSessionEndMag@CSessionEndMag@@QEAAJPEADG0G@Z 0000000180053690 f   ManagerLib:SessionEndMag.obj
 0001:000527d0       ?Process@?$CPacketGateBaseTemplate@VCSessionEndMag@@@@UEAAHHPEAUtagREQUEST_EX@@@Z 00000001800537d0 f i ManagerLib:SessionEndMag.obj
 0001:00052920       ?RecvRequestFromPeer@CSessionEndMag@@AEAAJPEAUtagREQUEST_EX@@I@Z 0000000180053920 f   ManagerLib:SessionEndMag.obj
 0001:00052ab0       ?SetPartUpdateInfo@@YAHPEAUtagPARTUPDATE_INFO@@@Z 0000000180053ab0 f   ManagerLib:SessionEndMag.obj
 0001:00052b50       ?StopSession@CSessionEndMag@@UEAAXXZ 0000000180053b50 f   ManagerLib:SessionEndMag.obj
 0001:00052b50       ?StopSession@CSessionPartImgCompress@@UEAAXXZ 0000000180053b50 f   ManagerLib:SessionBuildPartImgCnt.obj
 0001:00052b50       ?StopSession@CSessionPartImgSendBlocks@@UEAAXXZ 0000000180053b50 f   ManagerLib:SessionBuildPartImgCnt.obj
 0001:00052b90       ?ThreadProcMain@CSessionEndMag@@MEAAXXZ 0000000180053b90 f   ManagerLib:SessionEndMag.obj
 0001:00052e70       ??$?0AEAGAEAPEAUtagPARTIMG@@X$0A@@?$pair@$$CBGPEAUtagPARTIMG@@@std@@QEAA@AEAGAEAPEAUtagPARTIMG@@@Z 0000000180053e70 f i ManagerLib:PartImgLogic.obj
 0001:00052ef0       ??$?0AEBU?$less@G@std@@U_Zero_then_variadic_args_t@1@@?$_Compressed_pair@U?$less@G@std@@V?$_Compressed_pair@U?$_Wrap_alloc@V?$allocator@U?$_Tree_node@U?$pair@$$CBGPEAUtagPARTIMG@@@std@@PEAX@std@@@std@@@std@@V?$_Tree_val@U?$_Tree_simple_types@U?$pair@$$CBGPEAUtagPARTIMG@@@std@@@std@@@2@$00@2@$00@std@@QEAA@U_One_then_variadic_args_t@1@AEBU?$less@G@1@$$QEAU_Zero_then_variadic_args_t@1@@Z 0000000180053ef0 f i ManagerLib:PartImgLogic.obj
 0001:00052ef0       ??$?0AEBU?$less@H@std@@U_Zero_then_variadic_args_t@1@@?$_Compressed_pair@U?$less@H@std@@V?$_Compressed_pair@U?$_Wrap_alloc@V?$allocator@U?$_Tree_node@U?$pair@$$CBHPEAVPacketHandler@@@std@@PEAX@std@@@std@@@std@@V?$_Tree_val@U?$_Tree_simple_types@U?$pair@$$CBHPEAVPacketHandler@@@std@@@std@@@2@$00@2@$00@std@@QEAA@U_One_then_variadic_args_t@1@AEBU?$less@H@1@$$QEAU_Zero_then_variadic_args_t@1@@Z 0000000180053ef0 f i ManagerLib:PacketHandlers.obj
 0001:00052f60       ??$_Buynode@U?$pair@$$CBGPEAUtagPARTIMG@@@std@@@?$_Tree_comp_alloc@V?$_Tmap_traits@GPEAUtagPARTIMG@@U?$less@G@std@@V?$allocator@U?$pair@$$CBGPEAUtagPARTIMG@@@std@@@3@$0A@@std@@@std@@QEAAPEAU?$_Tree_node@U?$pair@$$CBGPEAUtagPARTIMG@@@std@@PEAX@1@$$QEAU?$pair@$$CBGPEAUtagPARTIMG@@@1@@Z 0000000180053f60 f i ManagerLib:PartImgLogic.obj
 0001:00053040       ??$_Buynode_if_nil@U?$pair@$$CBGPEAUtagPARTIMG@@@std@@@?$_Tree@V?$_Tmap_traits@GPEAUtagPARTIMG@@U?$less@G@std@@V?$allocator@U?$pair@$$CBGPEAUtagPARTIMG@@@std@@@3@$0A@@std@@@std@@IEAAPEAU?$_Tree_node@U?$pair@$$CBGPEAUtagPARTIMG@@@std@@PEAX@1@U_Nil@1@$$QEAU?$pair@$$CBGPEAUtagPARTIMG@@@1@@Z 0000000180054040 f i ManagerLib:PartImgLogic.obj
 0001:000530a0       ??$_Insert_at@U?$pair@$$CBGPEAUtagPARTIMG@@@std@@U_Nil@2@@?$_Tree@V?$_Tmap_traits@GPEAUtagPARTIMG@@U?$less@G@std@@V?$allocator@U?$pair@$$CBGPEAUtagPARTIMG@@@std@@@3@$0A@@std@@@std@@IEAA?AV?$_Tree_iterator@V?$_Tree_val@U?$_Tree_simple_types@U?$pair@$$CBGPEAUtagPARTIMG@@@std@@@std@@@std@@@1@_NPEAU?$_Tree_node@U?$pair@$$CBGPEAUtagPARTIMG@@@std@@PEAX@1@$$QEAU?$pair@$$CBGPEAUtagPARTIMG@@@1@U_Nil@1@@Z 00000001800540a0 f i ManagerLib:PartImgLogic.obj
 0001:00053550       ??$_Insert_nohint@U?$pair@$$CBGPEAUtagPARTIMG@@@std@@U_Nil@2@@?$_Tree@V?$_Tmap_traits@GPEAUtagPARTIMG@@U?$less@G@std@@V?$allocator@U?$pair@$$CBGPEAUtagPARTIMG@@@std@@@3@$0A@@std@@@std@@IEAA?AU?$pair@V?$_Tree_iterator@V?$_Tree_val@U?$_Tree_simple_types@U?$pair@$$CBGPEAUtagPARTIMG@@@std@@@std@@@std@@@std@@_N@1@_N$$QEAU?$pair@$$CBGPEAUtagPARTIMG@@@1@U_Nil@1@@Z 0000000180054550 f i ManagerLib:PartImgLogic.obj
 0001:00053a00       ??$_Lbound@G@?$_Tree@V?$_Tmap_traits@GPEAUtagPARTIMG@@U?$less@G@std@@V?$allocator@U?$pair@$$CBGPEAUtagPARTIMG@@@std@@@3@$0A@@std@@@std@@IEBAPEAU?$_Tree_node@U?$pair@$$CBGPEAUtagPARTIMG@@@std@@PEAX@1@AEBG@Z 0000000180054a00 f i ManagerLib:PartImgLogic.obj
 0001:00053ad0       ??$construct@U?$pair@$$CBIPEAUtagDISKIMG@@@std@@U12@@?$allocator@U?$_Tree_node@U?$pair@$$CBIPEAUtagDISKIMG@@@std@@PEAX@std@@@std@@QEAAXPEAU?$pair@$$CBIPEAUtagDISKIMG@@@1@$$QEAU21@@Z 0000000180054ad0 f i ManagerLib:DiskLogic.obj
 0001:00053ad0       ??$construct@U?$pair@$$CBGPEAUtagPARTIMG@@@std@@U12@@?$allocator@U?$_Tree_node@U?$pair@$$CBGPEAUtagPARTIMG@@@std@@PEAX@std@@@std@@QEAAXPEAU?$pair@$$CBGPEAUtagPARTIMG@@@1@$$QEAU21@@Z 0000000180054ad0 f i ManagerLib:PartImgLogic.obj
 0001:00053ad0       ??$construct@U?$pair@$$CBIPEAUtagOSIMG@@@std@@U12@@?$allocator@U?$_Tree_node@U?$pair@$$CBIPEAUtagOSIMG@@@std@@PEAX@std@@@std@@QEAAXPEAU?$pair@$$CBIPEAUtagOSIMG@@@1@$$QEAU21@@Z 0000000180054ad0 f i ManagerLib:OsImgLogic.obj
 0001:00053ad0       ??$construct@U?$pair@$$CBIPEAUtagMACHINEINFO@@@std@@U12@@?$allocator@U?$_Tree_node@U?$pair@$$CBIPEAUtagMACHINEINFO@@@std@@PEAX@std@@@std@@QEAAXPEAU?$pair@$$CBIPEAUtagMACHINEINFO@@@1@$$QEAU21@@Z 0000000180054ad0 f i ManagerLib:GroupLogic.obj
 0001:00053ad0       ??$construct@U?$pair@$$CBIPEAUtagGROUPINFO@@@std@@U12@@?$allocator@U?$_Tree_node@U?$pair@$$CBIPEAUtagGROUPINFO@@@std@@PEAX@std@@@std@@QEAAXPEAU?$pair@$$CBIPEAUtagGROUPINFO@@@1@$$QEAU21@@Z 0000000180054ad0 f i ManagerLib:GroupLogic.obj
 0001:00053ad0       ??$construct@U?$pair@$$CBIPEAUtagREQUEST_EX@@@std@@U12@@?$allocator@U?$_Tree_node@U?$pair@$$CBIPEAUtagREQUEST_EX@@@std@@PEAX@std@@@std@@QEAAXPEAU?$pair@$$CBIPEAUtagREQUEST_EX@@@1@$$QEAU21@@Z 0000000180054ad0 f i ManagerLib:SessionBuildPartImgCnt.obj
 0001:00053b70       ??$construct@U?$pair@$$CBGPEAUtagPARTIMG@@@std@@U12@@?$allocator_traits@V?$allocator@U?$_Tree_node@U?$pair@$$CBGPEAUtagPARTIMG@@@std@@PEAX@std@@@std@@@std@@SAXAEAV?$allocator@U?$_Tree_node@U?$pair@$$CBGPEAUtagPARTIMG@@@std@@PEAX@std@@@1@PEAU?$pair@$$CBGPEAUtagPARTIMG@@@1@$$QEAU31@@Z 0000000180054b70 f i ManagerLib:PartImgLogic.obj
 0001:00053b70       ??$construct@U?$pair@$$CBIPEAUtagGROUPINFO@@@std@@U12@@?$allocator_traits@V?$allocator@U?$_Tree_node@U?$pair@$$CBIPEAUtagGROUPINFO@@@std@@PEAX@std@@@std@@@std@@SAXAEAV?$allocator@U?$_Tree_node@U?$pair@$$CBIPEAUtagGROUPINFO@@@std@@PEAX@std@@@1@PEAU?$pair@$$CBIPEAUtagGROUPINFO@@@1@$$QEAU31@@Z 0000000180054b70 f i ManagerLib:GroupLogic.obj
 0001:00053b70       ??$construct@U?$pair@$$CBIPEAUtagMACHINEINFO@@@std@@U12@@?$allocator_traits@V?$allocator@U?$_Tree_node@U?$pair@$$CBIPEAUtagMACHINEINFO@@@std@@PEAX@std@@@std@@@std@@SAXAEAV?$allocator@U?$_Tree_node@U?$pair@$$CBIPEAUtagMACHINEINFO@@@std@@PEAX@std@@@1@PEAU?$pair@$$CBIPEAUtagMACHINEINFO@@@1@$$QEAU31@@Z 0000000180054b70 f i ManagerLib:GroupLogic.obj
 0001:00053b70       ??$construct@U?$pair@$$CBIPEAUtagDISKIMG@@@std@@U12@@?$allocator_traits@V?$allocator@U?$_Tree_node@U?$pair@$$CBIPEAUtagDISKIMG@@@std@@PEAX@std@@@std@@@std@@SAXAEAV?$allocator@U?$_Tree_node@U?$pair@$$CBIPEAUtagDISKIMG@@@std@@PEAX@std@@@1@PEAU?$pair@$$CBIPEAUtagDISKIMG@@@1@$$QEAU31@@Z 0000000180054b70 f i ManagerLib:DiskLogic.obj
 0001:00053b70       ??$construct@U?$pair@$$CBIPEAUtagOSIMG@@@std@@U12@@?$allocator_traits@V?$allocator@U?$_Tree_node@U?$pair@$$CBIPEAUtagOSIMG@@@std@@PEAX@std@@@std@@@std@@SAXAEAV?$allocator@U?$_Tree_node@U?$pair@$$CBIPEAUtagOSIMG@@@std@@PEAX@std@@@1@PEAU?$pair@$$CBIPEAUtagOSIMG@@@1@$$QEAU31@@Z 0000000180054b70 f i ManagerLib:OsImgLogic.obj
 0001:00053b70       ??$construct@U?$pair@$$CBIPEAUtagREQUEST_EX@@@std@@U12@@?$allocator_traits@V?$allocator@U?$_Tree_node@U?$pair@$$CBIPEAUtagREQUEST_EX@@@std@@PEAX@std@@@std@@@std@@SAXAEAV?$allocator@U?$_Tree_node@U?$pair@$$CBIPEAUtagREQUEST_EX@@@std@@PEAX@std@@@1@PEAU?$pair@$$CBIPEAUtagREQUEST_EX@@@1@$$QEAU31@@Z 0000000180054b70 f i ManagerLib:SessionBuildPartImgCnt.obj
 0001:00053bd0       ??$insert@$0A@$0A@@?$_Tree@V?$_Tmap_traits@GPEAUtagPARTIMG@@U?$less@G@std@@V?$allocator@U?$pair@$$CBGPEAUtagPARTIMG@@@std@@@3@$0A@@std@@@std@@QEAA?AU?$pair@V?$_Tree_iterator@V?$_Tree_val@U?$_Tree_simple_types@U?$pair@$$CBGPEAUtagPARTIMG@@@std@@@std@@@std@@@std@@_N@1@$$QEAU?$pair@$$CBGPEAUtagPARTIMG@@@1@@Z 0000000180054bd0 f i ManagerLib:PartImgLogic.obj
 0001:00053c50       ??0?$CLogicBase@VCPartImgLogic@@@@QEAA@XZ 0000000180054c50 f i ManagerLib:PartImgLogic.obj
 0001:00053cb0       ??0?$CPacketGateBaseTemplate@VCPartImgLogic@@@@QEAA@XZ 0000000180054cb0 f i ManagerLib:PartImgLogic.obj
 0001:00053da0       ??0?$KSingleton@VCPartImgLogic@@@Patterns@System@@IEAA@XZ 0000000180054da0 f i ManagerLib:PartImgLogic.obj
 0001:00053df0       ??0?$_Tree@V?$_Tmap_traits@GPEAUtagPARTIMG@@U?$less@G@std@@V?$allocator@U?$pair@$$CBGPEAUtagPARTIMG@@@std@@@3@$0A@@std@@@std@@QEAA@AEBU?$less@G@1@@Z 0000000180054df0 f i ManagerLib:PartImgLogic.obj
 0001:00053e50       ??0?$_Tree_comp_alloc@V?$_Tmap_traits@GPEAUtagPARTIMG@@U?$less@G@std@@V?$allocator@U?$pair@$$CBGPEAUtagPARTIMG@@@std@@@3@$0A@@std@@@std@@QEAA@AEBU?$less@G@1@@Z 0000000180054e50 f i ManagerLib:PartImgLogic.obj
 0001:00053ec0       ??0?$_Tree_const_iterator@V?$_Tree_val@U?$_Tree_simple_types@U?$pair@$$CBIW4LogicType@@@std@@@std@@@std@@@std@@QEAA@PEAU?$_Tree_node@U?$pair@$$CBIW4LogicType@@@std@@PEAX@1@PEBV?$_Tree_val@U?$_Tree_simple_types@U?$pair@$$CBIW4LogicType@@@std@@@std@@@1@@Z 0000000180054ec0 f i ManagerLib:LogicManager.obj
 0001:00053ec0       ??0?$_Tree_const_iterator@V?$_Tree_val@U?$_Tree_simple_types@U?$pair@$$CBHPEAVPacketHandler@@@std@@@std@@@std@@@std@@QEAA@PEAU?$_Tree_node@U?$pair@$$CBHPEAVPacketHandler@@@std@@PEAX@1@PEBV?$_Tree_val@U?$_Tree_simple_types@U?$pair@$$CBHPEAVPacketHandler@@@std@@@std@@@1@@Z 0000000180054ec0 f i ManagerLib:PacketHandlers.obj
 0001:00053ec0       ??0?$_Tree_const_iterator@V?$_Tree_val@U?$_Tree_simple_types@U?$pair@$$CBIPEAUtagREQUEST_EX@@@std@@@std@@@std@@@std@@QEAA@PEAU?$_Tree_node@U?$pair@$$CBIPEAUtagREQUEST_EX@@@std@@PEAX@1@PEBV?$_Tree_val@U?$_Tree_simple_types@U?$pair@$$CBIPEAUtagREQUEST_EX@@@std@@@std@@@1@@Z 0000000180054ec0 f i ManagerLib:SessionBuildPartImgCnt.obj
 0001:00053ec0       ??0?$_Tree_const_iterator@V?$_Tree_val@U?$_Tree_simple_types@U?$pair@$$CBGPEAUtagPARTIMG@@@std@@@std@@@std@@@std@@QEAA@PEAU?$_Tree_node@U?$pair@$$CBGPEAUtagPARTIMG@@@std@@PEAX@1@PEBV?$_Tree_val@U?$_Tree_simple_types@U?$pair@$$CBGPEAUtagPARTIMG@@@std@@@std@@@1@@Z 0000000180054ec0 f i ManagerLib:PartImgLogic.obj
 0001:00053ec0       ??0?$_Tree_const_iterator@V?$_Tree_val@U?$_Tree_simple_types@U?$pair@$$CBIPEAUtagGROUPINFO@@@std@@@std@@@std@@@std@@QEAA@PEAU?$_Tree_node@U?$pair@$$CBIPEAUtagGROUPINFO@@@std@@PEAX@1@PEBV?$_Tree_val@U?$_Tree_simple_types@U?$pair@$$CBIPEAUtagGROUPINFO@@@std@@@std@@@1@@Z 0000000180054ec0 f i ManagerLib:GroupLogic.obj
 0001:00053ec0       ??0?$_Tree_const_iterator@V?$_Tree_val@U?$_Tree_simple_types@U?$pair@$$CBIPEAUtagDISKIMG@@@std@@@std@@@std@@@std@@QEAA@PEAU?$_Tree_node@U?$pair@$$CBIPEAUtagDISKIMG@@@std@@PEAX@1@PEBV?$_Tree_val@U?$_Tree_simple_types@U?$pair@$$CBIPEAUtagDISKIMG@@@std@@@std@@@1@@Z 0000000180054ec0 f i ManagerLib:DiskLogic.obj
 0001:00053ec0       ??0?$_Tree_const_iterator@V?$_Tree_val@U?$_Tree_simple_types@U?$pair@$$CBIPEAUtagMACHINEINFO@@@std@@@std@@@std@@@std@@QEAA@PEAU?$_Tree_node@U?$pair@$$CBIPEAUtagMACHINEINFO@@@std@@PEAX@1@PEBV?$_Tree_val@U?$_Tree_simple_types@U?$pair@$$CBIPEAUtagMACHINEINFO@@@std@@@std@@@1@@Z 0000000180054ec0 f i ManagerLib:GroupLogic.obj
 0001:00053ec0       ??0?$_Tree_const_iterator@V?$_Tree_val@U?$_Tree_simple_types@U?$pair@$$CBIPEAUtagOSIMG@@@std@@@std@@@std@@@std@@QEAA@PEAU?$_Tree_node@U?$pair@$$CBIPEAUtagOSIMG@@@std@@PEAX@1@PEBV?$_Tree_val@U?$_Tree_simple_types@U?$pair@$$CBIPEAUtagOSIMG@@@std@@@std@@@1@@Z 0000000180054ec0 f i ManagerLib:OsImgLogic.obj
 0001:00053ec0       ??0?$_Tree_const_iterator@V?$_Tree_val@U?$_Tree_simple_types@U?$pair@$$CBIUtagUSERLIST_ITEM@@@std@@@std@@@std@@@std@@QEAA@PEAU?$_Tree_node@U?$pair@$$CBIUtagUSERLIST_ITEM@@@std@@PEAX@1@PEBV?$_Tree_val@U?$_Tree_simple_types@U?$pair@$$CBIUtagUSERLIST_ITEM@@@std@@@std@@@1@@Z 0000000180054ec0 f i ManagerLib:UserLogic.obj
 0001:00053f20       ??0?$_Tree_iterator@V?$_Tree_val@U?$_Tree_simple_types@U?$pair@$$CBHPEAVPacketHandler@@@std@@@std@@@std@@@std@@QEAA@PEAU?$_Tree_node@U?$pair@$$CBHPEAVPacketHandler@@@std@@PEAX@1@PEBV?$_Tree_val@U?$_Tree_simple_types@U?$pair@$$CBHPEAVPacketHandler@@@std@@@std@@@1@@Z 0000000180054f20 f i ManagerLib:PacketHandlers.obj
 0001:00053f20       ??0?$_Tree_iterator@V?$_Tree_val@U?$_Tree_simple_types@U?$pair@$$CBIUtagUSERLIST_ITEM@@@std@@@std@@@std@@@std@@QEAA@PEAU?$_Tree_node@U?$pair@$$CBIUtagUSERLIST_ITEM@@@std@@PEAX@1@PEBV?$_Tree_val@U?$_Tree_simple_types@U?$pair@$$CBIUtagUSERLIST_ITEM@@@std@@@std@@@1@@Z 0000000180054f20 f i ManagerLib:UserLogic.obj
 0001:00053f20       ??0?$_Tree_iterator@V?$_Tree_val@U?$_Tree_simple_types@U?$pair@$$CBIPEAUtagMACHINEINFO@@@std@@@std@@@std@@@std@@QEAA@PEAU?$_Tree_node@U?$pair@$$CBIPEAUtagMACHINEINFO@@@std@@PEAX@1@PEBV?$_Tree_val@U?$_Tree_simple_types@U?$pair@$$CBIPEAUtagMACHINEINFO@@@std@@@std@@@1@@Z 0000000180054f20 f i ManagerLib:GroupLogic.obj
 0001:00053f20       ??0?$_Tree_iterator@V?$_Tree_val@U?$_Tree_simple_types@U?$pair@$$CBIPEAUtagDISKIMG@@@std@@@std@@@std@@@std@@QEAA@PEAU?$_Tree_node@U?$pair@$$CBIPEAUtagDISKIMG@@@std@@PEAX@1@PEBV?$_Tree_val@U?$_Tree_simple_types@U?$pair@$$CBIPEAUtagDISKIMG@@@std@@@std@@@1@@Z 0000000180054f20 f i ManagerLib:DiskLogic.obj
 0001:00053f20       ??0?$_Tree_iterator@V?$_Tree_val@U?$_Tree_simple_types@U?$pair@$$CBIW4LogicType@@@std@@@std@@@std@@@std@@QEAA@PEAU?$_Tree_node@U?$pair@$$CBIW4LogicType@@@std@@PEAX@1@PEBV?$_Tree_val@U?$_Tree_simple_types@U?$pair@$$CBIW4LogicType@@@std@@@std@@@1@@Z 0000000180054f20 f i ManagerLib:LogicManager.obj
 0001:00053f20       ??0?$_Tree_iterator@V?$_Tree_val@U?$_Tree_simple_types@U?$pair@$$CBIPEAUtagREQUEST_EX@@@std@@@std@@@std@@@std@@QEAA@PEAU?$_Tree_node@U?$pair@$$CBIPEAUtagREQUEST_EX@@@std@@PEAX@1@PEBV?$_Tree_val@U?$_Tree_simple_types@U?$pair@$$CBIPEAUtagREQUEST_EX@@@std@@@std@@@1@@Z 0000000180054f20 f i ManagerLib:SessionBuildPartImgCnt.obj
 0001:00053f20       ??0?$_Tree_iterator@V?$_Tree_val@U?$_Tree_simple_types@U?$pair@$$CBIPEAUtagGROUPINFO@@@std@@@std@@@std@@@std@@QEAA@PEAU?$_Tree_node@U?$pair@$$CBIPEAUtagGROUPINFO@@@std@@PEAX@1@PEBV?$_Tree_val@U?$_Tree_simple_types@U?$pair@$$CBIPEAUtagGROUPINFO@@@std@@@std@@@1@@Z 0000000180054f20 f i ManagerLib:GroupLogic.obj
 0001:00053f20       ??0?$_Tree_iterator@V?$_Tree_val@U?$_Tree_simple_types@U?$pair@$$CBGPEAUtagPARTIMG@@@std@@@std@@@std@@@std@@QEAA@PEAU?$_Tree_node@U?$pair@$$CBGPEAUtagPARTIMG@@@std@@PEAX@1@PEBV?$_Tree_val@U?$_Tree_simple_types@U?$pair@$$CBGPEAUtagPARTIMG@@@std@@@std@@@1@@Z 0000000180054f20 f i ManagerLib:PartImgLogic.obj
 0001:00053f20       ??0?$_Tree_iterator@V?$_Tree_val@U?$_Tree_simple_types@U?$pair@$$CBIPEAUtagOSIMG@@@std@@@std@@@std@@@std@@QEAA@PEAU?$_Tree_node@U?$pair@$$CBIPEAUtagOSIMG@@@std@@PEAX@1@PEBV?$_Tree_val@U?$_Tree_simple_types@U?$pair@$$CBIPEAUtagOSIMG@@@std@@@std@@@1@@Z 0000000180054f20 f i ManagerLib:OsImgLogic.obj
 0001:00053f80       ??0?$_Tree_unchecked_const_iterator@V?$_Tree_val@U?$_Tree_simple_types@U?$pair@$$CBIPEAUtagGROUPINFO@@@std@@@std@@@std@@U_Iterator_base0@2@@std@@QEAA@PEAU?$_Tree_node@U?$pair@$$CBIPEAUtagGROUPINFO@@@std@@PEAX@1@PEBV?$_Tree_val@U?$_Tree_simple_types@U?$pair@$$CBIPEAUtagGROUPINFO@@@std@@@std@@@1@@Z 0000000180054f80 f i ManagerLib:GroupLogic.obj
 0001:00053f80       ??0?$_Tree_unchecked_const_iterator@V?$_Tree_val@U?$_Tree_simple_types@U?$pair@$$CBIPEAUtagMACHINEINFO@@@std@@@std@@@std@@U_Iterator_base0@2@@std@@QEAA@PEAU?$_Tree_node@U?$pair@$$CBIPEAUtagMACHINEINFO@@@std@@PEAX@1@PEBV?$_Tree_val@U?$_Tree_simple_types@U?$pair@$$CBIPEAUtagMACHINEINFO@@@std@@@std@@@1@@Z 0000000180054f80 f i ManagerLib:GroupLogic.obj
 0001:00053f80       ??0?$_Tree_unchecked_const_iterator@V?$_Tree_val@U?$_Tree_simple_types@U?$pair@$$CBIPEAUtagOSIMG@@@std@@@std@@@std@@U_Iterator_base0@2@@std@@QEAA@PEAU?$_Tree_node@U?$pair@$$CBIPEAUtagOSIMG@@@std@@PEAX@1@PEBV?$_Tree_val@U?$_Tree_simple_types@U?$pair@$$CBIPEAUtagOSIMG@@@std@@@std@@@1@@Z 0000000180054f80 f i ManagerLib:OsImgLogic.obj
 0001:00053f80       ??0?$_Tree_unchecked_const_iterator@V?$_Tree_val@U?$_Tree_simple_types@U?$pair@$$CBIW4LogicType@@@std@@@std@@@std@@U_Iterator_base0@2@@std@@QEAA@PEAU?$_Tree_node@U?$pair@$$CBIW4LogicType@@@std@@PEAX@1@PEBV?$_Tree_val@U?$_Tree_simple_types@U?$pair@$$CBIW4LogicType@@@std@@@std@@@1@@Z 0000000180054f80 f i ManagerLib:LogicManager.obj
 0001:00053f80       ??0?$_Tree_unchecked_const_iterator@V?$_Tree_val@U?$_Tree_simple_types@U?$pair@$$CBIPEAUtagREQUEST_EX@@@std@@@std@@@std@@U_Iterator_base0@2@@std@@QEAA@PEAU?$_Tree_node@U?$pair@$$CBIPEAUtagREQUEST_EX@@@std@@PEAX@1@PEBV?$_Tree_val@U?$_Tree_simple_types@U?$pair@$$CBIPEAUtagREQUEST_EX@@@std@@@std@@@1@@Z 0000000180054f80 f i ManagerLib:SessionBuildPartImgCnt.obj
 0001:00053f80       ??0?$_Tree_unchecked_const_iterator@V?$_Tree_val@U?$_Tree_simple_types@U?$pair@$$CBHPEAVPacketHandler@@@std@@@std@@@std@@U_Iterator_base0@2@@std@@QEAA@PEAU?$_Tree_node@U?$pair@$$CBHPEAVPacketHandler@@@std@@PEAX@1@PEBV?$_Tree_val@U?$_Tree_simple_types@U?$pair@$$CBHPEAVPacketHandler@@@std@@@std@@@1@@Z 0000000180054f80 f i ManagerLib:PacketHandlers.obj
 0001:00053f80       ??0?$_Tree_unchecked_const_iterator@V?$_Tree_val@U?$_Tree_simple_types@U?$pair@$$CBIUtagUSERLIST_ITEM@@@std@@@std@@@std@@U_Iterator_base0@2@@std@@QEAA@PEAU?$_Tree_node@U?$pair@$$CBIUtagUSERLIST_ITEM@@@std@@PEAX@1@PEBV?$_Tree_val@U?$_Tree_simple_types@U?$pair@$$CBIUtagUSERLIST_ITEM@@@std@@@std@@@1@@Z 0000000180054f80 f i ManagerLib:UserLogic.obj
 0001:00053f80       ??0?$_Tree_unchecked_const_iterator@V?$_Tree_val@U?$_Tree_simple_types@U?$pair@$$CBGPEAUtagPARTIMG@@@std@@@std@@@std@@U_Iterator_base0@2@@std@@QEAA@PEAU?$_Tree_node@U?$pair@$$CBGPEAUtagPARTIMG@@@std@@PEAX@1@PEBV?$_Tree_val@U?$_Tree_simple_types@U?$pair@$$CBGPEAUtagPARTIMG@@@std@@@std@@@1@@Z 0000000180054f80 f i ManagerLib:PartImgLogic.obj
 0001:00053f80       ??0?$_Tree_unchecked_const_iterator@V?$_Tree_val@U?$_Tree_simple_types@U?$pair@$$CBIPEAUtagDISKIMG@@@std@@@std@@@std@@U_Iterator_base0@2@@std@@QEAA@PEAU?$_Tree_node@U?$pair@$$CBIPEAUtagDISKIMG@@@std@@PEAX@1@PEBV?$_Tree_val@U?$_Tree_simple_types@U?$pair@$$CBIPEAUtagDISKIMG@@@std@@@std@@@1@@Z 0000000180054f80 f i ManagerLib:DiskLogic.obj
 0001:00053ff0       ??0?$map@GPEAUtagPARTIMG@@U?$less@G@std@@V?$allocator@U?$pair@$$CBGPEAUtagPARTIMG@@@std@@@3@@std@@QEAA@XZ 0000000180054ff0 f i ManagerLib:PartImgLogic.obj
 0001:00054040       ??0CPartImgLogic@@QEAA@XZ  0000000180055040 f   ManagerLib:PartImgLogic.obj
 0001:00054100       ??1?$CLogicBase@VCPartImgLogic@@@@QEAA@XZ 0000000180055100 f i ManagerLib:PartImgLogic.obj
 0001:00054150       ??1?$CPacketGateBaseTemplate@VCPartImgLogic@@@@UEAA@XZ 0000000180055150 f i ManagerLib:PartImgLogic.obj
 0001:000541c0       ??1?$KSingleton@VCPartImgLogic@@@Patterns@System@@IEAA@XZ 00000001800551c0 f i ManagerLib:PartImgLogic.obj
 0001:00054200       ??1?$_Tree@V?$_Tmap_traits@GPEAUtagPARTIMG@@U?$less@G@std@@V?$allocator@U?$pair@$$CBGPEAUtagPARTIMG@@@std@@@3@$0A@@std@@@std@@QEAA@XZ 0000000180055200 f i ManagerLib:PartImgLogic.obj
 0001:00054260       ??1?$_Tree_comp_alloc@V?$_Tmap_traits@GPEAUtagPARTIMG@@U?$less@G@std@@V?$allocator@U?$pair@$$CBGPEAUtagPARTIMG@@@std@@@3@$0A@@std@@@std@@QEAA@XZ 0000000180055260 f i ManagerLib:PartImgLogic.obj
 0001:000542c0       ??1?$map@GPEAUtagPARTIMG@@U?$less@G@std@@V?$allocator@U?$pair@$$CBGPEAUtagPARTIMG@@@std@@@3@@std@@QEAA@XZ 00000001800552c0 f i ManagerLib:PartImgLogic.obj
 0001:00054300       ??1CPartImgLogic@@UEAA@XZ  0000000180055300 f   ManagerLib:PartImgLogic.obj
 0001:00054390       ??D?$_Tree_const_iterator@V?$_Tree_val@U?$_Tree_simple_types@U?$pair@$$CBIPEAUtagOSIMG@@@std@@@std@@@std@@@std@@QEBAAEBU?$pair@$$CBIPEAUtagOSIMG@@@1@XZ 0000000180055390 f i ManagerLib:OsImgLogic.obj
 0001:00054390       ??D?$_Tree_const_iterator@V?$_Tree_val@U?$_Tree_simple_types@U?$pair@$$CBIPEAUtagDISKIMG@@@std@@@std@@@std@@@std@@QEBAAEBU?$pair@$$CBIPEAUtagDISKIMG@@@1@XZ 0000000180055390 f i ManagerLib:DiskLogic.obj
 0001:00054390       ??D?$_Tree_const_iterator@V?$_Tree_val@U?$_Tree_simple_types@U?$pair@$$CBIPEAUtagGROUPINFO@@@std@@@std@@@std@@@std@@QEBAAEBU?$pair@$$CBIPEAUtagGROUPINFO@@@1@XZ 0000000180055390 f i ManagerLib:GroupLogic.obj
 0001:00054390       ??D?$_Tree_const_iterator@V?$_Tree_val@U?$_Tree_simple_types@U?$pair@$$CBIPEAUtagMACHINEINFO@@@std@@@std@@@std@@@std@@QEBAAEBU?$pair@$$CBIPEAUtagMACHINEINFO@@@1@XZ 0000000180055390 f i ManagerLib:GroupLogic.obj
 0001:00054390       ??D?$_Tree_const_iterator@V?$_Tree_val@U?$_Tree_simple_types@U?$pair@$$CBGPEAUtagPARTIMG@@@std@@@std@@@std@@@std@@QEBAAEBU?$pair@$$CBGPEAUtagPARTIMG@@@1@XZ 0000000180055390 f i ManagerLib:PartImgLogic.obj
 0001:00054390       ??D?$_Tree_const_iterator@V?$_Tree_val@U?$_Tree_simple_types@U?$pair@$$CBHPEAVPacketHandler@@@std@@@std@@@std@@@std@@QEBAAEBU?$pair@$$CBHPEAVPacketHandler@@@1@XZ 0000000180055390 f i ManagerLib:PacketHandlers.obj
 0001:00054390       ??D?$_Tree_const_iterator@V?$_Tree_val@U?$_Tree_simple_types@U?$pair@$$CBIPEAUtagREQUEST_EX@@@std@@@std@@@std@@@std@@QEBAAEBU?$pair@$$CBIPEAUtagREQUEST_EX@@@1@XZ 0000000180055390 f i ManagerLib:SessionBuildPartImgCnt.obj
 0001:000543e0       ??D?$_Tree_iterator@V?$_Tree_val@U?$_Tree_simple_types@U?$pair@$$CBGPEAUtagPARTIMG@@@std@@@std@@@std@@@std@@QEBAAEAU?$pair@$$CBGPEAUtagPARTIMG@@@1@XZ 00000001800553e0 f i ManagerLib:PartImgLogic.obj
 0001:000543e0       ??D?$_Tree_iterator@V?$_Tree_val@U?$_Tree_simple_types@U?$pair@$$CBHPEAVPacketHandler@@@std@@@std@@@std@@@std@@QEBAAEAU?$pair@$$CBHPEAVPacketHandler@@@1@XZ 00000001800553e0 f i ManagerLib:PacketHandlers.obj
 0001:000543e0       ??D?$_Tree_iterator@V?$_Tree_val@U?$_Tree_simple_types@U?$pair@$$CBIPEAUtagREQUEST_EX@@@std@@@std@@@std@@@std@@QEBAAEAU?$pair@$$CBIPEAUtagREQUEST_EX@@@1@XZ 00000001800553e0 f i ManagerLib:SessionBuildPartImgCnt.obj
 0001:000543e0       ??D?$_Tree_iterator@V?$_Tree_val@U?$_Tree_simple_types@U?$pair@$$CBIPEAUtagMACHINEINFO@@@std@@@std@@@std@@@std@@QEBAAEAU?$pair@$$CBIPEAUtagMACHINEINFO@@@1@XZ 00000001800553e0 f i ManagerLib:GroupLogic.obj
 0001:000543e0       ??D?$_Tree_iterator@V?$_Tree_val@U?$_Tree_simple_types@U?$pair@$$CBIPEAUtagDISKIMG@@@std@@@std@@@std@@@std@@QEBAAEAU?$pair@$$CBIPEAUtagDISKIMG@@@1@XZ 00000001800553e0 f i ManagerLib:DiskLogic.obj
 0001:000543e0       ??D?$_Tree_iterator@V?$_Tree_val@U?$_Tree_simple_types@U?$pair@$$CBIPEAUtagGROUPINFO@@@std@@@std@@@std@@@std@@QEBAAEAU?$pair@$$CBIPEAUtagGROUPINFO@@@1@XZ 00000001800553e0 f i ManagerLib:GroupLogic.obj
 0001:000543e0       ??D?$_Tree_iterator@V?$_Tree_val@U?$_Tree_simple_types@U?$pair@$$CBIPEAUtagOSIMG@@@std@@@std@@@std@@@std@@QEBAAEAU?$pair@$$CBIPEAUtagOSIMG@@@1@XZ 00000001800553e0 f i ManagerLib:OsImgLogic.obj
 0001:00054420       ??E?$_Tree_const_iterator@V?$_Tree_val@U?$_Tree_simple_types@U?$pair@$$CBGPEAUtagPARTIMG@@@std@@@std@@@std@@@std@@QEAA?AV01@H@Z 0000000180055420 f i ManagerLib:PartImgLogic.obj
 0001:000544e0       ??R?$less@G@std@@QEBA_NAEBG0@Z 00000001800554e0 f i ManagerLib:PartImgLogic.obj
 0001:00054560       ??_G?$CPacketGateBaseTemplate@VCPartImgLogic@@@@UEAAPEAXI@Z 0000000180055560 f i ManagerLib:PartImgLogic.obj
 0001:00054560       ??_E?$CPacketGateBaseTemplate@VCPartImgLogic@@@@UEAAPEAXI@Z 0000000180055560 f i ManagerLib:PartImgLogic.obj
 0001:000545d0       ??_GCPartImgLogic@@UEAAPEAXI@Z 00000001800555d0 f i ManagerLib:PartImgLogic.obj
 0001:000545d0       ??_ECPartImgLogic@@UEAAPEAXI@Z 00000001800555d0 f i ManagerLib:PartImgLogic.obj
 0001:00054640       ?AddPartImgToMap@CPartImgLogic@@QEAAJPEAUtagPARTIMG@@@Z 0000000180055640 f   ManagerLib:PartImgLogic.obj
 0001:00054770       ?DeletePartImgToMap@CPartImgLogic@@QEAAJG@Z 0000000180055770 f   ManagerLib:PartImgLogic.obj
 0001:000548f0       ?FindPartImgFromFildNum@CPartImgLogic@@QEAAPEAUtagPARTIMG@@G@Z 00000001800558f0 f   ManagerLib:PartImgLogic.obj
 0001:00054a50       ?HandleBuildPartImg@CPartImgLogic@@QEAAHPEAUtagREQUEST_EX@@@Z 0000000180055a50 f   ManagerLib:PartImgLogic.obj
 0001:00054ba0       ?HandleDeletePartImg@CPartImgLogic@@QEAAHPEAUtagREQUEST_EX@@@Z 0000000180055ba0 f   ManagerLib:PartImgLogic.obj
 0001:00054c20       ?HandleUpdatePartImg@CPartImgLogic@@QEAAHPEAUtagREQUEST_EX@@@Z 0000000180055c20 f   ManagerLib:PartImgLogic.obj
 0001:00054cb0       ?Initialize@CPartImgLogic@@UEAAHXZ 0000000180055cb0 f   ManagerLib:PartImgLogic.obj
 0001:00054e50       ?Process@?$CPacketGateBaseTemplate@VCPartImgLogic@@@@UEAAHHPEAUtagREQUEST_EX@@@Z 0000000180055e50 f i ManagerLib:PartImgLogic.obj
 0001:00054f70       ?UpdatePartImgToMap@CPartImgLogic@@QEAAJPEAUtagPARTIMG@@@Z 0000000180055f70 f   ManagerLib:PartImgLogic.obj
 0001:000550e0       ?_Buyheadnode@?$_Tree_comp_alloc@V?$_Tmap_traits@GPEAUtagPARTIMG@@U?$less@G@std@@V?$allocator@U?$pair@$$CBGPEAUtagPARTIMG@@@std@@@3@$0A@@std@@@std@@QEAAPEAU?$_Tree_node@U?$pair@$$CBGPEAUtagPARTIMG@@@std@@PEAX@2@XZ 00000001800560e0 f i ManagerLib:PartImgLogic.obj
 0001:00055260       ?_Buynode0@?$_Tree_comp_alloc@V?$_Tmap_traits@GPEAUtagPARTIMG@@U?$less@G@std@@V?$allocator@U?$pair@$$CBGPEAUtagPARTIMG@@@std@@@3@$0A@@std@@@std@@QEAAPEAU?$_Tree_node@U?$pair@$$CBGPEAUtagPARTIMG@@@std@@PEAX@2@XZ 0000000180056260 f i ManagerLib:PartImgLogic.obj
 0001:000553e0       ?_Compare@?$_Tree@V?$_Tmap_traits@GPEAUtagPARTIMG@@U?$less@G@std@@V?$allocator@U?$pair@$$CBGPEAUtagPARTIMG@@@std@@@3@$0A@@std@@@std@@IEBA_NAEBG0@Z 00000001800563e0 f i ManagerLib:PartImgLogic.obj
 0001:00055440       ?_Construct@?$_Tree_comp_alloc@V?$_Tmap_traits@GPEAUtagPARTIMG@@U?$less@G@std@@V?$allocator@U?$pair@$$CBGPEAUtagPARTIMG@@@std@@@3@$0A@@std@@@std@@QEAAXXZ 0000000180056440 f i ManagerLib:PartImgLogic.obj
 0001:000554a0       ?_Erase@?$_Tree@V?$_Tmap_traits@IPEAUtagREQUEST_EX@@U?$less@I@std@@V?$allocator@U?$pair@$$CBIPEAUtagREQUEST_EX@@@std@@@3@$0A@@std@@@std@@IEAAXPEAU?$_Tree_node@U?$pair@$$CBIPEAUtagREQUEST_EX@@@std@@PEAX@2@@Z 00000001800564a0 f i ManagerLib:SessionBuildPartImgCnt.obj
 0001:000554a0       ?_Erase@?$_Tree@V?$_Tmap_traits@IPEAUtagGROUPINFO@@U?$less@I@std@@V?$allocator@U?$pair@$$CBIPEAUtagGROUPINFO@@@std@@@3@$0A@@std@@@std@@IEAAXPEAU?$_Tree_node@U?$pair@$$CBIPEAUtagGROUPINFO@@@std@@PEAX@2@@Z 00000001800564a0 f i ManagerLib:GroupLogic.obj
 0001:000554a0       ?_Erase@?$_Tree@V?$_Tmap_traits@GPEAUtagPARTIMG@@U?$less@G@std@@V?$allocator@U?$pair@$$CBGPEAUtagPARTIMG@@@std@@@3@$0A@@std@@@std@@IEAAXPEAU?$_Tree_node@U?$pair@$$CBGPEAUtagPARTIMG@@@std@@PEAX@2@@Z 00000001800564a0 f i ManagerLib:PartImgLogic.obj
 0001:000554a0       ?_Erase@?$_Tree@V?$_Tmap_traits@IPEAUtagOSIMG@@U?$less@I@std@@V?$allocator@U?$pair@$$CBIPEAUtagOSIMG@@@std@@@3@$0A@@std@@@std@@IEAAXPEAU?$_Tree_node@U?$pair@$$CBIPEAUtagOSIMG@@@std@@PEAX@2@@Z 00000001800564a0 f i ManagerLib:OsImgLogic.obj
 0001:000554a0       ?_Erase@?$_Tree@V?$_Tmap_traits@IPEAUtagMACHINEINFO@@U?$less@I@std@@V?$allocator@U?$pair@$$CBIPEAUtagMACHINEINFO@@@std@@@3@$0A@@std@@@std@@IEAAXPEAU?$_Tree_node@U?$pair@$$CBIPEAUtagMACHINEINFO@@@std@@PEAX@2@@Z 00000001800564a0 f i ManagerLib:GroupLogic.obj
 0001:000554a0       ?_Erase@?$_Tree@V?$_Tmap_traits@IPEAUtagDISKIMG@@U?$less@I@std@@V?$allocator@U?$pair@$$CBIPEAUtagDISKIMG@@@std@@@3@$0A@@std@@@std@@IEAAXPEAU?$_Tree_node@U?$pair@$$CBIPEAUtagDISKIMG@@@std@@PEAX@2@@Z 00000001800564a0 f i ManagerLib:DiskLogic.obj
 0001:00055590       ?_Myval@?$_Tree_comp_alloc@V?$_Tmap_traits@HPEAVPacketHandler@@U?$less@H@std@@V?$allocator@U?$pair@$$CBHPEAVPacketHandler@@@std@@@3@$0A@@std@@@std@@SAAEAU?$pair@$$CBHPEAVPacketHandler@@@2@PEAU?$_Tree_node@U?$pair@$$CBHPEAVPacketHandler@@@std@@PEAX@2@@Z 0000000180056590 f i ManagerLib:PacketHandlers.obj
 0001:00055590       ?_Myval@?$_Tree_comp_alloc@V?$_Tmap_traits@IPEAUtagOSIMG@@U?$less@I@std@@V?$allocator@U?$pair@$$CBIPEAUtagOSIMG@@@std@@@3@$0A@@std@@@std@@SAAEAU?$pair@$$CBIPEAUtagOSIMG@@@2@PEAU?$_Tree_node@U?$pair@$$CBIPEAUtagOSIMG@@@std@@PEAX@2@@Z 0000000180056590 f i ManagerLib:OsImgLogic.obj
 0001:00055590       ?_Myval@?$_Tree_comp_alloc@V?$_Tmap_traits@IPEAUtagREQUEST_EX@@U?$less@I@std@@V?$allocator@U?$pair@$$CBIPEAUtagREQUEST_EX@@@std@@@3@$0A@@std@@@std@@SAAEAU?$pair@$$CBIPEAUtagREQUEST_EX@@@2@PEAU?$_Tree_node@U?$pair@$$CBIPEAUtagREQUEST_EX@@@std@@PEAX@2@@Z 0000000180056590 f i ManagerLib:SessionBuildPartImgCnt.obj
 0001:00055590       ?_Myval@?$_Tree_comp_alloc@V?$_Tmap_traits@IPEAUtagDISKIMG@@U?$less@I@std@@V?$allocator@U?$pair@$$CBIPEAUtagDISKIMG@@@std@@@3@$0A@@std@@@std@@SAAEAU?$pair@$$CBIPEAUtagDISKIMG@@@2@PEAU?$_Tree_node@U?$pair@$$CBIPEAUtagDISKIMG@@@std@@PEAX@2@@Z 0000000180056590 f i ManagerLib:DiskLogic.obj
 0001:00055590       ?_Myval@?$_Tree_comp_alloc@V?$_Tmap_traits@IPEAUtagMACHINEINFO@@U?$less@I@std@@V?$allocator@U?$pair@$$CBIPEAUtagMACHINEINFO@@@std@@@3@$0A@@std@@@std@@SAAEAU?$pair@$$CBIPEAUtagMACHINEINFO@@@2@PEAU?$_Tree_node@U?$pair@$$CBIPEAUtagMACHINEINFO@@@std@@PEAX@2@@Z 0000000180056590 f i ManagerLib:GroupLogic.obj
 0001:00055590       ?_Myval@?$_Tree_comp_alloc@V?$_Tmap_traits@IPEAUtagGROUPINFO@@U?$less@I@std@@V?$allocator@U?$pair@$$CBIPEAUtagGROUPINFO@@@std@@@3@$0A@@std@@@std@@SAAEAU?$pair@$$CBIPEAUtagGROUPINFO@@@2@PEAU?$_Tree_node@U?$pair@$$CBIPEAUtagGROUPINFO@@@std@@PEAX@2@@Z 0000000180056590 f i ManagerLib:GroupLogic.obj
 0001:00055590       ?_Myval@?$_Tree_comp_alloc@V?$_Tmap_traits@GPEAUtagPARTIMG@@U?$less@G@std@@V?$allocator@U?$pair@$$CBGPEAUtagPARTIMG@@@std@@@3@$0A@@std@@@std@@SAAEAU?$pair@$$CBGPEAUtagPARTIMG@@@2@PEAU?$_Tree_node@U?$pair@$$CBGPEAUtagPARTIMG@@@std@@PEAX@2@@Z 0000000180056590 f i ManagerLib:PartImgLogic.obj
 0001:000555d0       ?_Tidy@?$_Tree@V?$_Tmap_traits@GPEAUtagPARTIMG@@U?$less@G@std@@V?$allocator@U?$pair@$$CBGPEAUtagPARTIMG@@@std@@@3@$0A@@std@@@std@@IEAAXXZ 00000001800565d0 f i ManagerLib:PartImgLogic.obj
 0001:00055660       ?begin@?$_Tree@V?$_Tmap_traits@GPEAUtagPARTIMG@@U?$less@G@std@@V?$allocator@U?$pair@$$CBGPEAUtagPARTIMG@@@std@@@3@$0A@@std@@@std@@QEAA?AV?$_Tree_iterator@V?$_Tree_val@U?$_Tree_simple_types@U?$pair@$$CBGPEAUtagPARTIMG@@@std@@@std@@@std@@@2@XZ 0000000180056660 f i ManagerLib:PartImgLogic.obj
 0001:000556f0       ?clear@?$_Tree@V?$_Tmap_traits@GPEAUtagPARTIMG@@U?$less@G@std@@V?$allocator@U?$pair@$$CBGPEAUtagPARTIMG@@@std@@@3@$0A@@std@@@std@@QEAAXXZ 00000001800566f0 f i ManagerLib:PartImgLogic.obj
 0001:000557f0       ?end@?$_Tree@V?$_Tmap_traits@GPEAUtagPARTIMG@@U?$less@G@std@@V?$allocator@U?$pair@$$CBGPEAUtagPARTIMG@@@std@@@3@$0A@@std@@@std@@QEAA?AV?$_Tree_iterator@V?$_Tree_val@U?$_Tree_simple_types@U?$pair@$$CBGPEAUtagPARTIMG@@@std@@@std@@@std@@@2@XZ 00000001800567f0 f i ManagerLib:PartImgLogic.obj
 0001:00055880       ?erase@?$_Tree@V?$_Tmap_traits@GPEAUtagPARTIMG@@U?$less@G@std@@V?$allocator@U?$pair@$$CBGPEAUtagPARTIMG@@@std@@@3@$0A@@std@@@std@@QEAA?AV?$_Tree_iterator@V?$_Tree_val@U?$_Tree_simple_types@U?$pair@$$CBGPEAUtagPARTIMG@@@std@@@std@@@std@@@2@V?$_Tree_const_iterator@V?$_Tree_val@U?$_Tree_simple_types@U?$pair@$$CBGPEAUtagPARTIMG@@@std@@@std@@@std@@@2@0@Z 0000000180056880 f i ManagerLib:PartImgLogic.obj
 0001:000559b0       ?find@?$_Tree@V?$_Tmap_traits@GPEAUtagPARTIMG@@U?$less@G@std@@V?$allocator@U?$pair@$$CBGPEAUtagPARTIMG@@@std@@@3@$0A@@std@@@std@@QEAA?AV?$_Tree_iterator@V?$_Tree_val@U?$_Tree_simple_types@U?$pair@$$CBGPEAUtagPARTIMG@@@std@@@std@@@std@@@2@AEBG@Z 00000001800569b0 f i ManagerLib:PartImgLogic.obj
 0001:00055b20       ?lower_bound@?$_Tree@V?$_Tmap_traits@GPEAUtagPARTIMG@@U?$less@G@std@@V?$allocator@U?$pair@$$CBGPEAUtagPARTIMG@@@std@@@3@$0A@@std@@@std@@QEAA?AV?$_Tree_iterator@V?$_Tree_val@U?$_Tree_simple_types@U?$pair@$$CBGPEAUtagPARTIMG@@@std@@@std@@@std@@@2@AEBG@Z 0000000180056b20 f i ManagerLib:PartImgLogic.obj
 0001:00055bb0       ?max_size@?$_Tree@V?$_Tmap_traits@IPEAUtagGROUPINFO@@U?$less@I@std@@V?$allocator@U?$pair@$$CBIPEAUtagGROUPINFO@@@std@@@3@$0A@@std@@@std@@QEBA_KXZ 0000000180056bb0 f i ManagerLib:GroupLogic.obj
 0001:00055bb0       ?max_size@?$_Tree@V?$_Tmap_traits@IPEAUtagOSIMG@@U?$less@I@std@@V?$allocator@U?$pair@$$CBIPEAUtagOSIMG@@@std@@@3@$0A@@std@@@std@@QEBA_KXZ 0000000180056bb0 f i ManagerLib:OsImgLogic.obj
 0001:00055bb0       ?max_size@?$_Tree@V?$_Tmap_traits@IPEAUtagMACHINEINFO@@U?$less@I@std@@V?$allocator@U?$pair@$$CBIPEAUtagMACHINEINFO@@@std@@@3@$0A@@std@@@std@@QEBA_KXZ 0000000180056bb0 f i ManagerLib:GroupLogic.obj
 0001:00055bb0       ?max_size@?$_Tree@V?$_Tmap_traits@GPEAUtagPARTIMG@@U?$less@G@std@@V?$allocator@U?$pair@$$CBGPEAUtagPARTIMG@@@std@@@3@$0A@@std@@@std@@QEBA_KXZ 0000000180056bb0 f i ManagerLib:PartImgLogic.obj
 0001:00055bb0       ?max_size@?$_Tree@V?$_Tmap_traits@IPEAUtagREQUEST_EX@@U?$less@I@std@@V?$allocator@U?$pair@$$CBIPEAUtagREQUEST_EX@@@std@@@3@$0A@@std@@@std@@QEBA_KXZ 0000000180056bb0 f i ManagerLib:SessionBuildPartImgCnt.obj
 0001:00055bb0       ?max_size@?$_Tree@V?$_Tmap_traits@HPEAVPacketHandler@@U?$less@H@std@@V?$allocator@U?$pair@$$CBHPEAVPacketHandler@@@std@@@3@$0A@@std@@@std@@QEBA_KXZ 0000000180056bb0 f i ManagerLib:PacketHandlers.obj
 0001:00055bb0       ?max_size@?$_Tree@V?$_Tmap_traits@IPEAUtagDISKIMG@@U?$less@I@std@@V?$allocator@U?$pair@$$CBIPEAUtagDISKIMG@@@std@@@3@$0A@@std@@@std@@QEBA_KXZ 0000000180056bb0 f i ManagerLib:DiskLogic.obj
 0001:00055c00       ??$?0AEAIAEAPEAUtagGROUPINFO@@X$0A@@?$pair@$$CBIPEAUtagGROUPINFO@@@std@@QEAA@AEAIAEAPEAUtagGROUPINFO@@@Z 0000000180056c00 f i ManagerLib:GroupLogic.obj
 0001:00055c00       ??$?0AEAIAEAPEAUtagREQUEST_EX@@X$0A@@?$pair@$$CBIPEAUtagREQUEST_EX@@@std@@QEAA@AEAIAEAPEAUtagREQUEST_EX@@@Z 0000000180056c00 f i ManagerLib:SessionBuildPartImgCnt.obj
 0001:00055c00       ??$?0AEAIAEAPEAUtagOSIMG@@X$0A@@?$pair@$$CBIPEAUtagOSIMG@@@std@@QEAA@AEAIAEAPEAUtagOSIMG@@@Z 0000000180056c00 f i ManagerLib:OsImgLogic.obj
 0001:00055c00       ??$?0AEAIAEAPEAUtagDISKIMG@@X$0A@@?$pair@$$CBIPEAUtagDISKIMG@@@std@@QEAA@AEAIAEAPEAUtagDISKIMG@@@Z 0000000180056c00 f i ManagerLib:DiskLogic.obj
 0001:00055c00       ??$?0AEAIAEAPEAUtagMACHINEINFO@@X$0A@@?$pair@$$CBIPEAUtagMACHINEINFO@@@std@@QEAA@AEAIAEAPEAUtagMACHINEINFO@@@Z 0000000180056c00 f i ManagerLib:GroupLogic.obj
 0001:00055c80       ??$?0V?$_Tree_iterator@V?$_Tree_val@U?$_Tree_simple_types@U?$pair@$$CBIPEAUtagREQUEST_EX@@@std@@@std@@@std@@@std@@_NX$0A@@?$pair@V?$_Tree_iterator@V?$_Tree_val@U?$_Tree_simple_types@U?$pair@$$CBIPEAUtagREQUEST_EX@@@std@@@std@@@std@@@std@@_N@std@@QEAA@$$QEAV?$_Tree_iterator@V?$_Tree_val@U?$_Tree_simple_types@U?$pair@$$CBIPEAUtagREQUEST_EX@@@std@@@std@@@std@@@1@$$QEA_N@Z 0000000180056c80 f i ManagerLib:SessionBuildPartImgCnt.obj
 0001:00055c80       ??$?0V?$_Tree_iterator@V?$_Tree_val@U?$_Tree_simple_types@U?$pair@$$CBIPEAUtagDISKIMG@@@std@@@std@@@std@@@std@@_NX$0A@@?$pair@V?$_Tree_iterator@V?$_Tree_val@U?$_Tree_simple_types@U?$pair@$$CBIPEAUtagDISKIMG@@@std@@@std@@@std@@@std@@_N@std@@QEAA@$$QEAV?$_Tree_iterator@V?$_Tree_val@U?$_Tree_simple_types@U?$pair@$$CBIPEAUtagDISKIMG@@@std@@@std@@@std@@@1@$$QEA_N@Z 0000000180056c80 f i ManagerLib:DiskLogic.obj
 0001:00055c80       ??$?0V?$_Tree_iterator@V?$_Tree_val@U?$_Tree_simple_types@U?$pair@$$CBIPEAUtagGROUPINFO@@@std@@@std@@@std@@@std@@_NX$0A@@?$pair@V?$_Tree_iterator@V?$_Tree_val@U?$_Tree_simple_types@U?$pair@$$CBIPEAUtagGROUPINFO@@@std@@@std@@@std@@@std@@_N@std@@QEAA@$$QEAV?$_Tree_iterator@V?$_Tree_val@U?$_Tree_simple_types@U?$pair@$$CBIPEAUtagGROUPINFO@@@std@@@std@@@std@@@1@$$QEA_N@Z 0000000180056c80 f i ManagerLib:GroupLogic.obj
 0001:00055c80       ??$?0AEAV?$_Tree_iterator@V?$_Tree_val@U?$_Tree_simple_types@U?$pair@$$CBIPEAUtagGROUPINFO@@@std@@@std@@@std@@@std@@_NX$0A@@?$pair@V?$_Tree_iterator@V?$_Tree_val@U?$_Tree_simple_types@U?$pair@$$CBIPEAUtagGROUPINFO@@@std@@@std@@@std@@@std@@_N@std@@QEAA@AEAV?$_Tree_iterator@V?$_Tree_val@U?$_Tree_simple_types@U?$pair@$$CBIPEAUtagGROUPINFO@@@std@@@std@@@std@@@1@$$QEA_N@Z 0000000180056c80 f i ManagerLib:GroupLogic.obj
 0001:00055c80       ??$?0V?$_Tree_iterator@V?$_Tree_val@U?$_Tree_simple_types@U?$pair@$$CBGPEAUtagPARTIMG@@@std@@@std@@@std@@@std@@_NX$0A@@?$pair@V?$_Tree_iterator@V?$_Tree_val@U?$_Tree_simple_types@U?$pair@$$CBGPEAUtagPARTIMG@@@std@@@std@@@std@@@std@@_N@std@@QEAA@$$QEAV?$_Tree_iterator@V?$_Tree_val@U?$_Tree_simple_types@U?$pair@$$CBGPEAUtagPARTIMG@@@std@@@std@@@std@@@1@$$QEA_N@Z 0000000180056c80 f i ManagerLib:PartImgLogic.obj
 0001:00055c80       ??$?0AEAV?$_Tree_iterator@V?$_Tree_val@U?$_Tree_simple_types@U?$pair@$$CBIPEAUtagDISKIMG@@@std@@@std@@@std@@@std@@_NX$0A@@?$pair@V?$_Tree_iterator@V?$_Tree_val@U?$_Tree_simple_types@U?$pair@$$CBIPEAUtagDISKIMG@@@std@@@std@@@std@@@std@@_N@std@@QEAA@AEAV?$_Tree_iterator@V?$_Tree_val@U?$_Tree_simple_types@U?$pair@$$CBIPEAUtagDISKIMG@@@std@@@std@@@std@@@1@$$QEA_N@Z 0000000180056c80 f i ManagerLib:DiskLogic.obj
 0001:00055c80       ??$?0AEAV?$_Tree_iterator@V?$_Tree_val@U?$_Tree_simple_types@U?$pair@$$CBHPEAVPacketHandler@@@std@@@std@@@std@@@std@@_NX$0A@@?$pair@V?$_Tree_iterator@V?$_Tree_val@U?$_Tree_simple_types@U?$pair@$$CBHPEAVPacketHandler@@@std@@@std@@@std@@@std@@_N@std@@QEAA@AEAV?$_Tree_iterator@V?$_Tree_val@U?$_Tree_simple_types@U?$pair@$$CBHPEAVPacketHandler@@@std@@@std@@@std@@@1@$$QEA_N@Z 0000000180056c80 f i ManagerLib:PacketHandlers.obj
 0001:00055c80       ??$?0AEAV?$_Tree_iterator@V?$_Tree_val@U?$_Tree_simple_types@U?$pair@$$CBIPEAUtagOSIMG@@@std@@@std@@@std@@@std@@_NX$0A@@?$pair@V?$_Tree_iterator@V?$_Tree_val@U?$_Tree_simple_types@U?$pair@$$CBIPEAUtagOSIMG@@@std@@@std@@@std@@@std@@_N@std@@QEAA@AEAV?$_Tree_iterator@V?$_Tree_val@U?$_Tree_simple_types@U?$pair@$$CBIPEAUtagOSIMG@@@std@@@std@@@std@@@1@$$QEA_N@Z 0000000180056c80 f i ManagerLib:OsImgLogic.obj
 0001:00055c80       ??$?0AEAV?$_Tree_iterator@V?$_Tree_val@U?$_Tree_simple_types@U?$pair@$$CBIUtagUSERLIST_ITEM@@@std@@@std@@@std@@@std@@_NX$0A@@?$pair@V?$_Tree_iterator@V?$_Tree_val@U?$_Tree_simple_types@U?$pair@$$CBIUtagUSERLIST_ITEM@@@std@@@std@@@std@@@std@@_N@std@@QEAA@AEAV?$_Tree_iterator@V?$_Tree_val@U?$_Tree_simple_types@U?$pair@$$CBIUtagUSERLIST_ITEM@@@std@@@std@@@std@@@1@$$QEA_N@Z 0000000180056c80 f i ManagerLib:UserLogic.obj
 0001:00055c80       ??$?0AEAV?$_Tree_iterator@V?$_Tree_val@U?$_Tree_simple_types@U?$pair@$$CBIPEAUtagREQUEST_EX@@@std@@@std@@@std@@@std@@_NX$0A@@?$pair@V?$_Tree_iterator@V?$_Tree_val@U?$_Tree_simple_types@U?$pair@$$CBIPEAUtagREQUEST_EX@@@std@@@std@@@std@@@std@@_N@std@@QEAA@AEAV?$_Tree_iterator@V?$_Tree_val@U?$_Tree_simple_types@U?$pair@$$CBIPEAUtagREQUEST_EX@@@std@@@std@@@std@@@1@$$QEA_N@Z 0000000180056c80 f i ManagerLib:SessionBuildPartImgCnt.obj
 0001:00055c80       ??$?0V?$_Tree_iterator@V?$_Tree_val@U?$_Tree_simple_types@U?$pair@$$CBIW4LogicType@@@std@@@std@@@std@@@std@@_NX$0A@@?$pair@V?$_Tree_iterator@V?$_Tree_val@U?$_Tree_simple_types@U?$pair@$$CBIW4LogicType@@@std@@@std@@@std@@@std@@_N@std@@QEAA@$$QEAV?$_Tree_iterator@V?$_Tree_val@U?$_Tree_simple_types@U?$pair@$$CBIW4LogicType@@@std@@@std@@@std@@@1@$$QEA_N@Z 0000000180056c80 f i ManagerLib:LogicManager.obj
 0001:00055c80       ??$?0AEAV?$_Tree_iterator@V?$_Tree_val@U?$_Tree_simple_types@U?$pair@$$CBIW4LogicType@@@std@@@std@@@std@@@std@@_NX$0A@@?$pair@V?$_Tree_iterator@V?$_Tree_val@U?$_Tree_simple_types@U?$pair@$$CBIW4LogicType@@@std@@@std@@@std@@@std@@_N@std@@QEAA@AEAV?$_Tree_iterator@V?$_Tree_val@U?$_Tree_simple_types@U?$pair@$$CBIW4LogicType@@@std@@@std@@@std@@@1@$$QEA_N@Z 0000000180056c80 f i ManagerLib:LogicManager.obj
 0001:00055c80       ??$?0V?$_Tree_iterator@V?$_Tree_val@U?$_Tree_simple_types@U?$pair@$$CBIUtagUSERLIST_ITEM@@@std@@@std@@@std@@@std@@_NX$0A@@?$pair@V?$_Tree_iterator@V?$_Tree_val@U?$_Tree_simple_types@U?$pair@$$CBIUtagUSERLIST_ITEM@@@std@@@std@@@std@@@std@@_N@std@@QEAA@$$QEAV?$_Tree_iterator@V?$_Tree_val@U?$_Tree_simple_types@U?$pair@$$CBIUtagUSERLIST_ITEM@@@std@@@std@@@std@@@1@$$QEA_N@Z 0000000180056c80 f i ManagerLib:UserLogic.obj
 0001:00055c80       ??$?0V?$_Tree_iterator@V?$_Tree_val@U?$_Tree_simple_types@U?$pair@$$CBHPEAVPacketHandler@@@std@@@std@@@std@@@std@@_NX$0A@@?$pair@V?$_Tree_iterator@V?$_Tree_val@U?$_Tree_simple_types@U?$pair@$$CBHPEAVPacketHandler@@@std@@@std@@@std@@@std@@_N@std@@QEAA@$$QEAV?$_Tree_iterator@V?$_Tree_val@U?$_Tree_simple_types@U?$pair@$$CBHPEAVPacketHandler@@@std@@@std@@@std@@@1@$$QEA_N@Z 0000000180056c80 f i ManagerLib:PacketHandlers.obj
 0001:00055c80       ??$?0V?$_Tree_iterator@V?$_Tree_val@U?$_Tree_simple_types@U?$pair@$$CBIPEAUtagOSIMG@@@std@@@std@@@std@@@std@@_NX$0A@@?$pair@V?$_Tree_iterator@V?$_Tree_val@U?$_Tree_simple_types@U?$pair@$$CBIPEAUtagOSIMG@@@std@@@std@@@std@@@std@@_N@std@@QEAA@$$QEAV?$_Tree_iterator@V?$_Tree_val@U?$_Tree_simple_types@U?$pair@$$CBIPEAUtagOSIMG@@@std@@@std@@@std@@@1@$$QEA_N@Z 0000000180056c80 f i ManagerLib:OsImgLogic.obj
 0001:00055c80       ??$?0AEAV?$_Tree_iterator@V?$_Tree_val@U?$_Tree_simple_types@U?$pair@$$CBGPEAUtagPARTIMG@@@std@@@std@@@std@@@std@@_NX$0A@@?$pair@V?$_Tree_iterator@V?$_Tree_val@U?$_Tree_simple_types@U?$pair@$$CBGPEAUtagPARTIMG@@@std@@@std@@@std@@@std@@_N@std@@QEAA@AEAV?$_Tree_iterator@V?$_Tree_val@U?$_Tree_simple_types@U?$pair@$$CBGPEAUtagPARTIMG@@@std@@@std@@@std@@@1@$$QEA_N@Z 0000000180056c80 f i ManagerLib:PartImgLogic.obj
 0001:00055c80       ??$?0AEAV?$_Tree_iterator@V?$_Tree_val@U?$_Tree_simple_types@U?$pair@$$CBIPEAUtagMACHINEINFO@@@std@@@std@@@std@@@std@@_NX$0A@@?$pair@V?$_Tree_iterator@V?$_Tree_val@U?$_Tree_simple_types@U?$pair@$$CBIPEAUtagMACHINEINFO@@@std@@@std@@@std@@@std@@_N@std@@QEAA@AEAV?$_Tree_iterator@V?$_Tree_val@U?$_Tree_simple_types@U?$pair@$$CBIPEAUtagMACHINEINFO@@@std@@@std@@@std@@@1@$$QEA_N@Z 0000000180056c80 f i ManagerLib:GroupLogic.obj
 0001:00055c80       ??$?0V?$_Tree_iterator@V?$_Tree_val@U?$_Tree_simple_types@U?$pair@$$CBIPEAUtagMACHINEINFO@@@std@@@std@@@std@@@std@@_NX$0A@@?$pair@V?$_Tree_iterator@V?$_Tree_val@U?$_Tree_simple_types@U?$pair@$$CBIPEAUtagMACHINEINFO@@@std@@@std@@@std@@@std@@_N@std@@QEAA@$$QEAV?$_Tree_iterator@V?$_Tree_val@U?$_Tree_simple_types@U?$pair@$$CBIPEAUtagMACHINEINFO@@@std@@@std@@@std@@@1@$$QEA_N@Z 0000000180056c80 f i ManagerLib:GroupLogic.obj
 0001:00055d00       ??$_Buynode@U?$pair@$$CBIPEAUtagGROUPINFO@@@std@@@?$_Tree_comp_alloc@V?$_Tmap_traits@IPEAUtagGROUPINFO@@U?$less@I@std@@V?$allocator@U?$pair@$$CBIPEAUtagGROUPINFO@@@std@@@3@$0A@@std@@@std@@QEAAPEAU?$_Tree_node@U?$pair@$$CBIPEAUtagGROUPINFO@@@std@@PEAX@1@$$QEAU?$pair@$$CBIPEAUtagGROUPINFO@@@1@@Z 0000000180056d00 f i ManagerLib:GroupLogic.obj
 0001:00055de0       ??$_Buynode@U?$pair@$$CBIPEAUtagMACHINEINFO@@@std@@@?$_Tree_comp_alloc@V?$_Tmap_traits@IPEAUtagMACHINEINFO@@U?$less@I@std@@V?$allocator@U?$pair@$$CBIPEAUtagMACHINEINFO@@@std@@@3@$0A@@std@@@std@@QEAAPEAU?$_Tree_node@U?$pair@$$CBIPEAUtagMACHINEINFO@@@std@@PEAX@1@$$QEAU?$pair@$$CBIPEAUtagMACHINEINFO@@@1@@Z 0000000180056de0 f i ManagerLib:GroupLogic.obj
 0001:00055ec0       ??$_Buynode_if_nil@U?$pair@$$CBIPEAUtagGROUPINFO@@@std@@@?$_Tree@V?$_Tmap_traits@IPEAUtagGROUPINFO@@U?$less@I@std@@V?$allocator@U?$pair@$$CBIPEAUtagGROUPINFO@@@std@@@3@$0A@@std@@@std@@IEAAPEAU?$_Tree_node@U?$pair@$$CBIPEAUtagGROUPINFO@@@std@@PEAX@1@U_Nil@1@$$QEAU?$pair@$$CBIPEAUtagGROUPINFO@@@1@@Z 0000000180056ec0 f i ManagerLib:GroupLogic.obj
 0001:00055f20       ??$_Buynode_if_nil@U?$pair@$$CBIPEAUtagMACHINEINFO@@@std@@@?$_Tree@V?$_Tmap_traits@IPEAUtagMACHINEINFO@@U?$less@I@std@@V?$allocator@U?$pair@$$CBIPEAUtagMACHINEINFO@@@std@@@3@$0A@@std@@@std@@IEAAPEAU?$_Tree_node@U?$pair@$$CBIPEAUtagMACHINEINFO@@@std@@PEAX@1@U_Nil@1@$$QEAU?$pair@$$CBIPEAUtagMACHINEINFO@@@1@@Z 0000000180056f20 f i ManagerLib:GroupLogic.obj
 0001:00055f80       ??$_Insert_at@U?$pair@$$CBIPEAUtagGROUPINFO@@@std@@U_Nil@2@@?$_Tree@V?$_Tmap_traits@IPEAUtagGROUPINFO@@U?$less@I@std@@V?$allocator@U?$pair@$$CBIPEAUtagGROUPINFO@@@std@@@3@$0A@@std@@@std@@IEAA?AV?$_Tree_iterator@V?$_Tree_val@U?$_Tree_simple_types@U?$pair@$$CBIPEAUtagGROUPINFO@@@std@@@std@@@std@@@1@_NPEAU?$_Tree_node@U?$pair@$$CBIPEAUtagGROUPINFO@@@std@@PEAX@1@$$QEAU?$pair@$$CBIPEAUtagGROUPINFO@@@1@U_Nil@1@@Z 0000000180056f80 f i ManagerLib:GroupLogic.obj
 0001:00056430       ??$_Insert_at@U?$pair@$$CBIPEAUtagMACHINEINFO@@@std@@U_Nil@2@@?$_Tree@V?$_Tmap_traits@IPEAUtagMACHINEINFO@@U?$less@I@std@@V?$allocator@U?$pair@$$CBIPEAUtagMACHINEINFO@@@std@@@3@$0A@@std@@@std@@IEAA?AV?$_Tree_iterator@V?$_Tree_val@U?$_Tree_simple_types@U?$pair@$$CBIPEAUtagMACHINEINFO@@@std@@@std@@@std@@@1@_NPEAU?$_Tree_node@U?$pair@$$CBIPEAUtagMACHINEINFO@@@std@@PEAX@1@$$QEAU?$pair@$$CBIPEAUtagMACHINEINFO@@@1@U_Nil@1@@Z 0000000180057430 f i ManagerLib:GroupLogic.obj
 0001:000568e0       ??$_Insert_nohint@U?$pair@$$CBIPEAUtagGROUPINFO@@@std@@U_Nil@2@@?$_Tree@V?$_Tmap_traits@IPEAUtagGROUPINFO@@U?$less@I@std@@V?$allocator@U?$pair@$$CBIPEAUtagGROUPINFO@@@std@@@3@$0A@@std@@@std@@IEAA?AU?$pair@V?$_Tree_iterator@V?$_Tree_val@U?$_Tree_simple_types@U?$pair@$$CBIPEAUtagGROUPINFO@@@std@@@std@@@std@@@std@@_N@1@_N$$QEAU?$pair@$$CBIPEAUtagGROUPINFO@@@1@U_Nil@1@@Z 00000001800578e0 f i ManagerLib:GroupLogic.obj
 0001:00056d90       ??$_Insert_nohint@U?$pair@$$CBIPEAUtagMACHINEINFO@@@std@@U_Nil@2@@?$_Tree@V?$_Tmap_traits@IPEAUtagMACHINEINFO@@U?$less@I@std@@V?$allocator@U?$pair@$$CBIPEAUtagMACHINEINFO@@@std@@@3@$0A@@std@@@std@@IEAA?AU?$pair@V?$_Tree_iterator@V?$_Tree_val@U?$_Tree_simple_types@U?$pair@$$CBIPEAUtagMACHINEINFO@@@std@@@std@@@std@@@std@@_N@1@_N$$QEAU?$pair@$$CBIPEAUtagMACHINEINFO@@@1@U_Nil@1@@Z 0000000180057d90 f i ManagerLib:GroupLogic.obj
 0001:00057240       ??$construct@PEAU?$_Tree_node@U?$pair@$$CBIPEAUtagOSIMG@@@std@@PEAX@std@@AEAPEAU12@@?$_Wrap_alloc@V?$allocator@U?$_Tree_node@U?$pair@$$CBIPEAUtagOSIMG@@@std@@PEAX@std@@@std@@@std@@QEAAXPEAPEAU?$_Tree_node@U?$pair@$$CBIPEAUtagOSIMG@@@std@@PEAX@1@AEAPEAU21@@Z 0000000180058240 f i ManagerLib:OsImgLogic.obj
 0001:00057240       ??$construct@PEAU?$_Tree_node@U?$pair@$$CBIPEAUtagREQUEST_EX@@@std@@PEAX@std@@AEAPEAU12@@?$_Wrap_alloc@V?$allocator@U?$_Tree_node@U?$pair@$$CBIPEAUtagREQUEST_EX@@@std@@PEAX@std@@@std@@@std@@QEAAXPEAPEAU?$_Tree_node@U?$pair@$$CBIPEAUtagREQUEST_EX@@@std@@PEAX@1@AEAPEAU21@@Z 0000000180058240 f i ManagerLib:SessionBuildPartImgCnt.obj
 0001:00057240       ??$construct@PEAU?$_Tree_node@U?$pair@$$CBHPEAVPacketHandler@@@std@@PEAX@std@@AEAPEAU12@@?$_Wrap_alloc@V?$allocator@U?$_Tree_node@U?$pair@$$CBHPEAVPacketHandler@@@std@@PEAX@std@@@std@@@std@@QEAAXPEAPEAU?$_Tree_node@U?$pair@$$CBHPEAVPacketHandler@@@std@@PEAX@1@AEAPEAU21@@Z 0000000180058240 f i ManagerLib:PacketHandlers.obj
 0001:00057240       ??$construct@PEAU?$_Tree_node@U?$pair@$$CBIW4LogicType@@@std@@PEAX@std@@AEAPEAU12@@?$_Wrap_alloc@V?$allocator@U?$_Tree_node@U?$pair@$$CBIW4LogicType@@@std@@PEAX@std@@@std@@@std@@QEAAXPEAPEAU?$_Tree_node@U?$pair@$$CBIW4LogicType@@@std@@PEAX@1@AEAPEAU21@@Z 0000000180058240 f i ManagerLib:LogicManager.obj
 0001:00057240       ??$construct@PEAU?$_Tree_node@U?$pair@$$CBIUtagUSERLIST_ITEM@@@std@@PEAX@std@@AEAPEAU12@@?$_Wrap_alloc@V?$allocator@U?$_Tree_node@U?$pair@$$CBIUtagUSERLIST_ITEM@@@std@@PEAX@std@@@std@@@std@@QEAAXPEAPEAU?$_Tree_node@U?$pair@$$CBIUtagUSERLIST_ITEM@@@std@@PEAX@1@AEAPEAU21@@Z 0000000180058240 f i ManagerLib:UserLogic.obj
 0001:00057240       ??$construct@PEAU?$_Tree_node@U?$pair@$$CBGPEAUtagPARTIMG@@@std@@PEAX@std@@AEAPEAU12@@?$_Wrap_alloc@V?$allocator@U?$_Tree_node@U?$pair@$$CBGPEAUtagPARTIMG@@@std@@PEAX@std@@@std@@@std@@QEAAXPEAPEAU?$_Tree_node@U?$pair@$$CBGPEAUtagPARTIMG@@@std@@PEAX@1@AEAPEAU21@@Z 0000000180058240 f i ManagerLib:PartImgLogic.obj
 0001:00057240       ??$construct@PEAU?$_Tree_node@U?$pair@$$CBIPEAUtagDISKIMG@@@std@@PEAX@std@@AEAPEAU12@@?$_Wrap_alloc@V?$allocator@U?$_Tree_node@U?$pair@$$CBIPEAUtagDISKIMG@@@std@@PEAX@std@@@std@@@std@@QEAAXPEAPEAU?$_Tree_node@U?$pair@$$CBIPEAUtagDISKIMG@@@std@@PEAX@1@AEAPEAU21@@Z 0000000180058240 f i ManagerLib:DiskLogic.obj
 0001:00057240       ??$construct@PEAU?$_Tree_node@U?$pair@$$CBIPEAUtagMACHINEINFO@@@std@@PEAX@std@@AEAPEAU12@@?$_Wrap_alloc@V?$allocator@U?$_Tree_node@U?$pair@$$CBIPEAUtagMACHINEINFO@@@std@@PEAX@std@@@std@@@std@@QEAAXPEAPEAU?$_Tree_node@U?$pair@$$CBIPEAUtagMACHINEINFO@@@std@@PEAX@1@AEAPEAU21@@Z 0000000180058240 f i ManagerLib:GroupLogic.obj
 0001:00057240       ??$construct@PEAU?$_Tree_node@U?$pair@$$CBIPEAUtagGROUPINFO@@@std@@PEAX@std@@AEAPEAU12@@?$_Wrap_alloc@V?$allocator@U?$_Tree_node@U?$pair@$$CBIPEAUtagGROUPINFO@@@std@@PEAX@std@@@std@@@std@@QEAAXPEAPEAU?$_Tree_node@U?$pair@$$CBIPEAUtagGROUPINFO@@@std@@PEAX@1@AEAPEAU21@@Z 0000000180058240 f i ManagerLib:GroupLogic.obj
 0001:000572a0       ??$construct@PEAU?$_Tree_node@U?$pair@$$CBIUtagUSERLIST_ITEM@@@std@@PEAX@std@@AEAPEAU12@@?$allocator@U?$_Tree_node@U?$pair@$$CBIUtagUSERLIST_ITEM@@@std@@PEAX@std@@@std@@QEAAXPEAPEAU?$_Tree_node@U?$pair@$$CBIUtagUSERLIST_ITEM@@@std@@PEAX@1@AEAPEAU21@@Z 00000001800582a0 f i ManagerLib:UserLogic.obj
 0001:000572a0       ??$construct@PEAU?$_Tree_node@U?$pair@$$CBIW4LogicType@@@std@@PEAX@std@@AEAPEAU12@@?$allocator@U?$_Tree_node@U?$pair@$$CBIW4LogicType@@@std@@PEAX@std@@@std@@QEAAXPEAPEAU?$_Tree_node@U?$pair@$$CBIW4LogicType@@@std@@PEAX@1@AEAPEAU21@@Z 00000001800582a0 f i ManagerLib:LogicManager.obj
 0001:000572a0       ??$construct@PEAU?$_Tree_node@U?$pair@$$CBIPEAUtagGROUPINFO@@@std@@PEAX@std@@AEAPEAU12@@?$allocator@U?$_Tree_node@U?$pair@$$CBIPEAUtagGROUPINFO@@@std@@PEAX@std@@@std@@QEAAXPEAPEAU?$_Tree_node@U?$pair@$$CBIPEAUtagGROUPINFO@@@std@@PEAX@1@AEAPEAU21@@Z 00000001800582a0 f i ManagerLib:GroupLogic.obj
 0001:000572a0       ??$construct@PEAU?$_Tree_node@U?$pair@$$CBIPEAUtagREQUEST_EX@@@std@@PEAX@std@@AEAPEAU12@@?$allocator@U?$_Tree_node@U?$pair@$$CBIPEAUtagREQUEST_EX@@@std@@PEAX@std@@@std@@QEAAXPEAPEAU?$_Tree_node@U?$pair@$$CBIPEAUtagREQUEST_EX@@@std@@PEAX@1@AEAPEAU21@@Z 00000001800582a0 f i ManagerLib:SessionBuildPartImgCnt.obj
 0001:000572a0       ??$construct@PEAU?$_Tree_node@U?$pair@$$CBIPEAUtagMACHINEINFO@@@std@@PEAX@std@@AEAPEAU12@@?$allocator@U?$_Tree_node@U?$pair@$$CBIPEAUtagMACHINEINFO@@@std@@PEAX@std@@@std@@QEAAXPEAPEAU?$_Tree_node@U?$pair@$$CBIPEAUtagMACHINEINFO@@@std@@PEAX@1@AEAPEAU21@@Z 00000001800582a0 f i ManagerLib:GroupLogic.obj
 0001:000572a0       ??$construct@PEAU?$_Tree_node@U?$pair@$$CBHPEAVPacketHandler@@@std@@PEAX@std@@AEAPEAU12@@?$allocator@U?$_Tree_node@U?$pair@$$CBHPEAVPacketHandler@@@std@@PEAX@std@@@std@@QEAAXPEAPEAU?$_Tree_node@U?$pair@$$CBHPEAVPacketHandler@@@std@@PEAX@1@AEAPEAU21@@Z 00000001800582a0 f i ManagerLib:PacketHandlers.obj
 0001:000572a0       ??$construct@PEAU?$_Tree_node@U?$pair@$$CBGPEAUtagPARTIMG@@@std@@PEAX@std@@AEAPEAU12@@?$allocator@U?$_Tree_node@U?$pair@$$CBGPEAUtagPARTIMG@@@std@@PEAX@std@@@std@@QEAAXPEAPEAU?$_Tree_node@U?$pair@$$CBGPEAUtagPARTIMG@@@std@@PEAX@1@AEAPEAU21@@Z 00000001800582a0 f i ManagerLib:PartImgLogic.obj
 0001:000572a0       ??$construct@PEAU?$_Tree_node@U?$pair@$$CBIPEAUtagDISKIMG@@@std@@PEAX@std@@AEAPEAU12@@?$allocator@U?$_Tree_node@U?$pair@$$CBIPEAUtagDISKIMG@@@std@@PEAX@std@@@std@@QEAAXPEAPEAU?$_Tree_node@U?$pair@$$CBIPEAUtagDISKIMG@@@std@@PEAX@1@AEAPEAU21@@Z 00000001800582a0 f i ManagerLib:DiskLogic.obj
 0001:000572a0       ??$construct@PEAU?$_Tree_node@U?$pair@$$CBIPEAUtagOSIMG@@@std@@PEAX@std@@AEAPEAU12@@?$allocator@U?$_Tree_node@U?$pair@$$CBIPEAUtagOSIMG@@@std@@PEAX@std@@@std@@QEAAXPEAPEAU?$_Tree_node@U?$pair@$$CBIPEAUtagOSIMG@@@std@@PEAX@1@AEAPEAU21@@Z 00000001800582a0 f i ManagerLib:OsImgLogic.obj
 0001:00057340       ??$construct@PEAU?$_Tree_node@U?$pair@$$CBGPEAUtagPARTIMG@@@std@@PEAX@std@@AEAPEAU12@@?$allocator_traits@V?$allocator@U?$_Tree_node@U?$pair@$$CBGPEAUtagPARTIMG@@@std@@PEAX@std@@@std@@@std@@SAXAEAV?$allocator@U?$_Tree_node@U?$pair@$$CBGPEAUtagPARTIMG@@@std@@PEAX@std@@@1@PEAPEAU?$_Tree_node@U?$pair@$$CBGPEAUtagPARTIMG@@@std@@PEAX@1@AEAPEAU31@@Z 0000000180058340 f i ManagerLib:PartImgLogic.obj
 0001:00057340       ??$construct@PEAU?$_Tree_node@U?$pair@$$CBHPEAVPacketHandler@@@std@@PEAX@std@@AEAPEAU12@@?$allocator_traits@V?$allocator@U?$_Tree_node@U?$pair@$$CBHPEAVPacketHandler@@@std@@PEAX@std@@@std@@@std@@SAXAEAV?$allocator@U?$_Tree_node@U?$pair@$$CBHPEAVPacketHandler@@@std@@PEAX@std@@@1@PEAPEAU?$_Tree_node@U?$pair@$$CBHPEAVPacketHandler@@@std@@PEAX@1@AEAPEAU31@@Z 0000000180058340 f i ManagerLib:PacketHandlers.obj
 0001:00057340       ??$construct@PEAU?$_Tree_node@U?$pair@$$CBIPEAUtagGROUPINFO@@@std@@PEAX@std@@AEAPEAU12@@?$allocator_traits@V?$allocator@U?$_Tree_node@U?$pair@$$CBIPEAUtagGROUPINFO@@@std@@PEAX@std@@@std@@@std@@SAXAEAV?$allocator@U?$_Tree_node@U?$pair@$$CBIPEAUtagGROUPINFO@@@std@@PEAX@std@@@1@PEAPEAU?$_Tree_node@U?$pair@$$CBIPEAUtagGROUPINFO@@@std@@PEAX@1@AEAPEAU31@@Z 0000000180058340 f i ManagerLib:GroupLogic.obj
 0001:00057340       ??$construct@PEAU?$_Tree_node@U?$pair@$$CBIPEAUtagMACHINEINFO@@@std@@PEAX@std@@AEAPEAU12@@?$allocator_traits@V?$allocator@U?$_Tree_node@U?$pair@$$CBIPEAUtagMACHINEINFO@@@std@@PEAX@std@@@std@@@std@@SAXAEAV?$allocator@U?$_Tree_node@U?$pair@$$CBIPEAUtagMACHINEINFO@@@std@@PEAX@std@@@1@PEAPEAU?$_Tree_node@U?$pair@$$CBIPEAUtagMACHINEINFO@@@std@@PEAX@1@AEAPEAU31@@Z 0000000180058340 f i ManagerLib:GroupLogic.obj
 0001:00057340       ??$construct@PEAU?$_Tree_node@U?$pair@$$CBIUtagUSERLIST_ITEM@@@std@@PEAX@std@@AEAPEAU12@@?$allocator_traits@V?$allocator@U?$_Tree_node@U?$pair@$$CBIUtagUSERLIST_ITEM@@@std@@PEAX@std@@@std@@@std@@SAXAEAV?$allocator@U?$_Tree_node@U?$pair@$$CBIUtagUSERLIST_ITEM@@@std@@PEAX@std@@@1@PEAPEAU?$_Tree_node@U?$pair@$$CBIUtagUSERLIST_ITEM@@@std@@PEAX@1@AEAPEAU31@@Z 0000000180058340 f i ManagerLib:UserLogic.obj
 0001:00057340       ??$construct@PEAU?$_Tree_node@U?$pair@$$CBIPEAUtagDISKIMG@@@std@@PEAX@std@@AEAPEAU12@@?$allocator_traits@V?$allocator@U?$_Tree_node@U?$pair@$$CBIPEAUtagDISKIMG@@@std@@PEAX@std@@@std@@@std@@SAXAEAV?$allocator@U?$_Tree_node@U?$pair@$$CBIPEAUtagDISKIMG@@@std@@PEAX@std@@@1@PEAPEAU?$_Tree_node@U?$pair@$$CBIPEAUtagDISKIMG@@@std@@PEAX@1@AEAPEAU31@@Z 0000000180058340 f i ManagerLib:DiskLogic.obj
 0001:00057340       ??$construct@PEAU?$_Tree_node@U?$pair@$$CBIPEAUtagREQUEST_EX@@@std@@PEAX@std@@AEAPEAU12@@?$allocator_traits@V?$allocator@U?$_Tree_node@U?$pair@$$CBIPEAUtagREQUEST_EX@@@std@@PEAX@std@@@std@@@std@@SAXAEAV?$allocator@U?$_Tree_node@U?$pair@$$CBIPEAUtagREQUEST_EX@@@std@@PEAX@std@@@1@PEAPEAU?$_Tree_node@U?$pair@$$CBIPEAUtagREQUEST_EX@@@std@@PEAX@1@AEAPEAU31@@Z 0000000180058340 f i ManagerLib:SessionBuildPartImgCnt.obj
 0001:00057340       ??$construct@PEAU?$_Tree_node@U?$pair@$$CBIPEAUtagOSIMG@@@std@@PEAX@std@@AEAPEAU12@@?$allocator_traits@V?$allocator@U?$_Tree_node@U?$pair@$$CBIPEAUtagOSIMG@@@std@@PEAX@std@@@std@@@std@@SAXAEAV?$allocator@U?$_Tree_node@U?$pair@$$CBIPEAUtagOSIMG@@@std@@PEAX@std@@@1@PEAPEAU?$_Tree_node@U?$pair@$$CBIPEAUtagOSIMG@@@std@@PEAX@1@AEAPEAU31@@Z 0000000180058340 f i ManagerLib:OsImgLogic.obj
 0001:00057340       ??$construct@PEAU?$_Tree_node@U?$pair@$$CBIW4LogicType@@@std@@PEAX@std@@AEAPEAU12@@?$allocator_traits@V?$allocator@U?$_Tree_node@U?$pair@$$CBIW4LogicType@@@std@@PEAX@std@@@std@@@std@@SAXAEAV?$allocator@U?$_Tree_node@U?$pair@$$CBIW4LogicType@@@std@@PEAX@std@@@1@PEAPEAU?$_Tree_node@U?$pair@$$CBIW4LogicType@@@std@@PEAX@1@AEAPEAU31@@Z 0000000180058340 f i ManagerLib:LogicManager.obj
 0001:000573a0       ??$construct@U?$pair@$$CBIPEAUtagOSIMG@@@std@@U12@@?$_Wrap_alloc@V?$allocator@U?$_Tree_node@U?$pair@$$CBIPEAUtagOSIMG@@@std@@PEAX@std@@@std@@@std@@QEAAXPEAU?$pair@$$CBIPEAUtagOSIMG@@@1@$$QEAU21@@Z 00000001800583a0 f i ManagerLib:OsImgLogic.obj
 0001:000573a0       ??$construct@U?$pair@$$CBIPEAUtagMACHINEINFO@@@std@@U12@@?$_Wrap_alloc@V?$allocator@U?$_Tree_node@U?$pair@$$CBIPEAUtagMACHINEINFO@@@std@@PEAX@std@@@std@@@std@@QEAAXPEAU?$pair@$$CBIPEAUtagMACHINEINFO@@@1@$$QEAU21@@Z 00000001800583a0 f i ManagerLib:GroupLogic.obj
 0001:000573a0       ??$construct@U?$pair@$$CBIPEAUtagDISKIMG@@@std@@U12@@?$_Wrap_alloc@V?$allocator@U?$_Tree_node@U?$pair@$$CBIPEAUtagDISKIMG@@@std@@PEAX@std@@@std@@@std@@QEAAXPEAU?$pair@$$CBIPEAUtagDISKIMG@@@1@$$QEAU21@@Z 00000001800583a0 f i ManagerLib:DiskLogic.obj
 0001:000573a0       ??$construct@U?$pair@$$CBIPEAUtagGROUPINFO@@@std@@U12@@?$_Wrap_alloc@V?$allocator@U?$_Tree_node@U?$pair@$$CBIPEAUtagGROUPINFO@@@std@@PEAX@std@@@std@@@std@@QEAAXPEAU?$pair@$$CBIPEAUtagGROUPINFO@@@1@$$QEAU21@@Z 00000001800583a0 f i ManagerLib:GroupLogic.obj
 0001:000573a0       ??$construct@U?$pair@$$CBIPEAUtagREQUEST_EX@@@std@@U12@@?$_Wrap_alloc@V?$allocator@U?$_Tree_node@U?$pair@$$CBIPEAUtagREQUEST_EX@@@std@@PEAX@std@@@std@@@std@@QEAAXPEAU?$pair@$$CBIPEAUtagREQUEST_EX@@@1@$$QEAU21@@Z 00000001800583a0 f i ManagerLib:SessionBuildPartImgCnt.obj
 0001:000573a0       ??$construct@U?$pair@$$CBGPEAUtagPARTIMG@@@std@@U12@@?$_Wrap_alloc@V?$allocator@U?$_Tree_node@U?$pair@$$CBGPEAUtagPARTIMG@@@std@@PEAX@std@@@std@@@std@@QEAAXPEAU?$pair@$$CBGPEAUtagPARTIMG@@@1@$$QEAU21@@Z 00000001800583a0 f i ManagerLib:PartImgLogic.obj
 0001:00057400       ??$insert@$0A@$0A@@?$_Tree@V?$_Tmap_traits@IPEAUtagGROUPINFO@@U?$less@I@std@@V?$allocator@U?$pair@$$CBIPEAUtagGROUPINFO@@@std@@@3@$0A@@std@@@std@@QEAA?AU?$pair@V?$_Tree_iterator@V?$_Tree_val@U?$_Tree_simple_types@U?$pair@$$CBIPEAUtagGROUPINFO@@@std@@@std@@@std@@@std@@_N@1@$$QEAU?$pair@$$CBIPEAUtagGROUPINFO@@@1@@Z 0000000180058400 f i ManagerLib:GroupLogic.obj
 0001:00057480       ??$insert@$0A@$0A@@?$_Tree@V?$_Tmap_traits@IPEAUtagMACHINEINFO@@U?$less@I@std@@V?$allocator@U?$pair@$$CBIPEAUtagMACHINEINFO@@@std@@@3@$0A@@std@@@std@@QEAA?AU?$pair@V?$_Tree_iterator@V?$_Tree_val@U?$_Tree_simple_types@U?$pair@$$CBIPEAUtagMACHINEINFO@@@std@@@std@@@std@@@std@@_N@1@$$QEAU?$pair@$$CBIPEAUtagMACHINEINFO@@@1@@Z 0000000180058480 f i ManagerLib:GroupLogic.obj
 0001:00057500       ??0?$CLogicBase@VCGroupLogic@@@@QEAA@XZ 0000000180058500 f i ManagerLib:GroupLogic.obj
 0001:00057560       ??0?$CPacketGateBaseTemplate@VCGroupLogic@@@@QEAA@XZ 0000000180058560 f i ManagerLib:GroupLogic.obj
 0001:00057650       ??0?$KSingleton@VCGroupLogic@@@Patterns@System@@IEAA@XZ 0000000180058650 f i ManagerLib:GroupLogic.obj
 0001:000576a0       ??0?$_Tree@V?$_Tmap_traits@IPEAUtagGROUPINFO@@U?$less@I@std@@V?$allocator@U?$pair@$$CBIPEAUtagGROUPINFO@@@std@@@3@$0A@@std@@@std@@QEAA@AEBU?$less@I@1@@Z 00000001800586a0 f i ManagerLib:GroupLogic.obj
 0001:00057700       ??0?$_Tree@V?$_Tmap_traits@IPEAUtagMACHINEINFO@@U?$less@I@std@@V?$allocator@U?$pair@$$CBIPEAUtagMACHINEINFO@@@std@@@3@$0A@@std@@@std@@QEAA@AEBU?$less@I@1@@Z 0000000180058700 f i ManagerLib:GroupLogic.obj
 0001:00057760       ??0?$_Tree_comp_alloc@V?$_Tmap_traits@IPEAUtagGROUPINFO@@U?$less@I@std@@V?$allocator@U?$pair@$$CBIPEAUtagGROUPINFO@@@std@@@3@$0A@@std@@@std@@QEAA@AEBU?$less@I@1@@Z 0000000180058760 f i ManagerLib:GroupLogic.obj
 0001:000577d0       ??0?$_Tree_comp_alloc@V?$_Tmap_traits@IPEAUtagMACHINEINFO@@U?$less@I@std@@V?$allocator@U?$pair@$$CBIPEAUtagMACHINEINFO@@@std@@@3@$0A@@std@@@std@@QEAA@AEBU?$less@I@1@@Z 00000001800587d0 f i ManagerLib:GroupLogic.obj
 0001:00057840       ??0?$_Wrap_alloc@V?$allocator@U?$_Tree_node@U?$pair@$$CBIW4LogicType@@@std@@PEAX@std@@@std@@@std@@QEAA@XZ 0000000180058840 f i ManagerLib:LogicManager.obj
 0001:00057840       ??0?$_Wrap_alloc@V?$allocator@U?$_Tree_node@U?$pair@$$CBIUtagUSERLIST_ITEM@@@std@@PEAX@std@@@std@@@std@@QEAA@XZ 0000000180058840 f i ManagerLib:UserLogic.obj
 0001:00057840       ??0?$_Wrap_alloc@V?$allocator@U?$_Tree_node@U?$pair@$$CBIPEAUtagDISKIMG@@@std@@PEAX@std@@@std@@@std@@QEAA@XZ 0000000180058840 f i ManagerLib:DiskLogic.obj
 0001:00057840       ??0?$_Wrap_alloc@V?$allocator@U?$_Tree_node@U?$pair@$$CBGPEAUtagPARTIMG@@@std@@PEAX@std@@@std@@@std@@QEAA@XZ 0000000180058840 f i ManagerLib:PartImgLogic.obj
 0001:00057840       ??0?$_Wrap_alloc@V?$allocator@U?$_Tree_node@U?$pair@$$CBIPEAUtagGROUPINFO@@@std@@PEAX@std@@@std@@@std@@QEAA@XZ 0000000180058840 f i ManagerLib:GroupLogic.obj
 0001:00057840       ??0?$_Wrap_alloc@V?$allocator@U?$_Tree_node@U?$pair@$$CBIPEAUtagREQUEST_EX@@@std@@PEAX@std@@@std@@@std@@QEAA@XZ 0000000180058840 f i ManagerLib:SessionBuildPartImgCnt.obj
 0001:00057840       ??0?$_Wrap_alloc@V?$allocator@U?$_Tree_node@U?$pair@$$CBHPEAVPacketHandler@@@std@@PEAX@std@@@std@@@std@@QEAA@XZ 0000000180058840 f i ManagerLib:PacketHandlers.obj
 0001:00057840       ??0?$_Wrap_alloc@V?$allocator@U?$_Tree_node@U?$pair@$$CBIPEAUtagMACHINEINFO@@@std@@PEAX@std@@@std@@@std@@QEAA@XZ 0000000180058840 f i ManagerLib:GroupLogic.obj
 0001:00057840       ??0?$_Wrap_alloc@V?$allocator@U?$_Tree_node@U?$pair@$$CBIPEAUtagOSIMG@@@std@@PEAX@std@@@std@@@std@@QEAA@XZ 0000000180058840 f i ManagerLib:OsImgLogic.obj
 0001:00057840       ??$forward_as_tuple@$$V@std@@YA?AV?$tuple@$$V@0@XZ 0000000180058840 f i ManagerLib:LogicManager.obj
 0001:00057890       ??0?$map@IPEAUtagGROUPINFO@@U?$less@I@std@@V?$allocator@U?$pair@$$CBIPEAUtagGROUPINFO@@@std@@@3@@std@@QEAA@XZ 0000000180058890 f i ManagerLib:GroupLogic.obj
 0001:000578e0       ??0?$map@IPEAUtagMACHINEINFO@@U?$less@I@std@@V?$allocator@U?$pair@$$CBIPEAUtagMACHINEINFO@@@std@@@3@@std@@QEAA@XZ 00000001800588e0 f i ManagerLib:GroupLogic.obj
 0001:00057930       ??0CGroupLogic@@QEAA@XZ    0000000180058930 f   ManagerLib:GroupLogic.obj
 0001:00057a00       ??1?$CLogicBase@VCGroupLogic@@@@QEAA@XZ 0000000180058a00 f i ManagerLib:GroupLogic.obj
 0001:00057a50       ??1?$CPacketGateBaseTemplate@VCGroupLogic@@@@UEAA@XZ 0000000180058a50 f i ManagerLib:GroupLogic.obj
 0001:00057ac0       ??1?$KSingleton@VCGroupLogic@@@Patterns@System@@IEAA@XZ 0000000180058ac0 f i ManagerLib:GroupLogic.obj
 0001:00057b00       ??1?$_Tree@V?$_Tmap_traits@IPEAUtagGROUPINFO@@U?$less@I@std@@V?$allocator@U?$pair@$$CBIPEAUtagGROUPINFO@@@std@@@3@$0A@@std@@@std@@QEAA@XZ 0000000180058b00 f i ManagerLib:GroupLogic.obj
 0001:00057b60       ??1?$_Tree@V?$_Tmap_traits@IPEAUtagMACHINEINFO@@U?$less@I@std@@V?$allocator@U?$pair@$$CBIPEAUtagMACHINEINFO@@@std@@@3@$0A@@std@@@std@@QEAA@XZ 0000000180058b60 f i ManagerLib:GroupLogic.obj
 0001:00057bc0       ??1?$_Tree_comp_alloc@V?$_Tmap_traits@IPEAUtagGROUPINFO@@U?$less@I@std@@V?$allocator@U?$pair@$$CBIPEAUtagGROUPINFO@@@std@@@3@$0A@@std@@@std@@QEAA@XZ 0000000180058bc0 f i ManagerLib:GroupLogic.obj
 0001:00057c20       ??1?$_Tree_comp_alloc@V?$_Tmap_traits@IPEAUtagMACHINEINFO@@U?$less@I@std@@V?$allocator@U?$pair@$$CBIPEAUtagMACHINEINFO@@@std@@@3@$0A@@std@@@std@@QEAA@XZ 0000000180058c20 f i ManagerLib:GroupLogic.obj
 0001:00057c80       ??1?$map@IPEAUtagGROUPINFO@@U?$less@I@std@@V?$allocator@U?$pair@$$CBIPEAUtagGROUPINFO@@@std@@@3@@std@@QEAA@XZ 0000000180058c80 f i ManagerLib:GroupLogic.obj
 0001:00057cc0       ??1?$map@IPEAUtagMACHINEINFO@@U?$less@I@std@@V?$allocator@U?$pair@$$CBIPEAUtagMACHINEINFO@@@std@@@3@@std@@QEAA@XZ 0000000180058cc0 f i ManagerLib:GroupLogic.obj
 0001:00057d00       ??1CGroupLogic@@UEAA@XZ    0000000180058d00 f   ManagerLib:GroupLogic.obj
 0001:00057db0       ??C?$_Tree_iterator@V?$_Tree_val@U?$_Tree_simple_types@U?$pair@$$CBGPEAUtagPARTIMG@@@std@@@std@@@std@@@std@@QEBAPEAU?$pair@$$CBGPEAUtagPARTIMG@@@1@XZ 0000000180058db0 f i ManagerLib:PartImgLogic.obj
 0001:00057db0       ??C?$_Tree_iterator@V?$_Tree_val@U?$_Tree_simple_types@U?$pair@$$CBIPEAUtagDISKIMG@@@std@@@std@@@std@@@std@@QEBAPEAU?$pair@$$CBIPEAUtagDISKIMG@@@1@XZ 0000000180058db0 f i ManagerLib:DiskLogic.obj
 0001:00057db0       ??C?$_Tree_iterator@V?$_Tree_val@U?$_Tree_simple_types@U?$pair@$$CBHPEAVPacketHandler@@@std@@@std@@@std@@@std@@QEBAPEAU?$pair@$$CBHPEAVPacketHandler@@@1@XZ 0000000180058db0 f i ManagerLib:PacketHandlers.obj
 0001:00057db0       ??C?$_Tree_iterator@V?$_Tree_val@U?$_Tree_simple_types@U?$pair@$$CBIPEAUtagOSIMG@@@std@@@std@@@std@@@std@@QEBAPEAU?$pair@$$CBIPEAUtagOSIMG@@@1@XZ 0000000180058db0 f i ManagerLib:OsImgLogic.obj
 0001:00057db0       ??C?$_Tree_iterator@V?$_Tree_val@U?$_Tree_simple_types@U?$pair@$$CBIPEAUtagMACHINEINFO@@@std@@@std@@@std@@@std@@QEBAPEAU?$pair@$$CBIPEAUtagMACHINEINFO@@@1@XZ 0000000180058db0 f i ManagerLib:GroupLogic.obj
 0001:00057db0       ??C?$_Tree_iterator@V?$_Tree_val@U?$_Tree_simple_types@U?$pair@$$CBIPEAUtagGROUPINFO@@@std@@@std@@@std@@@std@@QEBAPEAU?$pair@$$CBIPEAUtagGROUPINFO@@@1@XZ 0000000180058db0 f i ManagerLib:GroupLogic.obj
 0001:00057db0       ??C?$_Tree_iterator@V?$_Tree_val@U?$_Tree_simple_types@U?$pair@$$CBIPEAUtagREQUEST_EX@@@std@@@std@@@std@@@std@@QEBAPEAU?$pair@$$CBIPEAUtagREQUEST_EX@@@1@XZ 0000000180058db0 f i ManagerLib:SessionBuildPartImgCnt.obj
 0001:00057e00       ??E?$_Tree_const_iterator@V?$_Tree_val@U?$_Tree_simple_types@U?$pair@$$CBIPEAUtagGROUPINFO@@@std@@@std@@@std@@@std@@QEAA?AV01@H@Z 0000000180058e00 f i ManagerLib:GroupLogic.obj
 0001:00057ec0       ??E?$_Tree_const_iterator@V?$_Tree_val@U?$_Tree_simple_types@U?$pair@$$CBIPEAUtagMACHINEINFO@@@std@@@std@@@std@@@std@@QEAA?AV01@H@Z 0000000180058ec0 f i ManagerLib:GroupLogic.obj
 0001:00057f80       ??_G?$CPacketGateBaseTemplate@VCGroupLogic@@@@UEAAPEAXI@Z 0000000180058f80 f i ManagerLib:GroupLogic.obj
 0001:00057f80       ??_E?$CPacketGateBaseTemplate@VCGroupLogic@@@@UEAAPEAXI@Z 0000000180058f80 f i ManagerLib:GroupLogic.obj
 0001:00057ff0       ??_ECGroupLogic@@UEAAPEAXI@Z 0000000180058ff0 f i ManagerLib:GroupLogic.obj
 0001:00057ff0       ??_GCGroupLogic@@UEAAPEAXI@Z 0000000180058ff0 f i ManagerLib:GroupLogic.obj
 0001:00058060       ?AddGroup@CGroupLogic@@QEAAJPEAUtagGROUPINFO@@@Z 0000000180059060 f   ManagerLib:GroupLogic.obj
 0001:00058190       ?AddMachine@CGroupLogic@@QEAAJPEAUtagMACHINEINFO@@@Z 0000000180059190 f   ManagerLib:GroupLogic.obj
 0001:000582c0       ?DeleteGroupFromGuid@CGroupLogic@@QEAAJI@Z 00000001800592c0 f   ManagerLib:GroupLogic.obj
 0001:00058440       ?DeleteMachineFromGuid@CGroupLogic@@QEAAJI@Z 0000000180059440 f   ManagerLib:GroupLogic.obj
 0001:000585c0       ?FindGroupInfoByGuid@CGroupLogic@@QEAAPEAUtagGROUPINFO@@I@Z 00000001800595c0 f   ManagerLib:GroupLogic.obj
 0001:00058720       ?FindMachineInfoFromGuid@CGroupLogic@@QEAAPEAUtagMACHINEINFO@@I@Z 0000000180059720 f   ManagerLib:GroupLogic.obj
 0001:00058880       ?HandleAddMachine@CGroupLogic@@QEAAHPEAUtagREQUEST_EX@@@Z 0000000180059880 f   ManagerLib:GroupLogic.obj
 0001:00058960       ?HandleBuildGroup@CGroupLogic@@QEAAHPEAUtagREQUEST_EX@@@Z 0000000180059960 f   ManagerLib:GroupLogic.obj
 0001:00058a50       ?HandleDeleteGroup@CGroupLogic@@QEAAHPEAUtagREQUEST_EX@@@Z 0000000180059a50 f   ManagerLib:GroupLogic.obj
 0001:00058b20       ?HandleDeleteMachine@CGroupLogic@@QEAAHPEAUtagREQUEST_EX@@@Z 0000000180059b20 f   ManagerLib:GroupLogic.obj
 0001:00058ba0       ?HandleUpdateGroupInfo@CGroupLogic@@QEAAHPEAUtagREQUEST_EX@@@Z 0000000180059ba0 f   ManagerLib:GroupLogic.obj
 0001:00058c20       ?HandleUpdateMachineInfo@CGroupLogic@@QEAAHPEAUtagREQUEST_EX@@@Z 0000000180059c20 f   ManagerLib:GroupLogic.obj
 0001:00058ca0       ?Initialize@CGroupLogic@@UEAAHXZ 0000000180059ca0 f   ManagerLib:GroupLogic.obj
 0001:00058f50       ?Process@?$CPacketGateBaseTemplate@VCGroupLogic@@@@UEAAHHPEAUtagREQUEST_EX@@@Z 0000000180059f50 f i ManagerLib:GroupLogic.obj
 0001:00059070       ?SetLogicType@?$CLogicBase@VCDiskLogic@@@@QEAAXW4LogicType@@@Z 000000018005a070 f i ManagerLib:DiskLogic.obj
 0001:00059070       ?SetLogicType@?$CLogicBase@VCGroupLogic@@@@QEAAXW4LogicType@@@Z 000000018005a070 f i ManagerLib:GroupLogic.obj
 0001:00059070       ?SetLogicType@?$CLogicBase@VCUserLogic@@@@QEAAXW4LogicType@@@Z 000000018005a070 f i ManagerLib:UserLogic.obj
 0001:00059070       ?SetLogicType@?$CLogicBase@VCOsImgLogic@@@@QEAAXW4LogicType@@@Z 000000018005a070 f i ManagerLib:OsImgLogic.obj
 0001:00059070       ?SetLogicType@?$CLogicBase@VCLoginLogic@@@@QEAAXW4LogicType@@@Z 000000018005a070 f i ManagerLib:LoginLogic.obj
 0001:00059070       ?SetLogicType@?$CLogicBase@VCDirLogic@@@@QEAAXW4LogicType@@@Z 000000018005a070 f i ManagerLib:DirLogic.obj
 0001:00059070       ?SetLogicType@?$CLogicBase@VCPartImgLogic@@@@QEAAXW4LogicType@@@Z 000000018005a070 f i ManagerLib:PartImgLogic.obj
 0001:000590c0       ?UpdateGroup@CGroupLogic@@QEAAJPEAUtagGROUPINFO@@@Z 000000018005a0c0 f   ManagerLib:GroupLogic.obj
 0001:00059240       ?UpdateMachine@CGroupLogic@@QEAAJPEAUtagMACHINEINFO@@@Z 000000018005a240 f   ManagerLib:GroupLogic.obj
 0001:000593c0       ?_Buyheadnode@?$_Tree_comp_alloc@V?$_Tmap_traits@IPEAUtagGROUPINFO@@U?$less@I@std@@V?$allocator@U?$pair@$$CBIPEAUtagGROUPINFO@@@std@@@3@$0A@@std@@@std@@QEAAPEAU?$_Tree_node@U?$pair@$$CBIPEAUtagGROUPINFO@@@std@@PEAX@2@XZ 000000018005a3c0 f i ManagerLib:GroupLogic.obj
 0001:00059540       ?_Buyheadnode@?$_Tree_comp_alloc@V?$_Tmap_traits@IPEAUtagMACHINEINFO@@U?$less@I@std@@V?$allocator@U?$pair@$$CBIPEAUtagMACHINEINFO@@@std@@@3@$0A@@std@@@std@@QEAAPEAU?$_Tree_node@U?$pair@$$CBIPEAUtagMACHINEINFO@@@std@@PEAX@2@XZ 000000018005a540 f i ManagerLib:GroupLogic.obj
 0001:000596c0       ?_Buynode0@?$_Tree_comp_alloc@V?$_Tmap_traits@IPEAUtagGROUPINFO@@U?$less@I@std@@V?$allocator@U?$pair@$$CBIPEAUtagGROUPINFO@@@std@@@3@$0A@@std@@@std@@QEAAPEAU?$_Tree_node@U?$pair@$$CBIPEAUtagGROUPINFO@@@std@@PEAX@2@XZ 000000018005a6c0 f i ManagerLib:GroupLogic.obj
 0001:00059840       ?_Buynode0@?$_Tree_comp_alloc@V?$_Tmap_traits@IPEAUtagMACHINEINFO@@U?$less@I@std@@V?$allocator@U?$pair@$$CBIPEAUtagMACHINEINFO@@@std@@@3@$0A@@std@@@std@@QEAAPEAU?$_Tree_node@U?$pair@$$CBIPEAUtagMACHINEINFO@@@std@@PEAX@2@XZ 000000018005a840 f i ManagerLib:GroupLogic.obj
 0001:000599c0       ?_Construct@?$_Tree_comp_alloc@V?$_Tmap_traits@IPEAUtagGROUPINFO@@U?$less@I@std@@V?$allocator@U?$pair@$$CBIPEAUtagGROUPINFO@@@std@@@3@$0A@@std@@@std@@QEAAXXZ 000000018005a9c0 f i ManagerLib:GroupLogic.obj
 0001:00059a20       ?_Construct@?$_Tree_comp_alloc@V?$_Tmap_traits@IPEAUtagMACHINEINFO@@U?$less@I@std@@V?$allocator@U?$pair@$$CBIPEAUtagMACHINEINFO@@@std@@@3@$0A@@std@@@std@@QEAAXXZ 000000018005aa20 f i ManagerLib:GroupLogic.obj
 0001:00059a80       ?_Isnil@?$_Tree_comp_alloc@V?$_Tmap_traits@GPEAUtagPARTIMG@@U?$less@G@std@@V?$allocator@U?$pair@$$CBGPEAUtagPARTIMG@@@std@@@3@$0A@@std@@@std@@SAAEADPEAU?$_Tree_node@U?$pair@$$CBGPEAUtagPARTIMG@@@std@@PEAX@2@@Z 000000018005aa80 f i ManagerLib:PartImgLogic.obj
 0001:00059a80       ?_Isnil@?$_Tree_comp_alloc@V?$_Tmap_traits@IW4LogicType@@U?$less@I@std@@V?$allocator@U?$pair@$$CBIW4LogicType@@@std@@@3@$0A@@std@@@std@@SAAEADPEAU?$_Tree_node@U?$pair@$$CBIW4LogicType@@@std@@PEAX@2@@Z 000000018005aa80 f i ManagerLib:LogicManager.obj
 0001:00059a80       ?_Isnil@?$_Tree_comp_alloc@V?$_Tmap_traits@IPEAUtagDISKIMG@@U?$less@I@std@@V?$allocator@U?$pair@$$CBIPEAUtagDISKIMG@@@std@@@3@$0A@@std@@@std@@SAAEADPEAU?$_Tree_node@U?$pair@$$CBIPEAUtagDISKIMG@@@std@@PEAX@2@@Z 000000018005aa80 f i ManagerLib:DiskLogic.obj
 0001:00059a80       ?_Isnil@?$_Tree_comp_alloc@V?$_Tmap_traits@HPEAVPacketHandler@@U?$less@H@std@@V?$allocator@U?$pair@$$CBHPEAVPacketHandler@@@std@@@3@$0A@@std@@@std@@SAAEADPEAU?$_Tree_node@U?$pair@$$CBHPEAVPacketHandler@@@std@@PEAX@2@@Z 000000018005aa80 f i ManagerLib:PacketHandlers.obj
 0001:00059a80       ?_Isnil@?$_Tree_comp_alloc@V?$_Tmap_traits@IPEAUtagREQUEST_EX@@U?$less@I@std@@V?$allocator@U?$pair@$$CBIPEAUtagREQUEST_EX@@@std@@@3@$0A@@std@@@std@@SAAEADPEAU?$_Tree_node@U?$pair@$$CBIPEAUtagREQUEST_EX@@@std@@PEAX@2@@Z 000000018005aa80 f i ManagerLib:SessionBuildPartImgCnt.obj
 0001:00059a80       ?_Isnil@?$_Tree_comp_alloc@V?$_Tmap_traits@IPEAUtagMACHINEINFO@@U?$less@I@std@@V?$allocator@U?$pair@$$CBIPEAUtagMACHINEINFO@@@std@@@3@$0A@@std@@@std@@SAAEADPEAU?$_Tree_node@U?$pair@$$CBIPEAUtagMACHINEINFO@@@std@@PEAX@2@@Z 000000018005aa80 f i ManagerLib:GroupLogic.obj
 0001:00059a80       ?_Isnil@?$_Tree_comp_alloc@V?$_Tmap_traits@IPEAUtagOSIMG@@U?$less@I@std@@V?$allocator@U?$pair@$$CBIPEAUtagOSIMG@@@std@@@3@$0A@@std@@@std@@SAAEADPEAU?$_Tree_node@U?$pair@$$CBIPEAUtagOSIMG@@@std@@PEAX@2@@Z 000000018005aa80 f i ManagerLib:OsImgLogic.obj
 0001:00059a80       ?_Isnil@?$_Tree_comp_alloc@V?$_Tmap_traits@IUtagUSERLIST_ITEM@@U?$less@I@std@@V?$allocator@U?$pair@$$CBIUtagUSERLIST_ITEM@@@std@@@3@$0A@@std@@@std@@SAAEADPEAU?$_Tree_node@U?$pair@$$CBIUtagUSERLIST_ITEM@@@std@@PEAX@2@@Z 000000018005aa80 f i ManagerLib:UserLogic.obj
 0001:00059a80       ?_Isnil@?$_Tree_comp_alloc@V?$_Tmap_traits@IPEAUtagGROUPINFO@@U?$less@I@std@@V?$allocator@U?$pair@$$CBIPEAUtagGROUPINFO@@@std@@@3@$0A@@std@@@std@@SAAEADPEAU?$_Tree_node@U?$pair@$$CBIPEAUtagGROUPINFO@@@std@@PEAX@2@@Z 000000018005aa80 f i ManagerLib:GroupLogic.obj
 0001:00059ac0       ?_Key@?$_Tree@V?$_Tmap_traits@IPEAUtagDISKIMG@@U?$less@I@std@@V?$allocator@U?$pair@$$CBIPEAUtagDISKIMG@@@std@@@3@$0A@@std@@@std@@IEBAAEBIPEAU?$_Tree_node@U?$pair@$$CBIPEAUtagDISKIMG@@@std@@PEAX@2@@Z 000000018005aac0 f i ManagerLib:DiskLogic.obj
 0001:00059ac0       ?_Key@?$_Tree@V?$_Tmap_traits@IPEAUtagMACHINEINFO@@U?$less@I@std@@V?$allocator@U?$pair@$$CBIPEAUtagMACHINEINFO@@@std@@@3@$0A@@std@@@std@@IEBAAEBIPEAU?$_Tree_node@U?$pair@$$CBIPEAUtagMACHINEINFO@@@std@@PEAX@2@@Z 000000018005aac0 f i ManagerLib:GroupLogic.obj
 0001:00059ac0       ?_Key@?$_Tree@V?$_Tmap_traits@IPEAUtagGROUPINFO@@U?$less@I@std@@V?$allocator@U?$pair@$$CBIPEAUtagGROUPINFO@@@std@@@3@$0A@@std@@@std@@IEBAAEBIPEAU?$_Tree_node@U?$pair@$$CBIPEAUtagGROUPINFO@@@std@@PEAX@2@@Z 000000018005aac0 f i ManagerLib:GroupLogic.obj
 0001:00059ac0       ?_Key@?$_Tree@V?$_Tmap_traits@GPEAUtagPARTIMG@@U?$less@G@std@@V?$allocator@U?$pair@$$CBGPEAUtagPARTIMG@@@std@@@3@$0A@@std@@@std@@IEBAAEBGPEAU?$_Tree_node@U?$pair@$$CBGPEAUtagPARTIMG@@@std@@PEAX@2@@Z 000000018005aac0 f i ManagerLib:PartImgLogic.obj
 0001:00059ac0       ?_Key@?$_Tree@V?$_Tmap_traits@IPEAUtagOSIMG@@U?$less@I@std@@V?$allocator@U?$pair@$$CBIPEAUtagOSIMG@@@std@@@3@$0A@@std@@@std@@IEBAAEBIPEAU?$_Tree_node@U?$pair@$$CBIPEAUtagOSIMG@@@std@@PEAX@2@@Z 000000018005aac0 f i ManagerLib:OsImgLogic.obj
 0001:00059ac0       ?_Key@?$_Tree@V?$_Tmap_traits@IPEAUtagREQUEST_EX@@U?$less@I@std@@V?$allocator@U?$pair@$$CBIPEAUtagREQUEST_EX@@@std@@@3@$0A@@std@@@std@@IEBAAEBIPEAU?$_Tree_node@U?$pair@$$CBIPEAUtagREQUEST_EX@@@std@@PEAX@2@@Z 000000018005aac0 f i ManagerLib:SessionBuildPartImgCnt.obj
 0001:00059ac0       ?_Key@?$_Tree@V?$_Tmap_traits@HPEAVPacketHandler@@U?$less@H@std@@V?$allocator@U?$pair@$$CBHPEAVPacketHandler@@@std@@@3@$0A@@std@@@std@@IEBAAEBHPEAU?$_Tree_node@U?$pair@$$CBHPEAVPacketHandler@@@std@@PEAX@2@@Z 000000018005aac0 f i ManagerLib:PacketHandlers.obj
 0001:00059b20       ?pointer_to@?$pointer_traits@PEAU?$pair@$$CBHPEAVPacketHandler@@@std@@@std@@SAPEAU?$pair@$$CBHPEAVPacketHandler@@@2@AEAU32@@Z 000000018005ab20 f i ManagerLib:PacketHandlers.obj
 0001:00059b20       ?_Left@?$_Tree_comp_alloc@V?$_Tmap_traits@IPEAUtagDISKIMG@@U?$less@I@std@@V?$allocator@U?$pair@$$CBIPEAUtagDISKIMG@@@std@@@3@$0A@@std@@@std@@SAAEAPEAU?$_Tree_node@U?$pair@$$CBIPEAUtagDISKIMG@@@std@@PEAX@2@PEAU32@@Z 000000018005ab20 f i ManagerLib:DiskLogic.obj
 0001:00059b20       ?pointer_to@?$pointer_traits@PEAU?$pair@$$CBIPEAUtagOSIMG@@@std@@@std@@SAPEAU?$pair@$$CBIPEAUtagOSIMG@@@2@AEAU32@@Z 000000018005ab20 f i ManagerLib:OsImgLogic.obj
 0001:00059b20       ?_Left@?$_Tree_comp_alloc@V?$_Tmap_traits@IPEAUtagGROUPINFO@@U?$less@I@std@@V?$allocator@U?$pair@$$CBIPEAUtagGROUPINFO@@@std@@@3@$0A@@std@@@std@@SAAEAPEAU?$_Tree_node@U?$pair@$$CBIPEAUtagGROUPINFO@@@std@@PEAX@2@PEAU32@@Z 000000018005ab20 f i ManagerLib:GroupLogic.obj
 0001:00059b20       ?_Left@?$_Tree_comp_alloc@V?$_Tmap_traits@IW4LogicType@@U?$less@I@std@@V?$allocator@U?$pair@$$CBIW4LogicType@@@std@@@3@$0A@@std@@@std@@SAAEAPEAU?$_Tree_node@U?$pair@$$CBIW4LogicType@@@std@@PEAX@2@PEAU32@@Z 000000018005ab20 f i ManagerLib:LogicManager.obj
 0001:00059b20       ?pointer_to@?$pointer_traits@PEAU?$pair@$$CBIPEAUtagREQUEST_EX@@@std@@@std@@SAPEAU?$pair@$$CBIPEAUtagREQUEST_EX@@@2@AEAU32@@Z 000000018005ab20 f i ManagerLib:SessionBuildPartImgCnt.obj
 0001:00059b20       ?pointer_to@?$pointer_traits@PEAU?$pair@$$CBIPEAUtagGROUPINFO@@@std@@@std@@SAPEAU?$pair@$$CBIPEAUtagGROUPINFO@@@2@AEAU32@@Z 000000018005ab20 f i ManagerLib:GroupLogic.obj
 0001:00059b20       ?_Left@?$_Tree_comp_alloc@V?$_Tmap_traits@IPEAUtagREQUEST_EX@@U?$less@I@std@@V?$allocator@U?$pair@$$CBIPEAUtagREQUEST_EX@@@std@@@3@$0A@@std@@@std@@SAAEAPEAU?$_Tree_node@U?$pair@$$CBIPEAUtagREQUEST_EX@@@std@@PEAX@2@PEAU32@@Z 000000018005ab20 f i ManagerLib:SessionBuildPartImgCnt.obj
 0001:00059b20       ?_Left@?$_Tree_comp_alloc@V?$_Tmap_traits@IUtagUSERLIST_ITEM@@U?$less@I@std@@V?$allocator@U?$pair@$$CBIUtagUSERLIST_ITEM@@@std@@@3@$0A@@std@@@std@@SAAEAPEAU?$_Tree_node@U?$pair@$$CBIUtagUSERLIST_ITEM@@@std@@PEAX@2@PEAU32@@Z 000000018005ab20 f i ManagerLib:UserLogic.obj
 0001:00059b20       ?pointer_to@?$pointer_traits@PEAU?$pair@$$CBGPEAUtagPARTIMG@@@std@@@std@@SAPEAU?$pair@$$CBGPEAUtagPARTIMG@@@2@AEAU32@@Z 000000018005ab20 f i ManagerLib:PartImgLogic.obj
 0001:00059b20       ?_Left@?$_Tree_comp_alloc@V?$_Tmap_traits@GPEAUtagPARTIMG@@U?$less@G@std@@V?$allocator@U?$pair@$$CBGPEAUtagPARTIMG@@@std@@@3@$0A@@std@@@std@@SAAEAPEAU?$_Tree_node@U?$pair@$$CBGPEAUtagPARTIMG@@@std@@PEAX@2@PEAU32@@Z 000000018005ab20 f i ManagerLib:PartImgLogic.obj
 0001:00059b20       ?pointer_to@?$pointer_traits@PEAU?$pair@$$CBIPEAUtagDISKIMG@@@std@@@std@@SAPEAU?$pair@$$CBIPEAUtagDISKIMG@@@2@AEAU32@@Z 000000018005ab20 f i ManagerLib:DiskLogic.obj
